Starting gRPC export scanner (v2) for 'Chuyện Công Chúa'...
Log will be saved to '/home/ws/grpc_exports.log'
[+] Found libgrpc_csharp_ext.so at: 0x6b64294000
[*] Found 8755 exports. Sending them one by one...
    - function: _ZN9grpc_core17HealthCheckClient9CallState24RecvInitialMetadataReadyEPvP10grpc_error (Address: 0x6b64469948)
    - function: _ZN39grpc_google_default_channel_credentials25create_security_connectorEN9grpc_core13RefCountedPtrI21grpc_call_credentialsEEPKcPK17grpc_channel_argsPPS6_ (Address: 0x6b6453a678)
    - function: _ZNSt6__ndk13mapINS_12basic_stringIcNS_11char_traitsIcEENS_9allocatorIcEEEEN9grpc_core6XdsApi15RdsResourceDataENS_4lessIS6_EENS4_INS_4pairIKS6_S9_EEEEEixERSD_ (Address: 0x6b644ff4e8)
    - function: _ZNK9grpc_core12XdsBootstrap8ToStringEv (Address: 0x6b6450427c)
    - function: _ZNKSt6__ndk112basic_stringIwNS_11char_traitsIwEENS_9allocatorIwEEE7compareEmmPKw (Address: 0x6b64739fd4)
    - function: _ZNSt6__ndk16__treeINS_12__value_typeINS_12basic_stringIcNS_11char_traitsIcEENS_9allocatorIcEEEENS_6vectorIS7_NS5_IS7_EEEEEENS_19__map_value_compareIS7_SB_NS_4lessIS7_EELb1EEENS5_ISB_EEE7destroyEPNS_11__tree_nodeISB_PvEE (Address: 0x6b644b9aa4)
    - function: __cxa_allocate_dependent_exception (Address: 0x6b64741280)
    - variable: _ZTIN9grpc_core14DualRefCountedINS_10SubchannelEEE (Address: 0x6b648f3260)
    - function: _ZNKSt6__ndk110moneypunctIcLb0EE13do_neg_formatEv (Address: 0x6b64710df4)
    - variable: grpc_stream_compression_gzip_vtable (Address: 0x6b648f9ae8)
    - variable: _ZTCNSt6__ndk114basic_iostreamIcNS_11char_traitsIcEEEE16_NS_13basic_ostreamIcS2_EE (Address: 0x6b64912c70)
    - function: _ZNKSt6__ndk120__codecvt_utf8_utf16IwE13do_max_lengthEv (Address: 0x6b6472a6e4)
    - function: _ZN4absl12lts_202103249StrAppendEPNSt6__ndk112basic_stringIcNS1_11char_traitsIcEENS1_9allocatorIcEEEERKNS0_8AlphaNumESB_SB_ (Address: 0x6b645eab68)
    - function: _ZN9grpc_core18ChildPolicyHandler14ShutdownLockedEv (Address: 0x6b643fb478)
    - variable: __cxa_terminate_handler (Address: 0x6b64922b00)
    - function: upb_map_size (Address: 0x6b645c11c4)
    - variable: envoy_config_endpoint_v3_ClusterLoadAssignment_NamedEndpointsEntry_msginit (Address: 0x6b648fbe38)
    - function: _Z48tsi_ssl_extract_x509_subject_names_from_pem_certPKcP8tsi_peer (Address: 0x6b644618d4)
    - function: _Z21grpc_call_context_setP9grpc_call18grpc_context_indexPvPFvS2_E (Address: 0x6b64441120)
    - function: _ZN9grpc_core20GlobalSubchannelPool20UnregisterSubchannelERKNS_13SubchannelKeyEPNS_10SubchannelE (Address: 0x6b643fa308)
    - function: _Z25alts_destroy_frame_readerP17alts_frame_reader (Address: 0x6b64578380)
    - function: _ZN4absl12lts_20210324lsERNSt6__ndk113basic_ostreamIcNS1_11char_traitsIcEEEENS0_10StatusCodeE (Address: 0x6b645c1d0c)
    - function: _ZN3re26Regexp4SwapEPS0_ (Address: 0x6b6458fb20)
    - function: _ZN9grpc_core17StaticMetadataCtxC2Ev (Address: 0x6b6445a7fc)
    - function: _ZN3re214SimplifyWalkerD0Ev (Address: 0x6b645af738)
    - function: _tr_align (Address: 0x6b64584bf4)
    - function: _ZN4absl12lts_2021032413time_internal4cctz13utc_time_zoneEv (Address: 0x6b645f70b0)
    - function: _ZN9grpc_core9XdsClient13EndpointStateD2Ev (Address: 0x6b6451bcec)
    - function: _ZN4absl12lts_2021032416strings_internal11BigUnsignedILi84EE10MultiplyByEm (Address: 0x6b645ef150)
    - function: _Z31grpc_httpcli_format_get_requestPK20grpc_httpcli_request (Address: 0x6b64527d18)
    - function: _Z23alts_reset_frame_readerP17alts_frame_readerPh (Address: 0x6b645781c4)
    - variable: _ZTV23grpc_server_credentials (Address: 0x6b648f3c68)
    - variable: _ZTIN9grpc_core6chttp221StreamFlowControlBaseE (Address: 0x6b648f8aa8)
    - function: _ZNK17grpc_event_engine12experimental11EventEngine15ResolvedAddress7addressEv (Address: 0x6b64527d00)
    - function: _Z22grpc_http_filters_initv (Address: 0x6b644beed0)
    - function: _Z30grpc_security_connector_to_argP23grpc_security_connector (Address: 0x6b644368ec)
    - variable: _ZTINSt6__ndk19money_getIwNS_19istreambuf_iteratorIwNS_11char_traitsIwEEEEEE (Address: 0x6b649150d0)
    - variable: _ZNSt6__ndk16locale7numericE (Address: 0x6b648044d8)
    - function: _Z22grpc_http_parser_parseP16grpc_http_parserRK10grpc_slicePm (Address: 0x6b64529918)
    - function: _Z24grpc_resource_user_quotaP18grpc_resource_user (Address: 0x6b6452e8b0)
    - variable: _ZTINSt6__ndk113messages_baseE (Address: 0x6b649151a8)
    - function: _ZN43grpc_httpcli_ssl_channel_security_connectorC2EPc (Address: 0x6b645592ac)
    - function: _ZN9grpc_core10Subchannel28ConnectivityStateWatcherList16AddWatcherLockedENS_13RefCountedPtrINS0_33ConnectivityStateWatcherInterfaceEEE (Address: 0x6b6440d16c)
    - function: __cxa_rethrow_primary_exception (Address: 0x6b64741758)
    - function: _Z14grpc_inet_ntopiPKvPcm (Address: 0x6b6442d568)
    - function: _ZN4absl12lts_2021032416strings_internal11BigUnsignedILi4EE9SetToZeroEv (Address: 0x6b645edb0c)
    - variable: _ZTVNSt6__ndk112future_errorE (Address: 0x6b64915718)
    - function: _ZN9grpc_core8channelz11ChannelNode17PopulateChildRefsEPNSt6__ndk13mapINS2_12basic_stringIcNS2_11char_traitsIcEENS2_9allocatorIcEEEENS_4JsonENS2_4lessIS9_EENS7_INS2_4pairIKS9_SA_EEEEEE (Address: 0x6b6441dd7c)
    - variable: _ZTSN9grpc_core19ConnectedSubchannelE (Address: 0x6b64777950)
    - function: _Z21alts_counter_get_sizeP12alts_counter (Address: 0x6b6457c9ec)
    - variable: __emutls_v._ZN9grpc_core7ExecCtx9exec_ctx_E (Address: 0x6b6491f070)
    - function: _Z43tsi_create_ssl_server_handshaker_factory_exPK25tsi_ssl_pem_key_cert_pairmPKc35tsi_client_certificate_request_typeS3_PS3_tPP33tsi_ssl_server_handshaker_factory (Address: 0x6b64463464)
    - function: _ZN9grpc_core8internal29SetXdsFallbackBootstrapConfigEPKc (Address: 0x6b64518f54)
    - variable: _ZNSt6__ndk114numeric_limitsIN4absl12lts_202103247uint128EE12max_digits10E (Address: 0x6b647e06a0)
    - function: _ZNSt6__ndk115basic_streambufIwNS_11char_traitsIwEEED1Ev (Address: 0x6b646f2764)
    - function: _ZNSt6__ndk112basic_stringIcNS_11char_traitsIcEENS_9allocatorIcEEE6assignERKS5_mm (Address: 0x6b647334b8)
    - variable: _ZTSSt15underflow_error (Address: 0x6b648074b0)
    - function: _Z36grpc_channel_stack_builder_move_prevP35grpc_channel_stack_builder_iterator (Address: 0x6b64419a20)
    - function: _ZNSt6__ndk16vectorIN9grpc_core12GrpcLbServerENS_9allocatorIS2_EEE7emplaceIJEEENS_11__wrap_iterIPS2_EENS7_IPKS2_EEDpOT_ (Address: 0x6b64474744)
    - function: _ZN9grpc_core9XdsClient12ChannelState12LrsCallState8Reporter23OnNextReportTimerLockedEP10grpc_error (Address: 0x6b64510f8c)
    - function: _ZNSt6__ndk112basic_stringIcNS_11char_traitsIcEENS_9allocatorIcEEE6__initEPKcmm (Address: 0x6b64735e64)
    - function: _ZN22grpc_tls_error_detailsD2Ev (Address: 0x6b64567cf0)
    - function: _ZNSt6__ndk115__thread_structC2Ev (Address: 0x6b6473f640)
    - function: grpcsharp_batch_context_destroy (Address: 0x6b643e7004)
    - function: _Z25grpc_chttp2_goaway_appendjjRK10grpc_sliceP17grpc_slice_buffer (Address: 0x6b644d3288)
    - function: _ZNSt6__ndk113__vector_baseIPK19grpc_channel_filterNS_9allocatorIS3_EEED2Ev (Address: 0x6b644b63d8)
    - function: _ZNSt6__ndk115numpunct_bynameIwEC1ERKNS_12basic_stringIcNS_11char_traitsIcEENS_9allocatorIcEEEEm (Address: 0x6b6472b34c)
    - function: _Z35grpc_channel_get_call_size_estimateP12grpc_channel (Address: 0x6b64446630)
    - function: _ZN9grpc_core19DefaultSslRootStore19ComputePemRootCertsEv (Address: 0x6b64439208)
    - function: _ZNKSt6__ndk18numpunctIcE11do_groupingEv (Address: 0x6b6472ac08)
    - variable: grpc_compression_trace (Address: 0x6b64923ce0)
    - function: upb_msg_clearfield (Address: 0x6b645c0eac)
    - variable: envoy_config_bootstrap_v3_Watchdogs_msginit (Address: 0x6b648faf20)
    - function: _ZN9grpc_core12BdpEstimatorC1EPKc (Address: 0x6b64550eb8)
    - function: _ZNKSt6__ndk18numpunctIwE12do_falsenameEv (Address: 0x6b6472ac88)
    - function: _Z37grpc_gcp_rpc_protocol_versions_decodeRK10grpc_sliceP29_grpc_gcp_RpcProtocolVersions (Address: 0x6b64569920)
    - function: _ZNSt6__ndk110__function6__funcIZN9grpc_core13ClientChannel26ConnectivityWatcherRemoverC1EPS3_PNS2_38AsyncConnectivityStateWatcherInterfaceEEUlvE_NS_9allocatorIS8_EEFvvEE7destroyEv (Address: 0x6b643f59cc)
    - variable: grpc_tcp_trace (Address: 0x6b64924c70)
    - function: _ZNK9grpc_core13ClientChannel16LoadBalancedCall8Metadata17IteratorHandleGetEl (Address: 0x6b643f6210)
    - variable: _ZNSt6__ndk17num_getIcNS_19istreambuf_iteratorIcNS_11char_traitsIcEEEEE2idE (Address: 0x6b64928bf8)
    - function: _ZN9grpc_core9XdsClient12ChannelState12AdsCallState13ResourceStateD2Ev (Address: 0x6b6451e730)
    - function: _ZN3tsi18SslSessionLRUCache9PushFrontEPNS0_4NodeE (Address: 0x6b64553074)
    - function: _ZNKSt6__ndk114__codecvt_utf8IDsE16do_always_noconvEv (Address: 0x6b64728d10)
    - function: _ZNSt6__ndk15dequeIPKN4absl12lts_2021032413time_internal4cctz9time_zone4ImplENS_9allocatorIS8_EEE19__add_back_capacityEv (Address: 0x6b645f8ff0)
    - function: _ZNK9grpc_core18XdsHttpFaultFilter28GenerateFilterConfigOverrideE11upb_strviewP9upb_arena (Address: 0x6b64558ba4)
    - variable: udpa_annotations_migrate_proto_upbdefinit (Address: 0x6b649214e8)
    - variable: _ZTIN9grpc_core8channelz10SocketNode8SecurityE (Address: 0x6b648f4050)
    - function: _ZN9grpc_core6Server14SetupTransportEP14grpc_transportP12grpc_pollsetPK17grpc_channel_argsRKNS_13RefCountedPtrINS_8channelz10SocketNodeEEEP18grpc_resource_user (Address: 0x6b6444e87c)
    - function: _ZN4absl12lts_2021032423inlined_vector_internal7StorageIN9grpc_core13ServerAddressELm1ENSt6__ndk19allocatorIS4_EEE15EmplaceBackSlowIJPA128_cRjDnEEERS4_DpOT_ (Address: 0x6b644a99a8)
    - function: upb_arena_free (Address: 0x6b645c0454)
    - function: _ZNSt6__ndk112basic_stringIcNS_11char_traitsIcEENS_9allocatorIcEEE6insertEmPKc (Address: 0x6b647336a8)
    - variable: _ZTI20grpc_ssl_credentials (Address: 0x6b648f3bf0)
    - function: _ZN4absl12lts_2021032419str_format_internal16ConvertFloatImplEfRKNS1_24FormatConversionSpecImplEPNS1_14FormatSinkImplE (Address: 0x6b645d5588)
    - function: _ZNKSt6__ndk117moneypunct_bynameIcLb0EE16do_positive_signEv (Address: 0x6b647117f0)
    - function: _Z23grpc_timer_consume_kickv (Address: 0x6b6442d618)
    - function: upb_fielddef_defaultstr (Address: 0x6b645b7644)
    - variable: envoy_config_listener_v3_Filter_msginit (Address: 0x6b648fc0a8)
    - function: upb_inttable_removeptr (Address: 0x6b645be0d8)
    - function: _Z17grpc_pollset_kickP12grpc_pollsetP19grpc_pollset_worker (Address: 0x6b6452cdd8)
    - function: _Z25grpc_httpcli_set_overridePFiPK20grpc_httpcli_requestlP12grpc_closureP18grpc_http_responseEPFiS1_PKcmlS3_S5_E (Address: 0x6b64529130)
    - function: _ZNKSt6__ndk17num_getIwNS_19istreambuf_iteratorIwNS_11char_traitsIwEEEEE17__do_get_unsignedImEES4_S4_S4_RNS_8ios_baseERjRT_ (Address: 0x6b64702b80)
    - function: _Z36grpc_channel_stack_builder_move_nextP35grpc_channel_stack_builder_iterator (Address: 0x6b644199f8)
    - function: _ZNSt6__ndk19__num_putIwE23__widen_and_group_floatEPcS2_S2_PwRS3_S4_RKNS_6localeE (Address: 0x6b64709318)
    - function: _tr_flush_bits (Address: 0x6b64584b64)
    - function: _ZNSt6__ndk19__num_putIcE21__widen_and_group_intEPcS2_S2_S2_RS2_S3_RKNS_6localeE (Address: 0x6b64705f44)
    - function: _ZN3re26Regexp6WalkerIiE4CopyEi (Address: 0x6b64591d94)
    - variable: _ZTSN9grpc_core18ChildPolicyHandlerE (Address: 0x6b64774d30)
    - function: _ZN20grpc_ssl_credentialsC1EPKcP26grpc_ssl_pem_key_cert_pairPK28grpc_ssl_verify_peer_options (Address: 0x6b644356d0)
    - function: _ZNKSt6__ndk17num_getIcNS_19istreambuf_iteratorIcNS_11char_traitsIcEEEEE17__do_get_unsignedIjEES4_S4_S4_RNS_8ios_baseERjRT_ (Address: 0x6b646feb28)
    - function: grpc_external_account_credentials_create (Address: 0x6b6455eaf8)
    - function: _ZNSt6__ndk112basic_stringIwNS_11char_traitsIwEENS_9allocatorIwEEE6assignERKS5_mm (Address: 0x6b647375e4)
    - function: _ZNK9grpc_core6XdsApi9LdsUpdate21HttpConnectionManager8ToStringEv (Address: 0x6b644e68d0)
    - function: _ZNSt6__ndk114__codecvt_utf8IDiED0Ev (Address: 0x6b6472f698)
    - function: _ZNKSt6__ndk119__shared_weak_count13__get_deleterERKSt9type_info (Address: 0x6b6473108c)
    - variable: envoy_config_core_v3_AsyncDataSource_msginit (Address: 0x6b648fb7a8)
    - function: _ZNSt6__ndk113basic_ostreamIcNS_11char_traitsIcEEElsEx (Address: 0x6b646f9390)
    - function: _ZN9grpc_core19ConnectivityWatcher25OnConnectivityStateChangeE23grpc_connectivity_stateRKN4absl12lts_202103246StatusE (Address: 0x6b644c27cc)
    - function: _ZN9grpc_core6XdsApi9LdsUpdate21HttpConnectionManagerC2ERKS2_ (Address: 0x6b64519fc4)
    - function: grpcsharp_server_cancel_all_calls (Address: 0x6b643e8260)
    - function: _Z29grpc_metadata_batch_link_headP19grpc_metadata_batchP18grpc_linked_mdelem (Address: 0x6b64459694)
    - function: _ZN9grpc_core9XdsClient12ChannelState17UnsubscribeLockedERKNSt6__ndk112basic_stringIcNS2_11char_traitsIcEENS2_9allocatorIcEEEESA_b (Address: 0x6b64509a48)
    - function: _ZNSt6__ndk115__codecvt_utf16IDiLb0EED0Ev (Address: 0x6b6472f74c)
    - function: upb_strtable_insert3 (Address: 0x6b645bd008)
    - function: _ZN9grpc_core11FilterChain16FilterChainMatchD2Ev (Address: 0x6b644e863c)
    - function: _ZN9grpc_core18ChildPolicyHandler17CreateChildPolicyEPKcRK17grpc_channel_args (Address: 0x6b643fb820)
    - variable: _ZTSNSt6__ndk112codecvt_baseE (Address: 0x6b64805a80)
    - function: _Z25grpc_chttp2_cancel_streamP21grpc_chttp2_transportP18grpc_chttp2_streamP10grpc_error (Address: 0x6b644cb484)
    - function: _ZNSt6__ndk114__codecvt_utf8IwED0Ev (Address: 0x6b6472f650)
    - function: _ZNKSt6__ndk110__time_put8__do_putEPcRS1_PK2tmcc (Address: 0x6b6470fe44)
    - variable: _ZTIN9grpc_core10RefCountedINS_6XdsApi9EdsUpdate10DropConfigENS_19PolymorphicRefCountELNS_13UnrefBehaviorE0EEE (Address: 0x6b648f69c0)
    - variable: _ZTINSt6__ndk17codecvtIDic9mbstate_tEE (Address: 0x6b64914050)
    - variable: google_protobuf_OneofDescriptorProto_msginit (Address: 0x6b649024b8)
    - function: _ZN9grpc_core12FakeResolverC2ENS_12ResolverArgsE (Address: 0x6b644a9ba4)
    - variable: _ZTVN9grpc_core17HealthCheckClientE (Address: 0x6b648f4a50)
    - function: _ZN3re23RE23Arg10parse_nullEPKcmPv (Address: 0x6b6458a988)
    - function: _ZN9grpc_core17GrpcLbClientStats14AddCallDroppedEPKc (Address: 0x6b64473c00)
    - function: _ZNKSt6__ndk112ctype_bynameIwE8do_widenEc (Address: 0x6b64726a5c)
    - function: _ZNSt6__ndk16vectorIN4absl12lts_2021032411string_viewENS_9allocatorIS3_EEE24__emplace_back_slow_pathIJRNS_12basic_stringIcNS_11char_traitsIcEENS4_IcEEEEEEEvDpOT_ (Address: 0x6b645757ec)
    - variable: _ZTVN9grpc_core6chttp220TransportFlowControlE (Address: 0x6b648f8b50)
    - function: _ZNSt6__ndk113basic_istreamIwNS_11char_traitsIwEEE7putbackEw (Address: 0x6b646f8498)
    - variable: _ZTSNSt6__ndk111__money_getIwEE (Address: 0x6b648062a0)
    - function: upb_array_get (Address: 0x6b645c14fc)
    - function: _ZN4absl12lts_2021032413time_internal4cctz14ZoneInfoSourceD0Ev (Address: 0x6b64600c08)
    - function: _ZN9grpc_core22XdsCertificateProvider27GetRequireClientCertificateERKNSt6__ndk112basic_stringIcNS1_11char_traitsIcEENS1_9allocatorIcEEEE (Address: 0x6b645070fc)
    - function: _ZN9grpc_core9XdsClient12ChannelState12LrsCallStateD1Ev (Address: 0x6b64512408)
    - function: _ZNSt6__ndk115basic_streambufIwNS_11char_traitsIwEEE4setgEPwS4_S4_ (Address: 0x6b646f2b64)
    - variable: envoy_config_cluster_v3_Cluster_LeastRequestLbConfig_msginit (Address: 0x6b648fb248)
    - function: _ZN4absl12lts_2021032420UnauthenticatedErrorENS0_11string_viewE (Address: 0x6b645c3320)
    - function: _ZN9grpc_core9XdsClient12ChannelState12LrsCallState8Reporter16SendReportLockedEv (Address: 0x6b64510fd4)
    - function: _ZNSt6__ndk115basic_streambufIwNS_11char_traitsIwEEE6xsputnEPKwl (Address: 0x6b646f2ce0)
    - function: _ZN9grpc_core18XdsSecurityEnabledEv (Address: 0x6b644e2eec)
    - function: _ZN3re214SimplifyWalker14SimplifyRepeatEPNS_6RegexpEiiNS1_10ParseFlagsE (Address: 0x6b645af1e4)
    - variable: _ZTVSt9type_info (Address: 0x6b64916770)
    - variable: validate_Int64Rules_msginit (Address: 0x6b648fe710)
    - function: _ZNSt6__ndk16__treeINS_12__value_typeINS_12basic_stringIcNS_11char_traitsIcEENS_9allocatorIcEEEEN9grpc_core24CertificateProviderStore16PluginDefinitionEEENS_19__map_value_compareIS7_SB_NS_4lessIS7_EELb1EEENS5_ISB_EEE4findIS7_EENS_15__tree_iteratorISB_PNS_11__tree_nodeISB_PvEElEERKT_ (Address: 0x6b644e1c94)
    - function: _ZNKSt6__ndk120__time_get_c_storageIwE3__xEv (Address: 0x6b6472bfc4)
    - variable: _ZTSN9grpc_core19LoadBalancingPolicy9CallStateE (Address: 0x6b64774270)
    - variable: has_real_wakeup_fd (Address: 0x6b6491fe40)
    - variable: _ZTVN4absl12lts_2021032417BadStatusOrAccessE (Address: 0x6b64902070)
    - function: _ZN9grpc_core18ManagedMemorySliceC1EPKcm (Address: 0x6b6443ee6c)
    - function: grpcsharp_batch_context_recv_initial_metadata (Address: 0x6b643e70c4)
    - function: _ZN9grpc_core13ClientChannel24RemoveResolverQueuedCallEPNS0_18ResolverQueuedCallEP19grpc_polling_entity (Address: 0x6b643ee5cc)
    - function: _ZNSt6__ndk16vectorIP10grpc_errorNS_9allocatorIS2_EEE21__push_back_slow_pathIRKS2_EEvOT_ (Address: 0x6b64400f20)
    - function: _ZN9grpc_core38LockedMultiProducerSingleConsumerQueue4PushEPNS_32MultiProducerSingleConsumerQueue4NodeE (Address: 0x6b645b5998)
    - variable: _ZTIN9grpc_core19LoadBalancingPolicy20ChannelControlHelperE (Address: 0x6b648f2688)
    - function: _Z31alts_crypter_num_overhead_bytesPK12alts_crypter (Address: 0x6b6457cab0)
    - function: upb_enumdef_iton (Address: 0x6b645b74a8)
    - function: grpc_tls_server_authorization_check_config_create (Address: 0x6b64562aa8)
    - variable: _ZTISt8bad_cast (Address: 0x6b649167a0)
    - function: _ZNSt6__ndk18ios_base7failureC1EPKcRKNS_10error_codeE (Address: 0x6b646fce6c)
    - function: _Z22grpc_channel_args_copyPK17grpc_channel_args (Address: 0x6b644181b4)
    - function: _ZN9grpc_core13SubchannelKey4InitEPK17grpc_channel_argsPFPS1_S3_E (Address: 0x6b644128d0)
    - function: _ZNSt6__ndk18ios_base5imbueERKNS_6localeE (Address: 0x6b646f1650)
    - function: _ZSt18make_exception_ptrINSt6__ndk112future_errorEESt13exception_ptrT_ (Address: 0x6b64740bf8)
    - function: _ZN4absl12lts_2021032424synchronization_internal12PerThreadSem4InitEPNS0_13base_internal14ThreadIdentityE (Address: 0x6b645dfc50)
    - variable: envoy_extensions_filters_network_http_connection_manager_v3_HttpConnectionManager_SetCurrentClientCertDetails_msginit (Address: 0x6b648fcdf8)
    - variable: envoy_type_matcher_v3_string_proto_upbdefinit (Address: 0x6b649210e8)
    - function: _ZN4absl12lts_2021032423inlined_vector_internal7StorageINSt6__ndk110unique_ptrIN9grpc_core15ResolverFactoryENS3_14default_deleteIS6_EEEELm10ENS3_9allocatorIS9_EEE15DestroyContentsEv (Address: 0x6b643ff980)
    - variable: _ZTIPDi (Address: 0x6b64916060)
    - function: upb_map_set (Address: 0x6b645c1780)
    - function: _ZN9grpc_core26ExternalAccountCredentials7OptionsD2Ev (Address: 0x6b6455c2c0)
    - function: _ZNKSt6__ndk110moneypunctIcLb0EE14do_curr_symbolEv (Address: 0x6b64710db0)
    - function: _ZNKSt6__ndk115__codecvt_utf16IDiLb1EE5do_inER9mbstate_tPKcS5_RS5_PDiS7_RS7_ (Address: 0x6b64729dd0)
    - function: _ZNSt6__ndk112basic_stringIcNS_11char_traitsIcEENS_9allocatorIcEEE7replaceEmmPKcm (Address: 0x6b6458e254)
    - variable: _ZTIN9grpc_core9XdsClient12ChannelState12AdsCallState13ResourceStateE (Address: 0x6b648f9830)
    - variable: _ZN9grpc_core21grpc_handshaker_traceE (Address: 0x6b64924c10)
    - variable: envoy_extensions_transport_sockets_tls_v3_CommonTlsContext_msginit (Address: 0x6b648fd118)
    - function: _ZN9grpc_core6Server8CallData32RecvInitialMetadataBatchCompleteEPvP10grpc_error (Address: 0x6b644516f0)
    - variable: _ZN9grpc_core30grpc_xds_cluster_impl_lb_traceE (Address: 0x6b649249a8)
    - function: grpcsharp_channel_check_connectivity_state (Address: 0x6b643e74b8)
    - function: _ZNSt6__ndk17promiseIvE9set_valueEv (Address: 0x6b64740d30)
    - function: _Z34alts_iovec_record_protocol_destroyP26alts_iovec_record_protocol (Address: 0x6b6457c7b8)
    - function: _ZNSt6__ndk16vectorIN9grpc_core32FaultInjectionMethodParsedConfig20FaultInjectionPolicyENS_9allocatorIS3_EEE10deallocateEv (Address: 0x6b644bea74)
    - function: _ZNSt6__ndk14pairIKNS_12basic_stringIcNS_11char_traitsIcEENS_9allocatorIcEEEEN9grpc_core9XdsClient12ClusterStateEED2Ev (Address: 0x6b6451be90)
    - function: _ZN4absl12lts_2021032423inlined_vector_internal7StorageIN9grpc_core13RefCountedPtrI21grpc_call_credentialsEELm2ENSt6__ndk19allocatorIS6_EEE15EmplaceBackSlowIJS6_EEERS6_DpOT_ (Address: 0x6b64433b54)
    - variable: _ZTSNSt6__ndk119__shared_weak_countE (Address: 0x6b64806590)
    - variable: envoy_config_trace_v3_Tracing_Http_msginit (Address: 0x6b648fcca8)
    - function: _ZNSt6__ndk19to_stringEe (Address: 0x6b6473d050)
    - function: _ZN9grpc_core8channelz10SocketNodeC1ENSt6__ndk112basic_stringIcNS2_11char_traitsIcEENS2_9allocatorIcEEEES8_S8_NS_13RefCountedPtrINS1_8SecurityEEE (Address: 0x6b644213d4)
    - function: _ZNSt6__ndk114__split_bufferIN9grpc_core32FaultInjectionMethodParsedConfig20FaultInjectionPolicyERNS_9allocatorIS3_EEED2Ev (Address: 0x6b644be840)
    - function: _ZN4absl12lts_2021032423inlined_vector_internal7StorageINSt6__ndk110unique_ptrIN9grpc_core26LoadBalancingPolicyFactoryENS3_14default_deleteIS6_EEEELm10ENS3_9allocatorIS9_EEE15EmplaceBackSlowIJS9_EEERS9_DpOT_ (Address: 0x6b643fd084)
    - function: _ZN4absl12lts_2021032419str_format_internal13FormatArgImpl8DispatchIjEEbNS2_4DataENS1_24FormatConversionSpecImplEPv (Address: 0x6b645d0b0c)
    - variable: _ZTSN9grpc_core19ServiceConfigParser12ParsedConfigE (Address: 0x6b647754b0)
    - function: _ZN4absl12lts_2021032415TimeFromTimevalE7timeval (Address: 0x6b645e4fac)
    - function: _ZN9grpc_core9XdsClient22DumpClientConfigBinaryEv (Address: 0x6b6451740c)
    - variable: _ZTIN9grpc_core9XdsClient12ChannelState12LrsCallState8ReporterE (Address: 0x6b648f95a0)
    - variable: _ZTIN9grpc_core6chttp228TransportFlowControlDisabledE (Address: 0x6b648f8c90)
    - variable: _ZTVN4absl12lts_2021032419bad_optional_accessE (Address: 0x6b64902ce8)
    - function: _ZN4absl12lts_2021032419str_format_internal13FormatArgImpl8DispatchINS0_6int128EEEbNS2_4DataENS1_24FormatConversionSpecImplEPv (Address: 0x6b645d1700)
    - function: _ZN4absl12lts_2021032413time_internal4cctz12TimeZoneInfo4LoadERKNSt6__ndk112basic_stringIcNS4_11char_traitsIcEENS4_9allocatorIcEEEE (Address: 0x6b645fc81c)
    - function: _ZNKSt6__ndk110moneypunctIcLb1EE16do_thousands_sepEv (Address: 0x6b64710edc)
    - variable: envoy_config_route_v3_VirtualHost_msginit (Address: 0x6b648fc4c8)
    - function: _ZNSt6__ndk16vectorIN4absl12lts_2021032413time_internal4cctz10TransitionENS_9allocatorIS5_EEE7emplaceIJEEENS_11__wrap_iterIPS5_EENSA_IPKS5_EEDpOT_ (Address: 0x6b645fa3cc)
    - function: _ZN9grpc_core6XdsApi9RdsUpdate11VirtualHostaSEOS2_ (Address: 0x6b644bad20)
    - variable: _ZNSt6__ndk114numeric_limitsIN4absl12lts_202103246int128EE15tinyness_beforeE (Address: 0x6b647e06f5)
    - function: _ZN4absl12lts_2021032423inlined_vector_internal7StorageINSt6__ndk110unique_ptrINS0_13InlinedVectorINS4_IN9grpc_core19ServiceConfigParser12ParsedConfigENS3_14default_deleteIS8_EEEELm4ENS3_9allocatorISB_EEEENS9_ISE_EEEELm32ENSC_ISG_EEE15DestroyContentsEv (Address: 0x6b6440b510)
    - function: _ZN9grpc_core32MultiProducerSingleConsumerQueue3PopEv (Address: 0x6b645b587c)
    - variable: _ZN9grpc_core23grpc_lb_ring_hash_traceE (Address: 0x6b64924948)
    - variable: _ZTSg (Address: 0x6b6480720c)
    - function: _ZN3re214SimplifyWalker8PreVisitEPNS_6RegexpES2_Pb (Address: 0x6b645aee54)
    - function: grpcsharp_batch_context_recv_message_length (Address: 0x6b643e70cc)
    - function: _Z24grpc_parse_ipv6_hostportN4absl12lts_2021032411string_viewEP21grpc_resolved_addressb (Address: 0x6b6441592c)
    - function: _ZN9grpc_core19Chttp2ServerAddPortEPNS_6ServerEPKcP17grpc_channel_argsNSt6__ndk18functionIFS5_S5_PP10grpc_errorEEEPi (Address: 0x6b644c4b68)
    - function: _ZN9grpc_core13StringMatcher6CreateENS0_4TypeEN4absl12lts_2021032411string_viewEb (Address: 0x6b64538054)
    - variable: _ZTSN9grpc_core10RefCountedINS_19SubchannelInterfaceENS_19PolymorphicRefCountELNS_13UnrefBehaviorE0EEE (Address: 0x6b647743e0)
    - function: _ZNK9grpc_core13ServerAddress13WithAttributeEPKcNSt6__ndk110unique_ptrINS0_18AttributeInterfaceENS3_14default_deleteIS5_EEEE (Address: 0x6b64408b38)
    - variable: _ZTVN4absl12lts_2021032413time_internal4cctz10TimeZoneIfE (Address: 0x6b64902a08)
    - function: _Z31grpc_chttp2_fail_pending_writesP21grpc_chttp2_transportP18grpc_chttp2_streamP10grpc_error (Address: 0x6b644cc160)
    - variable: envoy_service_discovery_v3_DeltaDiscoveryResponse_msginit (Address: 0x6b648fd248)
    - function: _ZN3re23RE2D2Ev (Address: 0x6b64588448)
    - variable: _ZTSNSt6__ndk115numpunct_bynameIcEE (Address: 0x6b64805220)
    - function: _ZN18grpc_chttp2_stream6RefferC2EPS_ (Address: 0x6b644c94dc)
    - function: _Z25grpc_add_connected_filterP26grpc_channel_stack_builderPv (Address: 0x6b64523ab8)
    - function: _ZNSt6__ndk118__time_get_storageIwEC2ERKNS_12basic_stringIcNS_11char_traitsIcEENS_9allocatorIcEEEE (Address: 0x6b6470ecdc)
    - function: _ZNKSt6__ndk115__codecvt_utf16IwLb1EE6do_outER9mbstate_tPKwS5_RS5_PcS7_RS7_ (Address: 0x6b64729320)
    - function: _ZN4absl12lts_2021032420raw_logging_internal17RegisterAbortHookEPFvPKciS3_S3_S3_E (Address: 0x6b64600f40)
    - function: _ZN4absl12lts_2021032423inlined_vector_internal7StorageIN9grpc_core12XdsBootstrap9XdsServerELm1ENSt6__ndk19allocatorIS5_EEE15DestroyContentsEv (Address: 0x6b64504cdc)
    - function: _ZN9grpc_core17HealthCheckClient9CallState25RecvTrailingMetadataReadyEPvP10grpc_error (Address: 0x6b64469a8c)
    - variable: _ZTVNSt6__ndk110__function6__funcIZN9grpc_core13ClientChannel17SubchannelWrapper14WatcherWrapperD1EvEUlvE_NS_9allocatorIS6_EEFvvEEE (Address: 0x6b648f2308)
    - function: _Z15grpc_parse_ipv4RKN9grpc_core3URIEP21grpc_resolved_address (Address: 0x6b64415870)
    - function: _ZN4absl12lts_202103249ConditionC2EPKb (Address: 0x6b645df918)
    - function: _ZN9grpc_core18ManagedMemorySliceC1EPKc (Address: 0x6b6443ee38)
    - function: _Z31grpc_channel_arg_pointer_createPcPvPK23grpc_arg_pointer_vtable (Address: 0x6b64418d2c)
    - function: _ZNSt10bad_typeidD2Ev (Address: 0x6b64744bd8)
    - function: _Z29grpc_wakeup_fd_global_destroyv (Address: 0x6b64537ff8)
    - function: _ZN4absl12lts_2021032423inlined_vector_internal17ConstructElementsINSt6__ndk19allocatorIN9grpc_core6XdsApi9EdsUpdate8PriorityEEEPS8_NS1_20IteratorValueAdapterIS9_SA_EEmEEvPT_T0_PT1_T2_ (Address: 0x6b644a5e80)
    - function: _ZNSt6__ndk124__put_character_sequenceIcNS_11char_traitsIcEEEERNS_13basic_ostreamIT_T0_EES7_PKS4_m (Address: 0x6b6458cacc)
    - function: _ZNKSt6__ndk17codecvtIDsc9mbstate_tE10do_unshiftERS1_PcS4_RS4_ (Address: 0x6b64727e8c)
    - variable: _ZTSN9grpc_core14DualRefCountedINS_10SubchannelEEE (Address: 0x6b64777a10)
    - function: __cxa_get_exception_ptr (Address: 0x6b647413a8)
    - variable: envoy_config_core_v3_GrpcService_GoogleGrpc_msginit (Address: 0x6b648fb9a8)
    - variable: envoy_extensions_filters_network_http_connection_manager_v3_RequestIDExtension_msginit (Address: 0x6b648fcfe0)
    - function: _ZNKSt6__ndk17codecvtIcc9mbstate_tE10do_unshiftERS1_PcS4_RS4_ (Address: 0x6b64726ccc)
    - function: _Z32grpc_resource_quota_ref_internalP19grpc_resource_quota (Address: 0x6b6452ddec)
    - function: _ZN23grpc_plugin_credentialsD0Ev (Address: 0x6b6443486c)
    - variable: envoy_type_metadata_v3_MetadataKind_Route_msginit (Address: 0x6b647a3758)
    - function: upb_symtab_new (Address: 0x6b645b7ed0)
    - function: _ZNK9grpc_core6XdsApi9LdsUpdate14FilterChainMap8ToStringEv (Address: 0x6b644e80f0)
    - variable: udpa_data_orca_v1_OrcaLoadReport_RequestCostEntry_msginit (Address: 0x6b648f90b0)
    - function: _ZN9grpc_core13ServerAddressaSEOS0_ (Address: 0x6b644088dc)
    - function: _Z49gpr_global_config_set_grpc_stacktrace_minloglevelPKc (Address: 0x6b645b20c0)
    - function: _ZN4absl12lts_2021032423inlined_vector_internal7StorageIPKNS0_13cord_internal7CordRepELm47ENSt6__ndk19allocatorIS6_EEE15EmplaceBackSlowIJRKS6_EEERS6_DpOT_ (Address: 0x6b645cb778)
    - function: grpc_tls_identity_pairs_create (Address: 0x6b64544e60)
    - function: _ZN9grpc_core6chttp217StreamFlowControlC1EPNS0_20TransportFlowControlEPK18grpc_chttp2_stream (Address: 0x6b644d14f8)
    - function: _ZNSt6__ndk18numpunctIcED0Ev (Address: 0x6b6472ab18)
    - function: _ZNSt6__ndk115basic_streambufIwNS_11char_traitsIwEEE4setpEPwS4_ (Address: 0x6b646f2b98)
    - function: _ZN3re24Prog13SearchOnePassERKNS_11StringPieceES3_NS0_6AnchorENS0_9MatchKindEPS1_i (Address: 0x6b645a2c88)
    - variable: _ZTSN9grpc_core9XdsClient12ChannelState12LrsCallStateE (Address: 0x6b64796160)
    - function: _ZN9grpc_core13ClientChannel17SubchannelWrapperC2EPS0_NS_13RefCountedPtrINS_10SubchannelEEEN4absl12lts_202103248optionalINSt6__ndk112basic_stringIcNS9_11char_traitsIcEENS9_9allocatorIcEEEEEE (Address: 0x6b643f7edc)
    - function: grpc_xds_credentials_create (Address: 0x6b6454b28c)
    - function: _ZNSt6__ndk16__treeINS_12__value_typeINS_12basic_stringIcNS_11char_traitsIcEENS_9allocatorIcEEEEN9grpc_core6XdsApi15RdsResourceDataEEENS_19__map_value_compareIS7_SB_NS_4lessIS7_EELb1EEENS5_ISB_EEE7destroyEPNS_11__tree_nodeISB_PvEE (Address: 0x6b645000a4)
    - variable: _ZTTNSt6__ndk113basic_ostreamIcNS_11char_traitsIcEEEE (Address: 0x6b64912950)
    - variable: _ZNSt6__ndk18numpunctIwE2idE (Address: 0x6b64928dd8)
    - variable: grpc_inproc_trace (Address: 0x6b64924af0)
    - variable: _ZTVNSt6__ndk114__codecvt_utf8IDsEE (Address: 0x6b64914348)
    - function: _ZN4absl12lts_2021032416strings_internal13JoinAlgorithmINSt6__ndk121__tree_const_iteratorINS0_11string_viewEPNS3_11__tree_nodeIS5_PvEElEEvEENS3_12basic_stringIcNS3_11char_traitsIcEENS3_9allocatorIcEEEET_SH_S5_NS1_11NoFormatterE (Address: 0x6b6451e19c)
    - function: _Z25alts_is_frame_reader_doneP17alts_frame_reader (Address: 0x6b6457815c)
    - function: _ZN3re26Regexp17FactorAlternationEPPS0_iNS0_10ParseFlagsE (Address: 0x6b645a5584)
    - variable: _ZTINSt6__ndk19__num_putIcEE (Address: 0x6b64914b90)
    - function: _ZN9grpc_core6XdsApi5Route10HashPolicyC2ERKS2_ (Address: 0x6b644e2f64)
    - function: grpc_tls_identity_pairs_add_pair (Address: 0x6b64544e88)
    - function: grpcsharp_request_call_context_request_metadata (Address: 0x6b643e72fc)
    - variable: envoy_config_route_v3_WeightedCluster_ClusterWeight_TypedPerFilterConfigEntry_msginit (Address: 0x6b648fc618)
    - function: _ZN4absl12lts_2021032423inlined_vector_internal7StorageINSt6__ndk110unique_ptrIN9grpc_core19ServiceConfigParser12ParsedConfigENS3_14default_deleteIS7_EEEELm4ENS3_9allocatorISA_EEE15DestroyContentsEv (Address: 0x6b6440b474)
    - function: _ZN9grpc_core13ClientChannel28CreateOrUpdateLbPolicyLockedENS_13RefCountedPtrINS_19LoadBalancingPolicy6ConfigEEENS_8Resolver6ResultE (Address: 0x6b643ed2e8)
    - function: _ZNKSt6__ndk117moneypunct_bynameIwLb1EE16do_thousands_sepEv (Address: 0x6b64713408)
    - function: _Z24grpc_parse_ipv4_hostportN4absl12lts_2021032411string_viewEP21grpc_resolved_addressb (Address: 0x6b64415568)
    - variable: envoy_config_route_v3_RateLimit_Action_DynamicMetaData_msginit (Address: 0x6b648fcb78)
    - variable: __cxa_unexpected_handler (Address: 0x6b64922b08)
    - variable: _ZTIN9grpc_core21SliceBufferByteStreamE (Address: 0x6b648f4730)
    - variable: _ZTVN9grpc_core30FileWatcherCertificateProviderE (Address: 0x6b648fa1e0)
    - function: _ZN9grpc_core9XdsClient12ChannelState12LrsCallState8Reporter6OrphanEv (Address: 0x6b64510e24)
    - function: upb_symtab_lookupfile (Address: 0x6b645b8114)
    - function: grpc_ssl_credentials_create_ex (Address: 0x6b64435c80)
    - function: _ZN9grpc_core13ClientChannel17SubchannelWrapper14WatcherWrapper18interested_partiesEv (Address: 0x6b643f4840)
    - function: _ZN9grpc_core22XdsCertificateProvider30UpdateRequireClientCertificateERKNSt6__ndk112basic_stringIcNS1_11char_traitsIcEENS1_9allocatorIcEEEEb (Address: 0x6b64507188)
    - function: _ZN9grpc_core23GetFileModificationTimeEPKcPl (Address: 0x6b645b5b2c)
    - function: _ZN9grpc_core26ExternalAccountCredentials25ImpersenateServiceAccountEv (Address: 0x6b6455dae4)
    - function: _ZNSt6__ndk113basic_ostreamIwNS_11char_traitsIwEEE5seekpENS_4fposI9mbstate_tEE (Address: 0x6b646fc5f4)
    - function: zError (Address: 0x6b645866b4)
    - function: _ZN9grpc_core38AsyncConnectivityStateWatcherInterfaceD2Ev (Address: 0x6b64455c08)
    - function: _ZN3re26Regexp10ParseState14ParsePerlFlagsEPNS_11StringPieceE (Address: 0x6b645a7abc)
    - function: upb_msg_field_iter_setdone (Address: 0x6b645b7b84)
    - function: _Z27grpc_chttp2_settings_createPjPKjjm (Address: 0x6b64556848)
    - function: _ZNSt6__ndk16__treeINS_12__value_typeINS_12basic_stringIcNS_11char_traitsIcEENS_9allocatorIcEEEENS_6vectorIN9grpc_core13StringMatcherENS5_ISA_EEEEEENS_19__map_value_compareIS7_SD_NS_4lessIS7_EELb1EEENS5_ISD_EEE4findIS7_EENS_15__tree_iteratorISD_PNS_11__tree_nodeISD_PvEElEERKT_ (Address: 0x6b645089b0)
    - function: _ZNSt6__ndk114__split_bufferIN9grpc_core12GrpcLbServerERNS_9allocatorIS2_EEE12emplace_backIJEEEvDpOT_ (Address: 0x6b64474aa4)
    - function: _ZNSt6__ndk16vectorIN4absl12lts_2021032416strings_internal18ViableSubstitutionENS_9allocatorIS4_EEE7reserveEm (Address: 0x6b645eb49c)
    - function: _Z29grpc_chttp2_hpack_parser_initP24grpc_chttp2_hpack_parser (Address: 0x6b644d52f0)
    - function: _ZN4absl12lts_2021032413cord_internal11CordRepRing6AppendEPS2_PNS1_7CordRepE (Address: 0x6b645cd4c8)
    - variable: grpc_lb_v1_ClientStatsPerToken_msginit (Address: 0x6b648f8fc0)
    - function: _ZN4absl12lts_2021032416strings_internal11BigUnsignedILi84EE9SetToZeroEv (Address: 0x6b645eed78)
    - function: _ZN9grpc_core20GetAuthPropertyArrayEP17grpc_auth_contextPKc (Address: 0x6b64563c10)
    - function: _ZNSt6__ndk112basic_stringIwNS_11char_traitsIwEENS_9allocatorIwEEE6__initEPKwm (Address: 0x6b64735fc8)
    - function: _ZNSt6__ndk110to_wstringEf (Address: 0x6b6473dcd4)
    - function: _Z49alts_iovec_record_protocol_integrity_only_protectP26alts_iovec_record_protocolPK5iovecmS1_S1_PPc (Address: 0x6b6457b7b4)
    - function: _ZN3re214CoalesceWalker9PostVisitEPNS_6RegexpES2_S2_PS2_i (Address: 0x6b645ae45c)
    - variable: _ZTIN9grpc_core7ExecCtxE (Address: 0x6b648f1d18)
    - function: _ZN9grpc_core9XdsClientD2Ev (Address: 0x6b645134a8)
    - function: _ZN4absl12lts_202103245Mutex12ReaderUnlockEv (Address: 0x6b645de420)
    - function: _Z20grpc_postfork_parentv (Address: 0x6b6452c284)
    - function: _ZNK4absl12lts_2021032416strings_internal11BigUnsignedILi4EE8ToStringEv (Address: 0x6b645ee33c)
    - function: _ZN4absl12lts_202103249SymbolizeEPKvPci (Address: 0x6b645e0224)
    - function: _ZNSt6__ndk16__treeINS_12__value_typeINS_12basic_stringIcNS_11char_traitsIcEENS_9allocatorIcEEEEN32grpc_tls_certificate_distributor15CertificateInfoEEENS_19__map_value_compareIS7_SA_NS_4lessIS7_EELb1EEENS5_ISA_EEE7destroyEPNS_11__tree_nodeISA_PvEE (Address: 0x6b6450826c)
    - variable: _ZTINSt6__ndk120__codecvt_utf8_utf16IwEE (Address: 0x6b649147b0)
    - function: _ZN9grpc_core9XdsClient18GetFromChannelArgsERK17grpc_channel_args (Address: 0x6b64518fe0)
    - variable: _ZTVN9grpc_core6Server28AllocatingRequestMatcherBaseE (Address: 0x6b648f4598)
    - function: _ZNSt6__ndk113basic_istreamIcNS_11char_traitsIcEEE7getlineEPcl (Address: 0x6b646f4d80)
    - function: _ZN9grpc_core9XdsClient12ChannelState12LrsCallState8ReporterD2Ev (Address: 0x6b645193a4)
    - variable: envoy_config_core_v3_HealthCheck_RedisHealthCheck_msginit (Address: 0x6b648fbbe8)
    - function: _ZN9grpc_core30FileExternalAccountCredentialsC2ENS_26ExternalAccountCredentials7OptionsENSt6__ndk16vectorINS3_12basic_stringIcNS3_11char_traitsIcEENS3_9allocatorIcEEEENS8_ISA_EEEEPP10grpc_error (Address: 0x6b6455f2c4)
    - function: _Z17grpc_error_do_refP10grpc_error (Address: 0x6b64429bac)
    - variable: _ZTSNSt6__ndk19__num_putIwEE (Address: 0x6b64805cc0)
    - variable: _ZN4absl12lts_2021032416strings_internal10kFiveToNthE (Address: 0x6b647dfc18)
    - function: _ZN4absl12lts_2021032414GenericCompareIbNS0_11string_viewEEET_RKNS0_4CordERKT0_m (Address: 0x6b645c78b4)
    - function: _ZN9grpc_core9XdsClient12ChannelState12AdsCallState22OnStatusReceivedLockedEP10grpc_error (Address: 0x6b64510818)
    - variable: _ZTIN9grpc_core19LoadBalancingPolicy6ConfigE (Address: 0x6b648f5410)
    - function: _ZNSt6__ndk112system_errorD1Ev (Address: 0x6b6473f150)
    - function: _ZNK4absl12lts_2021032419str_format_internal10Streamable5PrintERNSt6__ndk113basic_ostreamIcNS3_11char_traitsIcEEEE (Address: 0x6b645d3aac)
    - function: _Z36alts_tsi_utils_convert_to_tsi_result16grpc_status_code (Address: 0x6b6457a5a8)
    - function: _ZN9grpc_core9XdsClient12ChannelState13RetryableCallINS1_12LrsCallStateEEC2ENS_13RefCountedPtrIS1_EE (Address: 0x6b6450953c)
    - function: _ZN4absl12lts_2021032423inlined_vector_internal7StorageIN9grpc_core14PemKeyCertPairELm1ENSt6__ndk19allocatorIS4_EEE15EmplaceBackSlowIJRPKcSC_EEERS4_DpOT_ (Address: 0x6b64545d24)
    - function: upb_inttable_replace (Address: 0x6b645bde3c)
    - function: _ZNSt6__ndk16localeD2Ev (Address: 0x6b64723b24)
    - function: __cxa_uncaught_exception (Address: 0x6b647418dc)
    - function: _ZNSt6__ndk115basic_streambufIwNS_11char_traitsIwEEE10pubseekoffExNS_8ios_base7seekdirEj (Address: 0x6b646f27c4)
    - function: grpcsharp_request_call_context_create (Address: 0x6b643e6934)
    - function: _ZN9grpc_core8channelz10ServerNode19RenderServerSocketsEll (Address: 0x6b6441f090)
    - variable: _ZTINSt6__ndk110moneypunctIcLb0EEE (Address: 0x6b64914ef0)
    - function: upb_msg_field_iter_isequal (Address: 0x6b645b7b88)
    - function: _Z53grpc_get_well_known_google_credentials_file_path_implv (Address: 0x6b64561f08)
    - function: _ZN4absl12lts_2021032413base_internal13LowLevelAlloc5AllocEm (Address: 0x6b64771a90)
    - variable: _ZTSNSt6__ndk114codecvt_bynameIDic9mbstate_tEE (Address: 0x6b648064d0)
    - function: _ZNKSt6__ndk114error_category10equivalentEiRKNS_15error_conditionE (Address: 0x6b6473e3cc)
    - function: _ZN4absl12lts_2021032413cord_internal11CordRepRing10AppendSlowEPS2_PNS1_7CordRepE (Address: 0x6b645cd094)
    - function: _Z25grpc_socket_factory_unrefP19grpc_socket_factory (Address: 0x6b6452f844)
    - function: _ZNSt6__ndk115numpunct_bynameIwEC2EPKcm (Address: 0x6b6472b0d4)
    - variable: _ZTVSt14overflow_error (Address: 0x6b64916698)
    - function: _ZNSt6__ndk18ios_base4moveERS0_ (Address: 0x6b646f18d0)
    - function: _ZNSt6__ndk16__treeINS_12__value_typeINS_12basic_stringIcNS_11char_traitsIcEENS_9allocatorIcEEEEN9grpc_core9XdsClient12ChannelState12AdsCallState17ResourceTypeStateEEENS_19__map_value_compareIS7_SD_NS_4lessIS7_EELb1EEENS5_ISD_EEE12__find_equalIS7_EERPNS_16__tree_node_baseIPvEERPNS_15__tree_end_nodeISO_EERKT_ (Address: 0x6b6451dca0)
    - function: _ZN4absl12lts_2021032416numbers_internal19safe_strtou128_baseENS0_11string_viewEPNS0_7uint128Ei (Address: 0x6b645e9f40)
    - function: _ZNSt6__ndk16vectorIN9grpc_core4JsonENS_9allocatorIS2_EEE10deallocateEv (Address: 0x6b643f3f04)
    - variable: _ZTSN4absl12lts_2021032413time_internal4cctz10TimeZoneIfE (Address: 0x6b647e0c80)
    - function: _ZNSt6__ndk18ios_base16__call_callbacksENS0_5eventE (Address: 0x6b646f1018)
    - function: _ZN37grpc_google_refresh_token_credentialsC1E23grpc_auth_refresh_token (Address: 0x6b6453fef0)
    - function: _ZNK4absl12lts_2021032413time_internal4cctz12TimeZoneInfo7VersionEv (Address: 0x6b645fe158)
    - function: _ZN9grpc_core3URIC1ERKS0_ (Address: 0x6b644607dc)
    - function: _ZN4absl12lts_2021032413base_internal7NumCPUsEv (Address: 0x6b645f1568)
    - variable: envoy_config_core_v3_RuntimeFeatureFlag_msginit (Address: 0x6b648fb6a0)
    - function: _ZN43grpc_service_account_jwt_access_credentialsD1Ev (Address: 0x6b6453dc08)
    - function: _ZN9grpc_core14RegisteredCallC1EOS0_ (Address: 0x6b64447340)
    - function: _ZN3re26Regexp15StarPlusOrQuestENS_8RegexpOpEPS0_NS0_10ParseFlagsE (Address: 0x6b6458f240)
    - function: _ZN3re23NFAC1EPNS_4ProgE (Address: 0x6b645a0494)
    - variable: _ZNSt6__ndk110ctype_base5digitE (Address: 0x6b64804518)
    - function: upb_fielddef_selectorbase (Address: 0x6b645b75c4)
    - variable: _ZTVN9grpc_core22XdsCertificateProviderE (Address: 0x6b648f92b0)
    - variable: _ZTSN9grpc_core8channelz14SubchannelNodeE (Address: 0x6b647802a0)
    - variable: _ZTINSt6__ndk114error_categoryE (Address: 0x6b64915598)
    - function: _ZNSt6__ndk110to_wstringEj (Address: 0x6b6473d3d8)
    - function: _ZN9grpc_core6chttp217StreamFlowControl12UpdateActionENS0_17FlowControlActionE (Address: 0x6b644d1db0)
    - function: _ZN9grpc_core14MakeRefCountedINS_29AwsExternalAccountCredentialsEJNS_26ExternalAccountCredentials7OptionsENSt6__ndk16vectorINS4_12basic_stringIcNS4_11char_traitsIcEENS4_9allocatorIcEEEENS9_ISB_EEEERPP10grpc_errorEEENS_13RefCountedPtrIT_EEDpOT0_ (Address: 0x6b6455bbb8)
    - function: _ZNKSt6__ndk117moneypunct_bynameIcLb1EE14do_curr_symbolEv (Address: 0x6b64711dec)
    - function: _Z28gsec_aead_crypter_tag_lengthPK17gsec_aead_crypterPmPPc (Address: 0x6b645772f4)
    - variable: google_protobuf_MethodDescriptorProto_msginit (Address: 0x6b64902568)
    - function: _ZNSt6__ndk111timed_mutexD1Ev (Address: 0x6b64731388)
    - function: _Z27grpc_chttp2_stream_map_randP22grpc_chttp2_stream_map (Address: 0x6b644dbd78)
    - function: _ZNSt6__ndk16__treeINS_12__value_typeIPN9grpc_core10Subchannel33ConnectivityStateWatcherInterfaceENS2_13RefCountedPtrIS4_EEEENS_19__map_value_compareIS5_S8_NS_4lessIS5_EELb1EEENS_9allocatorIS8_EEE7destroyEPNS_11__tree_nodeIS8_PvEE (Address: 0x6b64410dd4)
    - function: _ZNSt6__ndk16__treeINS_12__value_typeINS_12basic_stringIcNS_11char_traitsIcEENS_9allocatorIcEEEES7_EENS_19__map_value_compareIS7_S8_NS_4lessIS7_EELb1EEENS5_IS8_EEE12__find_equalIS7_EERPNS_16__tree_node_baseIPvEERPNS_15__tree_end_nodeISJ_EERKT_ (Address: 0x6b6451dec8)
    - function: _ZN3re26Regexp6WalkerIPS0_E4CopyES2_ (Address: 0x6b645af768)
    - function: _Z37grpc_gcp_rpc_protocol_versions_encodePK28grpc_gcp_RpcProtocolVersionsP9upb_arenaP10grpc_slice (Address: 0x6b6456986c)
    - function: _ZN9grpc_core20ProxyMapperInterfaceD2Ev (Address: 0x6b6446bdb8)
    - function: _ZNSt6__ndk117__assoc_sub_state4copyEv (Address: 0x6b64740518)
    - function: _ZN3re24Prog14ComputeByteMapEv (Address: 0x6b645aa828)
    - function: _Z25grpc_iomgr_platform_flushv (Address: 0x6b6452c9fc)
    - function: _ZN9grpc_core8internal32ClientChannelServiceConfigParserD0Ev (Address: 0x6b64400cc8)
    - function: _ZN4absl12lts_2021032415ToChronoMinutesENS0_8DurationE (Address: 0x6b645e3348)
    - function: _ZN9grpc_core13PidControllerC2ERKNS0_4ArgsE (Address: 0x6b64551168)
    - function: _ZN4absl12lts_2021032416strings_internal14CordTestAccess12FlatOverheadEv (Address: 0x6b645c99ac)
    - function: _ZN9grpc_core9XdsClient12ChannelState13RetryableCallINS1_12LrsCallStateEE6OrphanEv (Address: 0x6b6451d6e0)
    - function: grpc_server_add_secure_http2_port (Address: 0x6b644148ac)
    - function: _ZNSt6__ndk119basic_ostringstreamIcNS_11char_traitsIcEENS_9allocatorIcEEED0Ev (Address: 0x6b6458bcdc)
    - function: upb_fielddef_defaultint32 (Address: 0x6b645b7614)
    - function: _ZN9grpc_core6XdsApi9RdsUpdate24FindVirtualHostForDomainERKNSt6__ndk112basic_stringIcNS2_11char_traitsIcEENS2_9allocatorIcEEEE (Address: 0x6b644e5428)
    - function: grpc_channel_reset_connect_backoff (Address: 0x6b64446924)
    - function: _ZNK3re212RegexpStatus4TextEv (Address: 0x6b645900a4)
    - function: _ZN3re26Regexp10ParseState15DoConcatenationEv (Address: 0x6b645a4f1c)
    - function: _ZN4absl12lts_202103247CondVar6WakeupEPNS0_13base_internal14PerThreadSynchE (Address: 0x6b645df55c)
    - function: _ZNSt6__ndk113basic_ostreamIwNS_11char_traitsIwEEElsEd (Address: 0x6b646fbb24)
    - variable: __emutls_t._ZN3re25hooks7contextE (Address: 0x6b647cc278)
    - function: _Z18grpc_stats_collectP15grpc_stats_data (Address: 0x6b64527224)
    - variable: _ZTIN3re26Regexp6WalkerIPS0_EE (Address: 0x6b648ffbb8)
    - function: _ZN3re214ToStringWalker9PostVisitEPNS_6RegexpEiiPii (Address: 0x6b645b0ed0)
    - function: _Z49grpc_channel_args_compression_algorithm_set_statePP17grpc_channel_args26grpc_compression_algorithmi (Address: 0x6b645255b0)
    - variable: _ZN9grpc_core29grpc_trace_client_idle_filterE (Address: 0x6b64924a10)
    - function: _Z24grpc_socket_factory_bindP19grpc_socket_factoryiPK21grpc_resolved_address (Address: 0x6b6452f7d4)
    - function: _ZN4absl12lts_202103247CondVarD2Ev (Address: 0x6b645df12c)
    - variable: envoy_config_core_v3_Http1ProtocolOptions_msginit (Address: 0x6b648fbcc0)
    - function: _ZNSt6__ndk16__treeINS_12__value_typeINS_12basic_stringIcNS_11char_traitsIcEENS_9allocatorIcEEEEN9grpc_core30FileWatcherCertificateProvider11WatcherInfoEEENS_19__map_value_compareIS7_SB_NS_4lessIS7_EELb1EEENS5_ISB_EEE4findIS7_EENS_15__tree_iteratorISB_PNS_11__tree_nodeISB_PvEElEERKT_ (Address: 0x6b6454a05c)
    - variable: _ZTISt9exception (Address: 0x6b64916400)
    - function: _ZN4absl12lts_2021032423FailedPreconditionErrorENS0_11string_viewE (Address: 0x6b645c325c)
    - function: _ZNKSt6__ndk15ctypeIwE10do_tolowerEw (Address: 0x6b6472567c)
    - function: _ZNK9grpc_core9XdsClient12ChannelState9lrs_calldEv (Address: 0x6b645093fc)
    - function: _ZN4absl12lts_2021032413time_internal4cctz12TimeZoneInfo4LoadEPNS2_14ZoneInfoSourceE (Address: 0x6b645fbc38)
    - variable: google_protobuf_wrappers_proto_upbdefinit (Address: 0x6b64921458)
    - function: _ZNSt6__ndk115basic_stringbufIcNS_11char_traitsIcEENS_9allocatorIcEEE3strERKNS_12basic_stringIcS2_S4_EE (Address: 0x6b6458be50)
    - function: _ZN3re26Regexp6WalkerIPS0_E8PreVisitES2_S2_Pb (Address: 0x6b645af730)
    - function: _ZNSt6__ndk16vectorIN4absl12lts_2021032411string_viewENS_9allocatorIS3_EEE24__emplace_back_slow_pathIJS3_EEEvDpOT_ (Address: 0x6b64575a98)
    - function: _ZNSt6__ndk110__time_putC2EPKc (Address: 0x6b6470ff34)
    - variable: _ZN4absl12lts_202103249Condition5kTrueE (Address: 0x6b647dbb70)
    - function: _ZNK9grpc_core13HeaderMatcher5MatchERKN4absl12lts_202103248optionalINS2_11string_viewEEE (Address: 0x6b64539c0c)
    - function: _ZNSt6__ndk112ctype_bynameIwEC1EPKcm (Address: 0x6b647261b0)
    - function: _Z28grpc_pollset_global_shutdownv (Address: 0x6b6452cd74)
    - function: _ZN4absl12lts_2021032410IsDataLossERKNS0_6StatusE (Address: 0x6b645c33f0)
    - variable: _ZTIPa (Address: 0x6b64915b10)
    - function: _ZNSt6__ndk16vectorIN9grpc_core4JsonENS_9allocatorIS2_EEE24__emplace_back_slow_pathIJRNS_12basic_stringIcNS_11char_traitsIcEENS3_IcEEEEEEEvDpOT_ (Address: 0x6b644a2b1c)
    - function: _ZSt10unexpectedv (Address: 0x6b64741c3c)
    - variable: _ZTSN9grpc_core18TcpServerFdHandlerE (Address: 0x6b6479ba90)
    - function: _ZN9grpc_core8channelz10ServerNode14AddChildSocketENS_13RefCountedPtrINS0_10SocketNodeEEE (Address: 0x6b6441ec88)
    - variable: grpc_url_percent_encoding_unreserved_bytes (Address: 0x6b6479eb71)
    - variable: _ZTSNSt6__ndk117__widen_from_utf8ILm16EEE (Address: 0x6b64804e80)
    - variable: _ZTSN9grpc_core10RefCountedI28grpc_tls_credentials_optionsNS_19PolymorphicRefCountELNS_13UnrefBehaviorE0EEE (Address: 0x6b6479dcf0)
    - variable: _ZTSN9grpc_core17XdsHttpFilterImplE (Address: 0x6b64796960)
    - variable: _ZTIN9grpc_core6chttp217StreamFlowControlE (Address: 0x6b648f8c40)
    - function: _ZN4absl12lts_2021032416strings_internal18ApplySubstitutionsENS0_11string_viewEPNSt6__ndk16vectorINS1_18ViableSubstitutionENS3_9allocatorIS5_EEEEPNS3_12basic_stringIcNS3_11char_traitsIcEENS6_IcEEEE (Address: 0x6b645eadf0)
    - function: _ZNSt6__ndk113unordered_mapI10grpc_slicePKN4absl12lts_2021032413InlinedVectorINS_10unique_ptrIN9grpc_core19ServiceConfigParser12ParsedConfigENS_14default_deleteIS8_EEEELm4ENS_9allocatorISB_EEEENS6_9SliceHashENS_8equal_toIS1_EENSC_INS_4pairIKS1_SG_EEEEEixERSL_ (Address: 0x6b6440af8c)
    - variable: _ZTSN9grpc_core10RefCountedINS_19LoadBalancingPolicy6ConfigENS_19PolymorphicRefCountELNS_13UnrefBehaviorE0EEE (Address: 0x6b64782120)
    - function: _ZnwmRKSt9nothrow_t (Address: 0x6b647445d4)
    - function: _Z24grpc_socket_factory_initP19grpc_socket_factoryPK26grpc_socket_factory_vtable (Address: 0x6b6452f7b8)
    - function: _ZN3re23RE23Arg21parse_longlong_cradixEPKcmPv (Address: 0x6b6458bb94)
    - function: _ZNKSt6__ndk120__codecvt_utf8_utf16IDsE11do_encodingEv (Address: 0x6b6472a830)
    - function: _ZN18grpc_chttp2_streamD1Ev (Address: 0x6b644c9940)
    - function: upb_symtab_free (Address: 0x6b645b7e94)
    - function: _ZN9grpc_core18XdsRingHashEnabledEv (Address: 0x6b644e2e74)
    - function: _ZNSt6__ndk15queueIPN9grpc_core6Server8CallDataENS_5dequeIS4_NS_9allocatorIS4_EEEEED2Ev (Address: 0x6b64453660)
    - function: _Z31grpc_chttp2_retry_initiate_pingPvP10grpc_error (Address: 0x6b644ca774)
    - variable: grpc_workaround_cronet_compression_filter (Address: 0x6b648f8568)
    - variable: _ZTINSt6__ndk111__money_putIcEE (Address: 0x6b64915108)
    - function: inflateReset (Address: 0x6b645810f4)
    - function: _ZNSt6__ndk113basic_ostreamIwNS_11char_traitsIwEEED2Ev (Address: 0x6b646fa414)
    - function: _ZN4absl12lts_2021032419str_format_internal13FormatArgImpl8DispatchIiEEbNS2_4DataENS1_24FormatConversionSpecImplEPv (Address: 0x6b645d08a8)
    - function: _Z28grpc_endpoint_add_to_pollsetP13grpc_endpointP12grpc_pollset (Address: 0x6b6452ae48)
    - function: upb_strtable_done (Address: 0x6b645bcfa0)
    - variable: _ZTSNSt6__ndk19money_getIcNS_19istreambuf_iteratorIcNS_11char_traitsIcEEEEEE (Address: 0x6b648061e0)
    - function: _ZNSt9bad_allocD2Ev (Address: 0x6b647444e0)
    - variable: _ZTSN9grpc_core10RefCountedINS_8channelz10SocketNode8SecurityENS_19PolymorphicRefCountELNS_13UnrefBehaviorE0EEE (Address: 0x6b6477bc50)
    - function: _ZNSt6__ndk16__treeINS_12__value_typeINS_12basic_stringIcNS_11char_traitsIcEENS_9allocatorIcEEEENS_6vectorIN9grpc_core13StringMatcherENS5_ISA_EEEEEENS_19__map_value_compareIS7_SD_NS_4lessIS7_EELb1EEENS5_ISD_EEE7destroyEPNS_11__tree_nodeISD_PvEE (Address: 0x6b64507564)
    - function: _ZNKSt6__ndk117moneypunct_bynameIcLb1EE13do_neg_formatEv (Address: 0x6b64711e20)
    - function: _ZN9grpc_core20XdsLocalityAttributeD0Ev (Address: 0x6b644a2dcc)
    - function: grpc_server_register_method (Address: 0x6b64451fe8)
    - function: _ZN9grpc_core13ClientChannel8CallData30FailPendingBatchInCallCombinerEPvP10grpc_error (Address: 0x6b643f090c)
    - function: _ZNK30grpc_server_security_connector29server_security_connector_cmpEPKS_ (Address: 0x6b64436878)
    - function: _ZNSt6__ndk16__treeINS_12__value_typeIiNS_12basic_stringIcNS_11char_traitsIcEENS_9allocatorIcEEEEEENS_19__map_value_compareIiS8_NS_4lessIiEELb1EEENS5_IS8_EEE7destroyEPNS_11__tree_nodeIS8_PvEE (Address: 0x6b6458c910)
    - function: _ZN9grpc_core23MessageSizeParsedConfig18GetFromCallContextEPK25grpc_call_context_element (Address: 0x6b644c28e8)
    - function: _ZNSt6__ndk16vectorIN9grpc_core6XdsApi9LdsUpdate14FilterChainMap9CidrRangeENS_9allocatorIS5_EEE7reserveEm (Address: 0x6b644fcd0c)
    - function: _ZTv0_n24_NSt6__ndk113basic_istreamIcNS_11char_traitsIcEEED1Ev (Address: 0x6b646f2eb4)
    - variable: _ZN9grpc_core29kGrpcLbClientStatsMetadataKeyE (Address: 0x6b647815d0)
    - function: _ZNSt6__ndk120__shared_ptr_emplaceIN9grpc_core14WorkSerializerENS_9allocatorIS2_EEED0Ev (Address: 0x6b643f6d40)
    - function: _ZN9grpc_core9XdsClientD0Ev (Address: 0x6b645137c0)
    - variable: _ZN4absl12lts_2021032411string_view4nposE (Address: 0x6b647de268)
    - function: _ZN4absl12lts_202103247uint128C1Ed (Address: 0x6b645f1d70)
    - variable: _ZTIN9grpc_core20InternallyRefCountedINS_19SubchannelConnectorEEE (Address: 0x6b648f8630)
    - variable: envoy_config_listener_v3_FilterChain_OnDemandConfiguration_msginit (Address: 0x6b648fc140)
    - function: _ZN17grpc_auth_context12add_propertyEPKcS1_m (Address: 0x6b644322fc)
    - function: _ZNSt6__ndk16vectorIN9grpc_core3URI10QueryParamENS_9allocatorIS3_EEEC2ERKS6_ (Address: 0x6b64460d50)
    - function: _ZNKSt6__ndk17collateIwE10do_compareEPKwS3_S3_S3_ (Address: 0x6b646fd460)
    - function: _ZNSt6__ndk16vectorIN3re26SpliceENS_9allocatorIS2_EEE24__emplace_back_slow_pathIJRPNS1_6RegexpEPS8_iEEEvDpOT_ (Address: 0x6b645a8ee4)
    - variable: validate_validate_proto_upbdefinit (Address: 0x6b649216f8)
    - variable: grpc_flowctl_trace (Address: 0x6b64924ab8)
    - function: _ZN3re26Regexp19RemoveLeadingStringEPS0_i (Address: 0x6b645a5350)
    - function: grpcsharp_batch_context_reset (Address: 0x6b643e6df4)
    - function: _Z25grpc_set_disable_ping_ackb (Address: 0x6b6455680c)
    - function: _ZN9grpc_core28VerifySubjectAlternativeNameEN4absl12lts_2021032411string_viewERKNSt6__ndk112basic_stringIcNS3_11char_traitsIcEENS3_9allocatorIcEEEE (Address: 0x6b64563694)
    - function: _ZNSt6__ndk113basic_istreamIcNS_11char_traitsIcEEErsERPv (Address: 0x6b646f45f8)
    - function: _ZNSt6__ndk113__vector_baseIN9grpc_core4JsonENS_9allocatorIS2_EEED2Ev (Address: 0x6b643fd1e4)
    - function: _ZN27grpc_ssl_server_credentialsD2Ev (Address: 0x6b64435ea0)
    - function: gpr_time_add (Address: 0x6b645b3e04)
    - function: _ZN9grpc_core8channelz14SubchannelNodeD2Ev (Address: 0x6b64466634)
    - function: _ZNK3re29Bitmap25614FindNextSetBitEi (Address: 0x6b645a9020)
    - variable: _ZTVN9grpc_core18XdsHttpFaultFilterE (Address: 0x6b648fd770)
    - function: __cxa_free_exception (Address: 0x6b64741264)
    - function: _ZN9grpc_core6Server6OrphanEv (Address: 0x6b644502a8)
    - function: _ZN9grpc_core13ClientChannel16LoadBalancedCall11LbCallState20GetBackendMetricDataEv (Address: 0x6b643f629c)
    - variable: _ZTVN9grpc_core19ConnectedSubchannelE (Address: 0x6b648f3180)
    - function: _ZNSt6__ndk115basic_streambufIwNS_11char_traitsIwEEEC2Ev (Address: 0x6b646f2974)
    - function: _ZN3re23RE23Arg11parse_floatEPKcmPv (Address: 0x6b6458b3ac)
    - function: _Z27alts_create_frame_protectorPKhmbbPmPP19tsi_frame_protector (Address: 0x6b645773b0)
    - function: _ZN9grpc_core8ExecutorC2EPKc (Address: 0x6b6452aec0)
    - function: _ZN4absl12lts_2021032418EndsWithIgnoreCaseENS0_11string_viewES1_ (Address: 0x6b645e837c)
    - variable: _ZTISt11range_error (Address: 0x6b64916680)
    - function: upb_filedef_msg (Address: 0x6b645b7e2c)
    - function: _ZN9grpc_core13ClientChannel36UpdateServiceConfigInDataPlaneLockedEv (Address: 0x6b643ed4bc)
    - function: _Z30grpc_channel_args_find_integerPK17grpc_channel_argsPKc20grpc_integer_options (Address: 0x6b644188d0)
    - function: _ZNSt6__ndk16vectorINS_12basic_stringIcNS_11char_traitsIcEENS_9allocatorIcEEEENS4_IS6_EEEC2ERKS8_ (Address: 0x6b6448f900)
    - function: _Z30grpc_mdelem_from_grpc_metadataP13grpc_metadata (Address: 0x6b64458c1c)
    - function: _ZN9grpc_core19ServiceConfigParser24ParsePerMethodParametersEPK17grpc_channel_argsRKNS_4JsonEPP10grpc_error (Address: 0x6b6440c184)
    - variable: _ZTVN9grpc_core12FakeResolverE (Address: 0x6b648f7420)
    - variable: _ZTSNSt6__ndk18messagesIwEE (Address: 0x6b648063e0)
    - function: _ZNSt6__ndk127__tree_balance_after_insertIPNS_16__tree_node_baseIPvEEEEvT_S5_ (Address: 0x6b643f4124)
    - function: _ZN4absl12lts_2021032417optional_internal23optional_data_dtor_baseINSt6__ndk112basic_stringIcNS3_11char_traitsIcEENS3_9allocatorIcEEEELb0EED2Ev (Address: 0x6b643eb148)
    - function: upb_oneofdef_containingtype (Address: 0x6b645b7c9c)
    - variable: _ZTINSt6__ndk17num_getIcNS_19istreambuf_iteratorIcNS_11char_traitsIcEEEEEE (Address: 0x6b64914ad0)
    - function: _ZN9grpc_core13RefCountedPtrINS_29FakeResolverResponseGeneratorEED2Ev (Address: 0x6b6446d6ac)
    - function: _ZN9grpc_core13ClientChannel16LoadBalancedCallD0Ev (Address: 0x6b643f17a0)
    - function: _ZNK4absl12lts_202103246Status14ForEachPayloadERKNSt6__ndk18functionIFvNS0_11string_viewERKNS0_4CordEEEE (Address: 0x6b645c25cc)
    - function: _Z35grpc_call_get_initial_size_estimatev (Address: 0x6b64440838)
    - function: _ZNKSt6__ndk17collateIcE7do_hashEPKcS3_ (Address: 0x6b646fd3c8)
    - function: _ZN3re23DFA9SearchTFTEPNS0_12SearchParamsE (Address: 0x6b6459ca34)
    - function: _ZNKSt6__ndk18time_getIwNS_19istreambuf_iteratorIwNS_11char_traitsIwEEEEE10__get_yearERiRS4_S4_RjRKNS_5ctypeIwEE (Address: 0x6b6470c748)
    - function: _ZN4absl12lts_2021032413AbslParseFlagENS0_11string_viewEPNS0_8DurationEPNSt6__ndk112basic_stringIcNS4_11char_traitsIcEENS4_9allocatorIcEEEE (Address: 0x6b645e4098)
    - function: _ZNSt6__ndk16__treeINS_12__value_typeINS_12basic_stringIcNS_11char_traitsIcEENS_9allocatorIcEEEEN9grpc_core17XdsHttpFilterImpl12FilterConfigEEENS_19__map_value_compareIS7_SB_NS_4lessIS7_EELb1EEENS5_ISB_EEE12__find_equalIS7_EERPNS_16__tree_node_baseIPvEERPNS_15__tree_end_nodeISM_EERKT_ (Address: 0x6b644b91a8)
    - function: _ZN3re23DFA10StateSaver7RestoreEv (Address: 0x6b6459c078)
    - variable: envoy_admin_v3_ConfigDump_msginit (Address: 0x6b648fa9f0)
    - variable: _ZTVSt13runtime_error (Address: 0x6b649164e8)
    - function: grpcsharp_completion_queue_create_async (Address: 0x6b643e7314)
    - function: _ZN3re23DFA21RunWorkqOnEmptyStringEPNS0_5WorkqES2_j (Address: 0x6b6459b658)
    - variable: _ZTIN9grpc_core10RefCountedI28grpc_tls_credentials_optionsNS_19PolymorphicRefCountELNS_13UnrefBehaviorE0EEE (Address: 0x6b648fa410)
    - variable: envoy_config_route_v3_DirectResponseAction_msginit (Address: 0x6b648fca08)
    - function: _ZN9grpc_core24Chttp2IncomingByteStream12OrphanLockedEPvP10grpc_error (Address: 0x6b644cc9fc)
    - variable: _ZTVN9grpc_core10Subchannel16HealthWatcherMap13HealthWatcherE (Address: 0x6b648f3278)
    - function: _ZNKSt6__ndk110__function6__funcIZN9grpc_core38AsyncConnectivityStateWatcherInterface8NotifierC1ENS2_13RefCountedPtrIS3_EE23grpc_connectivity_stateRKN4absl12lts_202103246StatusERKNS_10shared_ptrINS2_14WorkSerializerEEEEUlvE_NS_9allocatorISI_EEFvvEE6targetERKSt9type_info (Address: 0x6b644574a4)
    - function: _ZNSt6__ndk115numpunct_bynameIwED2Ev (Address: 0x6b6472ab60)
    - function: _ZNSt6__ndk113basic_ostreamIwNS_11char_traitsIwEEED0Ev (Address: 0x6b646fa434)
    - function: _ZN3re24Prog4Inst13InitByteRangeEiiij (Address: 0x6b645a90dc)
    - function: _ZNSt6__ndk110__time_getD1Ev (Address: 0x6b6472c60c)
    - function: _ZN9grpc_core15ByteStreamCache17CachingByteStream4PullEP10grpc_slice (Address: 0x6b6445653c)
    - function: _ZNSt8bad_castC2Ev (Address: 0x6b64744b7c)
    - function: _ZNSt6__ndk113basic_istreamIwNS_11char_traitsIwEEE4swapERS3_ (Address: 0x6b646f5f3c)
    - function: _Z28grpc_create_chttp2_transportPK17grpc_channel_argsP13grpc_endpointbP18grpc_resource_user (Address: 0x6b644cd2ec)
    - function: _ZN4absl12lts_2021032417optional_internal18optional_data_baseINSt6__ndk112basic_stringIcNS3_11char_traitsIcEENS3_9allocatorIcEEEEE6assignIRS9_EEvOT_ (Address: 0x6b64548d2c)
    - variable: _ZTSN9grpc_core8ResolverE (Address: 0x6b64774fb0)
    - function: _ZNSt6__ndk118__time_get_storageIwEC2EPKc (Address: 0x6b6470e96c)
    - variable: envoy_config_core_v3_HeaderValue_msginit (Address: 0x6b648fb6b8)
    - function: _ZNKSt6__ndk114__codecvt_utf8IwE5do_inER9mbstate_tPKcS5_RS5_PwS7_RS7_ (Address: 0x6b647289ac)
    - function: _ZNSt6__ndk110__function6__funcIN4absl12lts_2021032419functional_internal11FrontBinderIMN9grpc_core22XdsCertificateProviderEFvNS_12basic_stringIcNS_11char_traitsIcEENS_9allocatorIcEEEEbbEJPS7_EEENSB_ISH_EEFvSD_bbEEclEOSD_ObSM_ (Address: 0x6b645084e4)
    - function: _ZNSt6__ndk115basic_streambufIwNS_11char_traitsIwEEE5gbumpEi (Address: 0x6b646f2b54)
    - function: gpr_time_max (Address: 0x6b645b3a98)
    - function: _Z42alts_grpc_record_protocol_get_header_iovecP25alts_grpc_record_protocol (Address: 0x6b6457b3a0)
    - function: _ZNSt6__ndk16__treeINS_12__value_typeINS_12basic_stringIcNS_11char_traitsIcEENS_9allocatorIcEEEEN9grpc_core23XdsClusterLocalityStats13BackendMetricEEENS_19__map_value_compareIS7_SB_NS_4lessIS7_EELb1EEENS5_ISB_EEE12__find_equalIS7_EERPNS_16__tree_node_baseIPvEERPNS_15__tree_end_nodeISM_EERKT_ (Address: 0x6b6451c758)
    - function: _tr_stored_block (Address: 0x6b645849fc)
    - variable: google_protobuf_timestamp_proto_upbdefinit (Address: 0x6b64922090)
    - function: _ZN4absl12lts_2021032419ReleasableMutexLock7ReleaseEv (Address: 0x6b645df84c)
    - function: _ZNKSt6__ndk110moneypunctIwLb1EE16do_decimal_pointEv (Address: 0x6b64711180)
    - variable: _ZTSNSt6__ndk15ctypeIcEE (Address: 0x6b64805180)
    - function: _ZN9grpc_core20UnmanagedMemorySliceC2EPKc (Address: 0x6b6443bd80)
    - function: _ZN9grpc_core17HealthCheckClient9CallState16OnCancelCompleteEPvP10grpc_error (Address: 0x6b64469c64)
    - function: _ZN9grpc_core6XdsApi5Route10HashPolicyC1ERKS2_ (Address: 0x6b644e2f64)
    - function: _Z37grpc_resource_quota_from_channel_argsPK17grpc_channel_argsb (Address: 0x6b6452e130)
    - variable: envoy_admin_v3_SecretsConfigDump_msginit (Address: 0x6b648fac88)
    - function: _ZN4absl12lts_2021032423inlined_vector_internal7StorageIcLm196ENSt6__ndk19allocatorIcEEE15EmplaceBackSlowIJcEEERcDpOT_ (Address: 0x6b64480f90)
    - function: _ZNSt6__ndk111this_thread9sleep_forERKNS_6chrono8durationIxNS_5ratioILl1ELl1000000000EEEEE (Address: 0x6b6473f2f0)
    - function: _ZNSt6__ndk115basic_streambufIcNS_11char_traitsIcEEE9showmanycEv (Address: 0x6b6458c1c4)
    - function: _ZNSt11logic_errorC2EPKc (Address: 0x6b64731b74)
    - function: _ZN9grpc_core19LoadBalancingPolicy22TransientFailurePickerD2Ev (Address: 0x6b643faeb8)
    - variable: _ZN9grpc_core4Fork16support_enabled_E (Address: 0x6b64925211)
    - function: _ZSt13set_terminatePFvvE (Address: 0x6b64744d30)
    - function: _ZNK9grpc_core14ConfigSelector14MakeChannelArgEv (Address: 0x6b643f965c)
    - function: _ZN9grpc_core38AsyncConnectivityStateWatcherInterfaceD0Ev (Address: 0x6b6445727c)
    - function: _ZN9grpc_core29AwsExternalAccountCredentialsD0Ev (Address: 0x6b64572894)
    - variable: _ZTVN10__cxxabiv117__pbase_type_infoE (Address: 0x6b649162b8)
    - variable: _ZN4absl12lts_2021032413cord_internal24cord_ring_buffer_enabledE (Address: 0x6b64925260)
    - variable: grpc_lame_filter (Address: 0x6b648f4378)
    - function: _ZNK4absl12lts_2021032416strings_internal11BigUnsignedILi84EE8ToStringEv (Address: 0x6b645ef5bc)
    - function: _ZN9grpc_core13ClientChannel21ResolverResultHandlerD0Ev (Address: 0x6b643f9170)
    - function: _ZNSt6__ndk13mapINS_12basic_stringIcNS_11char_traitsIcEENS_9allocatorIcEEEEN9grpc_core23XdsClusterLocalityStats13BackendMetricENS_4lessIS6_EENS4_INS_4pairIKS6_S9_EEEEED2Ev (Address: 0x6b64522100)
    - variable: _ZTIN9grpc_core10RefCountedI29grpc_tls_certificate_providerNS_19PolymorphicRefCountELNS_13UnrefBehaviorE0EEE (Address: 0x6b648f9110)
    - function: _Z41grpc_default_authority_add_if_not_presentPK17grpc_channel_args (Address: 0x6b644c3bc4)
    - function: grpcsharp_batch_context_recv_close_on_server_cancelled (Address: 0x6b643e7304)
    - function: _ZN4absl12lts_2021032423inlined_vector_internal7StorageIN9grpc_core13ServerAddressELm1ENSt6__ndk19allocatorIS4_EEE11EmplaceBackIJR21grpc_resolved_addressDnEEERS4_DpOT_ (Address: 0x6b644b01cc)
    - function: _Z24alts_create_frame_readerv (Address: 0x6b64578154)
    - variable: _ZN9grpc_core30grpc_xds_client_refcount_traceE (Address: 0x6b64924bc8)
    - variable: _ZTIN9grpc_core15ResolverFactoryE (Address: 0x6b648f7408)
    - variable: envoy_config_core_v3_HealthCheck_CustomHealthCheck_msginit (Address: 0x6b648fbc20)
    - variable: _ZN9grpc_core30grpc_trace_subchannel_refcountE (Address: 0x6b6491f038)
    - function: _ZNSt6__ndk110__time_putC2ERKNS_12basic_stringIcNS_11char_traitsIcEENS_9allocatorIcEEEE (Address: 0x6b64710170)
    - function: _ZNSt6__ndk16__treeINS_12__value_typeINS_12basic_stringIcNS_11char_traitsIcEENS_9allocatorIcEEEEN9grpc_core6XdsApi15CdsResourceDataEEENS_19__map_value_compareIS7_SB_NS_4lessIS7_EELb1EEENS5_ISB_EEE12__find_equalIS7_EERPNS_16__tree_node_baseIPvEERPNS_15__tree_end_nodeISM_EERKT_ (Address: 0x6b644ff994)
    - function: _ZN9grpc_core11ContextList7ExecuteEPvPNS_10TimestampsEP10grpc_error (Address: 0x6b644d0958)
    - function: _ZN9grpc_core9XdsClient21RemoveChannelzLinkageEPNS_8channelz11ChannelNodeE (Address: 0x6b64513858)
    - function: _ZN4absl12lts_2021032413base_internal8SpinLock10SlowUnlockEj (Address: 0x6b645f145c)
    - function: _ZN9grpc_core18TcpServerFdHandlerD2Ev (Address: 0x6b64535104)
    - function: _ZN3re216CharClassBuilder8AddRangeEii (Address: 0x6b64590c10)
    - function: _ZN9grpc_core6Server28SetRegisteredMethodAllocatorEP21grpc_completion_queuePvNSt6__ndk18functionIFNS0_24RegisteredCallAllocationEvEEE (Address: 0x6b6444f014)
    - variable: _ZTSN9grpc_core10RefCountedINS_8internal23ServerRetryThrottleDataENS_19PolymorphicRefCountELNS_13UnrefBehaviorE0EEE (Address: 0x6b64777060)
    - function: _Z28grpc_iomgr_platform_shutdownv (Address: 0x6b6452ca0c)
    - function: _ZNSt6__ndk16localeC2ERKS0_S2_i (Address: 0x6b64723fe0)
    - function: _ZNKSt6__ndk110moneypunctIwLb1EE13do_neg_formatEv (Address: 0x6b6471120c)
    - function: _ZN9grpc_core13ServerAddressaSERKS0_ (Address: 0x6b64408608)
    - variable: _ZTVSt15underflow_error (Address: 0x6b649166d8)
    - function: _ZN9grpc_core6Server11ChannelDataD1Ev (Address: 0x6b644507d8)
    - variable: google_protobuf_ServiceDescriptorProto_msginit (Address: 0x6b64902548)
    - function: _ZN4absl12lts_2021032413base_internal13LowLevelAlloc5ArenaC2Ej (Address: 0x6b645e03c8)
    - function: _ZN9grpc_core7ExecCtxD0Ev (Address: 0x6b643e91cc)
    - function: _ZNK4absl12lts_2021032419str_format_internal5Flags8ToStringEv (Address: 0x6b645d43fc)
    - function: grpc_secure_channel_create (Address: 0x6b64413a74)
    - function: _Z28grpc_iomgr_run_in_backgroundv (Address: 0x6b6452caac)
    - function: _ZN9grpc_core19ServiceConfigParser6ParserD2Ev (Address: 0x6b64400cc4)
    - function: _ZNKSt6__ndk18time_getIwNS_19istreambuf_iteratorIwNS_11char_traitsIwEEEEE9__get_dayERiRS4_S4_RjRKNS_5ctypeIwEE (Address: 0x6b6470cd90)
    - variable: _ZTSPb (Address: 0x6b64807128)
    - function: _ZN20TlsServerCredentialsD0Ev (Address: 0x6b64563354)
    - function: _ZN4absl12lts_2021032423inlined_vector_internal7StorageIN9grpc_core6XdsApi9EdsUpdate8PriorityELm2ENSt6__ndk19allocatorIS6_EEE6AssignINS1_20IteratorValueAdapterIS9_NS7_13move_iteratorIPS6_EEEEEEvT_m (Address: 0x6b644a571c)
    - variable: _ZTSPKa (Address: 0x6b6480715c)
    - function: _ZN9grpc_core33FaultInjectionServiceConfigParser11ParserIndexEv (Address: 0x6b644be19c)
    - function: _ZNSt6__ndk113basic_istreamIcNS_11char_traitsIcEEErsERt (Address: 0x6b646f3908)
    - function: _Z40grpc_chttp2_hptbl_set_current_table_sizeP17grpc_chttp2_hptblj (Address: 0x6b644d8b38)
    - variable: _ZTSw (Address: 0x6b64807130)
    - function: _Z26alts_crypter_create_commonP17gsec_aead_crypterbmPPc (Address: 0x6b6457ccf4)
    - function: _ZNSt6__ndk16__treeINS_12__value_typeIPN9grpc_core15XdsLocalityNameEmEENS_19__map_value_compareIS4_S5_NS3_4LessELb1EEENS_9allocatorIS5_EEE7destroyEPNS_11__tree_nodeIS5_PvEE (Address: 0x6b644a6ccc)
    - function: _ZN9grpc_core14DynamicFiltersD1Ev (Address: 0x6b643f9d9c)
    - function: _ZN9grpc_core9XdsClient12ChannelState13RetryableCallINS1_12LrsCallStateEE18StartNewCallLockedEv (Address: 0x6b6451d508)
    - function: _ZN3re26Regexp6ConcatEPPS0_iNS0_10ParseFlagsE (Address: 0x6b6458f724)
    - function: _ZN32grpc_tls_certificate_distributor20WatchTlsCertificatesENSt6__ndk110unique_ptrINS_31TlsCertificatesWatcherInterfaceENS0_14default_deleteIS2_EEEEN4absl12lts_202103248optionalINS0_12basic_stringIcNS0_11char_traitsIcEENS0_9allocatorIcEEEEEESF_ (Address: 0x6b64543610)
    - variable: _ZTS20grpc_ssl_credentials (Address: 0x6b6477ae20)
    - function: _ZN9grpc_core13ClientChannel27ExternalConnectivityWatcher6CancelEv (Address: 0x6b643ea3f4)
    - function: _ZN9grpc_core13StringMatcherC2ENSt6__ndk110unique_ptrIN3re23RE2ENS1_14default_deleteIS4_EEEE (Address: 0x6b6453841c)
    - function: _ZN4absl12lts_202103244Cord6AppendEOS1_ (Address: 0x6b645c4948)
    - variable: _ZN9grpc_core18kDefaultSecurePortE (Address: 0x6b6491fd78)
    - function: _ZNSt6__ndk113basic_ostreamIwNS_11char_traitsIwEEEC2EPNS_15basic_streambufIwS2_EE (Address: 0x6b646fa30c)
    - function: _ZN9grpc_core13ClientChannel17SubchannelWrapper28CancelConnectivityStateWatchEPNS_19SubchannelInterface33ConnectivityStateWatcherInterfaceE (Address: 0x6b643f8a18)
    - function: _ZNKSt9bad_alloc4whatEv (Address: 0x6b6474451c)
    - function: upb_oneof_begin (Address: 0x6b645b7da8)
    - variable: _ZTINSt6__ndk112ctype_bynameIcEE (Address: 0x6b64914970)
    - function: _ZN4absl12lts_2021032423inlined_vector_internal17ConstructElementsINSt6__ndk19allocatorINS0_15status_internal7PayloadEEEPS6_NS1_20IteratorValueAdapterIS7_PKS6_EEmEEvPT_T0_PT1_T2_ (Address: 0x6b645c39f4)
    - function: _ZN3re24Prog4Inst4DumpEv (Address: 0x6b645a916c)
    - function: __cxa_begin_catch (Address: 0x6b647413b0)
    - variable: _ZTIN4absl12lts_2021032413time_internal4cctz12TimeZoneInfoE (Address: 0x6b64902ac0)
    - variable: _ZTINSt6__ndk114codecvt_bynameIwc9mbstate_tEE (Address: 0x6b649152a0)
    - function: _ZNKSt6__ndk112basic_stringIcNS_11char_traitsIcEENS_9allocatorIcEEE17find_first_not_ofEPKcmm (Address: 0x6b647354e0)
    - function: _Z25grpc_http_request_destroyP17grpc_http_request (Address: 0x6b64529838)
    - function: _upb_msg_new (Address: 0x6b645bc1cc)
    - function: _ZThn16_NSt6__ndk114basic_iostreamIcNS_11char_traitsIcEEED1Ev (Address: 0x6b646fc9c0)
    - function: _ZNSt6__ndk118condition_variableD2Ev (Address: 0x6b6473f9bc)
    - function: _ZN4absl12lts_2021032414Base64UnescapeENS0_11string_viewEPNSt6__ndk112basic_stringIcNS2_11char_traitsIcEENS2_9allocatorIcEEEE (Address: 0x6b645e76d0)
    - function: _ZN9grpc_core17AllocatedMetadataC1ERKNS_18ManagedMemorySliceERKNS_20UnmanagedMemorySliceE (Address: 0x6b64457c5c)
    - function: _ZNSt6__ndk117__widen_from_utf8ILm32EED2Ev (Address: 0x6b646fd24c)
    - variable: _ZTSN9grpc_core10RefCountedINS_14DynamicFiltersENS_19PolymorphicRefCountELNS_13UnrefBehaviorE0EEE (Address: 0x6b647746b0)
    - function: _ZNKSt6__ndk115__codecvt_utf16IDiLb1EE10do_unshiftER9mbstate_tPcS4_RS4_ (Address: 0x6b64729ed0)
    - function: _ZN3tsi18SslSessionLRUCacheC2Em (Address: 0x6b64552d58)
    - function: _ZN3re26Regexp22RequiredPrefixForAccelEPNSt6__ndk112basic_stringIcNS1_11char_traitsIcEENS1_9allocatorIcEEEEPb (Address: 0x6b64590b34)
    - function: _ZN4absl12lts_2021032419str_format_internal13FormatArgImpl8DispatchImEEbNS2_4DataENS1_24FormatConversionSpecImplEPv (Address: 0x6b645d0fdc)
    - variable: grpc_static_accept_encoding_metadata (Address: 0x6b6477ea5e)
    - variable: google_protobuf_FileDescriptorProto_msginit (Address: 0x6b649023d0)
    - function: _ZN9grpc_core22XdsCertificateProviderD1Ev (Address: 0x6b645069a8)
    - function: _ZN3re23RE23Arg15parse_ulonglongEPKcmPv (Address: 0x6b6458bb9c)
    - function: _ZN9grpc_core10Subchannel26AsyncWatcherNotifierLockedC2ENS_13RefCountedPtrINS0_33ConnectivityStateWatcherInterfaceEEEPS0_23grpc_connectivity_stateRKN4absl12lts_202103246StatusE (Address: 0x6b6440d490)
    - function: _ZN9grpc_core6XdsApi16CreateLrsRequestENSt6__ndk13mapINS1_4pairINS1_12basic_stringIcNS1_11char_traitsIcEENS1_9allocatorIcEEEES9_EENS0_17ClusterLoadReportENS1_4lessISA_EENS7_INS3_IKSA_SB_EEEEEE (Address: 0x6b644f37ec)
    - function: _ZN4absl12lts_2021032419str_format_internal13FormatArgImpl8DispatchIfEEbNS2_4DataENS1_24FormatConversionSpecImplEPv (Address: 0x6b645d1e38)
    - function: _ZN9grpc_core17HealthCheckClient15SetHealthStatusE23grpc_connectivity_statePKc (Address: 0x6b64468800)
    - function: _ZNSt6__ndk115recursive_mutexC2Ev (Address: 0x6b64731234)
    - function: _ZNKSt6__ndk112basic_stringIcNS_11char_traitsIcEENS_9allocatorIcEEE13find_first_ofEPKcmm (Address: 0x6b64734f84)
    - variable: _ZTIN9grpc_core10Subchannel31ConnectedSubchannelStateWatcherE (Address: 0x6b648f3300)
    - function: _ZNSt6__ndk16__treeINS_12__value_typeINS_4pairINS_12basic_stringIcNS_11char_traitsIcEENS_9allocatorIcEEEES8_EEN9grpc_core6XdsApi17ClusterLoadReportEEENS_19__map_value_compareIS9_SD_NS_4lessIS9_EELb1EEENS6_ISD_EEE7destroyEPNS_11__tree_nodeISD_PvEE (Address: 0x6b6451bb14)
    - function: _ZNKSt6__ndk110moneypunctIcLb1EE14do_frac_digitsEv (Address: 0x6b64710f20)
    - function: _Z19grpc_call_is_clientP9grpc_call (Address: 0x6b64442e80)
    - function: _ZN9grpc_core13RefCountedPtrINS_8channelz10ServerNodeEED2Ev (Address: 0x6b6444e004)
    - variable: _ZN4absl12lts_2021032413cord_internal11CordRepRing12kMaxCapacityE (Address: 0x6b647dac00)
    - function: _ZN9grpc_core26MakeHierarchicalAddressMapERKN4absl12lts_2021032413InlinedVectorINS_13ServerAddressELm1ENSt6__ndk19allocatorIS3_EEEE (Address: 0x6b64553680)
    - function: _ZN3re27runelenEi (Address: 0x6b64594408)
    - variable: _ZTSN9grpc_core30FileWatcherCertificateProviderE (Address: 0x6b6479d870)
    - variable: grpc_api_trace (Address: 0x6b64923cb0)
    - function: _ZN4absl12lts_202103248AlphaNumC1ENS0_3HexE (Address: 0x6b645ea2e4)
    - variable: envoy_config_core_v3_KeepaliveSettings_msginit (Address: 0x6b648fbd08)
    - function: _ZN31grpc_composite_call_credentialsC1EN9grpc_core13RefCountedPtrI21grpc_call_credentialsEES3_ (Address: 0x6b64432eec)
    - variable: _ZTVN9grpc_core8internal32ClientChannelServiceConfigParserE (Address: 0x6b648f2d50)
    - function: _Z28grpc_metadata_batch_add_tailP19grpc_metadata_batchP18grpc_linked_mdelem11grpc_mdelem (Address: 0x6b644597cc)
    - function: _ZNSt6__ndk112system_errorC2EiRKNS_14error_categoryERKNS_12basic_stringIcNS_11char_traitsIcEENS_9allocatorIcEEEE (Address: 0x6b6473ed28)
    - function: _ZNSt6__ndk114__num_put_base14__format_floatEPcPKcj (Address: 0x6b64706f1c)
    - function: _Z19grpc_cq_global_initv (Address: 0x6b64449018)
    - function: _ZNSt6__ndk117__assoc_sub_state16__on_zero_sharedEv (Address: 0x6b6473fe44)
    - function: _ZN3re26Regexp17AlternateNoFactorEPPS0_iNS0_10ParseFlagsE (Address: 0x6b6458f76c)
    - function: _ZNKSt6__ndk120__time_get_c_storageIcE3__rEv (Address: 0x6b6472c2d0)
    - function: _ZNSt6__ndk16__treeINS_12__value_typeINS_12basic_stringIcNS_11char_traitsIcEENS_9allocatorIcEEEEN9grpc_core17XdsHttpFilterImpl12FilterConfigEEENS_19__map_value_compareIS7_SB_NS_4lessIS7_EELb1EEENS5_ISB_EEE7destroyEPNS_11__tree_nodeISB_PvEE (Address: 0x6b644b1fe8)
    - function: _ZNSt6__ndk16__treeINS_12__value_typeINS_12basic_stringIcNS_11char_traitsIcEENS_9allocatorIcEEEEmEENS_19__map_value_compareIS7_S8_NS_4lessIS7_EELb1EEENS5_IS8_EEE7destroyEPNS_11__tree_nodeIS8_PvEE (Address: 0x6b6451c594)
    - function: _ZN4absl12lts_2021032416strings_internal9JoinRangeIPKNS0_11string_viewEEENSt6__ndk112basic_stringIcNS6_11char_traitsIcEENS6_9allocatorIcEEEET_SD_S3_ (Address: 0x6b6445a5d0)
    - function: _ZNSt6__ndk113basic_ostreamIcNS_11char_traitsIcEEElsEPFRNS_8ios_baseES5_E (Address: 0x6b646f8f80)
    - function: _ZN9grpc_core32FaultInjectionMethodParsedConfigD2Ev (Address: 0x6b644beb48)
    - function: _ZNSt6__ndk16vectorIN9grpc_core4JsonENS_9allocatorIS2_EEE24__emplace_back_slow_pathIJEEEvDpOT_ (Address: 0x6b6442f5f8)
    - function: _ZN3re26Regexp5ParseERKNS_11StringPieceENS0_10ParseFlagsEPNS_12RegexpStatusE (Address: 0x6b645a808c)
    - variable: _ZTSNSt6__ndk120__codecvt_utf8_utf16IDsEE (Address: 0x6b648050f0)
    - variable: _ZTVNSt6__ndk115time_put_bynameIcNS_19ostreambuf_iteratorIcNS_11char_traitsIcEEEEEE (Address: 0x6b649132b8)
    - function: _ZN4absl12lts_2021032416strings_internal20Base64EscapeInternalINSt6__ndk112basic_stringIcNS3_11char_traitsIcEENS3_9allocatorIcEEEEEEvPKhmPT_bPKc (Address: 0x6b645e7dbc)
    - function: _Z21grpc_chttp2_end_writeP21grpc_chttp2_transportP10grpc_error (Address: 0x6b644dd03c)
    - function: _ZN3re28Compiler9AddSuffixEi (Address: 0x6b6459668c)
    - function: _ZNSt6__ndk16__treeINS_12__value_typeINS_12basic_stringIcNS_11char_traitsIcEENS_9allocatorIcEEEEN9grpc_core6XdsApi9LdsUpdate14FilterChainMap8SourceIpEEENS_19__map_value_compareIS7_SD_NS_4lessIS7_EELb1EEENS5_ISD_EEE25__emplace_unique_key_argsIS7_JS7_SC_EEENS_4pairINS_15__tree_iteratorISD_PNS_11__tree_nodeISD_PvEElEEbEERKT_DpOT0_ (Address: 0x6b644fede8)
    - variable: envoy_config_core_v3_RuntimeUInt32_msginit (Address: 0x6b648fb648)
    - variable: _ZNSt6__ndk17num_putIwNS_19ostreambuf_iteratorIwNS_11char_traitsIwEEEEE2idE (Address: 0x6b64928c28)
    - function: _ZN4absl12lts_2021032423inlined_vector_internal7StorageINS0_8SubRangeELm47ENSt6__ndk19allocatorIS3_EEE15EmplaceBackSlowIJS3_EEERS3_DpOT_ (Address: 0x6b645ca7e0)
    - variable: udpa_annotations_FieldSecurityAnnotation_msginit (Address: 0x6b648fe5b8)
    - function: _ZN3re215PrefixSuccessorEPNSt6__ndk112basic_stringIcNS0_11char_traitsIcEENS0_9allocatorIcEEEE (Address: 0x6b64594864)
    - function: _ZN9grpc_core14WorkSerializer18WorkSerializerImplD0Ev (Address: 0x6b6442ddb0)
    - variable: envoy_annotations_deprecation_proto_upbdefinit (Address: 0x6b649219a0)
    - function: _ZN4absl12lts_202103244Cord10AppendImplIRKS1_EEvOT_ (Address: 0x6b645c5dd0)
    - function: _ZNSt6__ndk112basic_stringIwNS_11char_traitsIwEENS_9allocatorIwEEE7replaceEmmPKw (Address: 0x6b6473824c)
    - function: _ZN9grpc_core13ServerAddressC2EPKvmP17grpc_channel_argsNSt6__ndk13mapIPKcNS5_10unique_ptrINS0_18AttributeInterfaceENS5_14default_deleteISA_EEEENS5_4lessIS8_EENS5_9allocatorINS5_4pairIKS8_SD_EEEEEE (Address: 0x6b64408354)
    - variable: _ZTIPKh (Address: 0x6b64915ae0)
    - function: _ZNKSt6__ndk18time_putIcNS_19ostreambuf_iteratorIcNS_11char_traitsIcEEEEE6do_putES4_RNS_8ios_baseEcPK2tmcc (Address: 0x6b6470fd60)
    - variable: envoy_type_matcher_v3_metadata_proto_upbdefinit (Address: 0x6b64921ff0)
    - function: _ZN9grpc_core12FakeResolverD1Ev (Address: 0x6b644aa000)
    - variable: _ZNSt6__ndk114numeric_limitsIN4absl12lts_202103246int128EE14max_exponent10E (Address: 0x6b647e06f0)
    - function: _ZN9grpc_core19ServiceConfigParser8ShutdownEv (Address: 0x6b6440be3c)
    - function: _ZNSt6__ndk16__treeINS_12__value_typeINS_12basic_stringIcNS_11char_traitsIcEENS_9allocatorIcEEEEN9grpc_core6XdsApi15RdsResourceDataEEENS_19__map_value_compareIS7_SB_NS_4lessIS7_EELb1EEENS5_ISB_EEE4findIS7_EENS_15__tree_iteratorISB_PNS_11__tree_nodeISB_PvEElEERKT_ (Address: 0x6b644ff65c)
    - variable: _ZTV37grpc_google_refresh_token_credentials (Address: 0x6b648f9fe8)
    - variable: _ZTSN9grpc_core19LocalSubchannelPoolE (Address: 0x6b64774f80)
    - function: _ZN9grpc_core29AwsExternalAccountCredentials24OnRetrieveRegionInternalEP10grpc_error (Address: 0x6b645717ec)
    - function: _ZNKSt6__ndk18messagesIwE7do_openERKNS_12basic_stringIcNS_11char_traitsIcEENS_9allocatorIcEEEERKNS_6localeE (Address: 0x6b64719774)
    - function: _ZN4absl12lts_202103244Cord9InlineRep11AppendArrayEPKcm (Address: 0x6b645c5a40)
    - function: _ZN9grpc_core17MessageSizeParser11ParserIndexEv (Address: 0x6b644c2930)
    - function: _ZN3re26Regexp6WalkerIPS0_E12WalkInternalES2_S2_b (Address: 0x6b645afa44)
    - function: _ZN9grpc_core8internal22ServerRetryThrottleMap4InitEv (Address: 0x6b6440800c)
    - function: _Z23grpc_sockaddr_to_stringPK21grpc_resolved_addressb (Address: 0x6b64416448)
    - function: _Z22grpc_timer_heap_removeP15grpc_timer_heapP10grpc_timer (Address: 0x6b64536fc8)
    - function: _ZNSt6__ndk113basic_ostreamIwNS_11char_traitsIwEEElsEt (Address: 0x6b646fac04)
    - function: _ZN4absl12lts_2021032416strings_internal10ParseFloatILi16EEENS1_11ParsedFloatEPKcS5_NS0_12chars_formatE (Address: 0x6b645eff18)
    - function: _ZN4absl12lts_202103245Mutex4LockEv (Address: 0x6b645dc430)
    - variable: _ZTVN9grpc_core8ResolverE (Address: 0x6b648f2cc8)
    - variable: _ZTSSt8bad_cast (Address: 0x6b648074f4)
    - function: _ZNSt6__ndk116__narrow_to_utf8ILm32EED1Ev (Address: 0x6b646fd24c)
    - variable: envoy_config_accesslog_v3_AccessLogFilter_msginit (Address: 0x6b648fe0b0)
    - function: _ZNSt6__ndk115basic_streambufIcNS_11char_traitsIcEEEaSERKS3_ (Address: 0x6b646f25c8)
    - function: _ZN9grpc_core6chttp228TransportFlowControlDisabledD0Ev (Address: 0x6b644d22b8)
    - function: _Z28grpc_create_dualstack_socketPK21grpc_resolved_addressiiP19grpc_dualstack_modePi (Address: 0x6b6442d28c)
    - variable: _ZTINSt6__ndk16locale5facetE (Address: 0x6b64913dd0)
    - function: _ZNSt6__ndk15ctypeIwED1Ev (Address: 0x6b646fd24c)
    - function: upb_msg_field_next (Address: 0x6b645b7b78)
    - function: _ZN9grpc_core8channelz14SubchannelNodeC1ENSt6__ndk112basic_stringIcNS2_11char_traitsIcEENS2_9allocatorIcEEEEm (Address: 0x6b64466434)
    - function: _ZN3re214ByteMapBuilder4MarkEii (Address: 0x6b645aa0ec)
    - function: grpc_slice_buffer_move_first (Address: 0x6b6443dd28)
    - function: upb_fielddef_containingtype (Address: 0x6b645b75d4)
    - variable: _ZTIN3re219NamedCapturesWalkerE (Address: 0x6b648ff290)
    - function: _ZN3re28Compiler5MatchEi (Address: 0x6b64595f38)
    - function: _ZN9grpc_core26TlsServerSecurityConnector29UpdateHandshakerFactoryLockedEv (Address: 0x6b645678ec)
    - function: _ZNSt6__ndk112__hash_tableINS_17__hash_value_typeIjPN9grpc_core21TcpZerocopySendRecordEEENS_22__unordered_map_hasherIjS5_NS_4hashIjEELb1EEENS_21__unordered_map_equalIjS5_NS_8equal_toIjEELb1EEENS_9allocatorIS5_EEE8__rehashEm (Address: 0x6b64532e1c)
    - variable: _ZTSPKe (Address: 0x6b64807208)
    - function: _ZNSt6__ndk113basic_istreamIcNS_11char_traitsIcEEE6sentryC2ERS3_b (Address: 0x6b646f3194)
    - function: _ZNSt6__ndk113basic_istreamIcNS_11char_traitsIcEEErsERx (Address: 0x6b646f3fa4)
    - variable: _ZTSSt12domain_error (Address: 0x6b648073d0)
    - function: _ZNKSt6__ndk110moneypunctIcLb0EE14do_frac_digitsEv (Address: 0x6b64710de0)
    - variable: envoy_config_route_v3_ScopedRouteConfiguration_Key_msginit (Address: 0x6b648fe340)
    - function: grpc_ssl_session_cache_destroy (Address: 0x6b6443919c)
    - function: _ZNSt6__ndk114collate_bynameIwEC2ERKNS_12basic_stringIcNS_11char_traitsIcEENS_9allocatorIcEEEEm (Address: 0x6b64724ffc)
    - function: _ZNSt6__ndk16__treeINS_12basic_stringIcNS_11char_traitsIcEENS_9allocatorIcEEEENS_4lessIS6_EENS4_IS6_EEE4findIS6_EENS_15__tree_iteratorIS6_PNS_11__tree_nodeIS6_PvEElEERKT_ (Address: 0x6b6449040c)
    - function: _ZN4absl12lts_2021032414GenericCompareIbNS0_4CordEEET_RKS2_RKT0_m (Address: 0x6b645c7a3c)
    - function: _ZN9grpc_core8Executor8ShutdownEv (Address: 0x6b6452b8c4)
    - function: _ZNKSt6__ndk15ctypeIwE10do_toupperEw (Address: 0x6b647254ec)
    - variable: _ZTINSt6__ndk114__num_get_baseE (Address: 0x6b64914a88)
    - function: _ZN9grpc_core4Fork14GlobalShutdownEv (Address: 0x6b645b4938)
    - variable: _ZTSNSt6__ndk19money_putIwNS_19ostreambuf_iteratorIwNS_11char_traitsIwEEEEEE (Address: 0x6b64806330)
    - function: _ZN37grpc_oauth2_token_fetcher_credentialsD2Ev (Address: 0x6b64541384)
    - function: _ZNKSt6__ndk18numpunctIwE11do_groupingEv (Address: 0x6b6472ac14)
    - function: _ZN9grpc_core13ClientChannel26ClientChannelControlHelper11UpdateStateE23grpc_connectivity_stateRKN4absl12lts_202103246StatusENSt6__ndk110unique_ptrINS_19LoadBalancingPolicy16SubchannelPickerENS8_14default_deleteISB_EEEE (Address: 0x6b643f7774)
    - function: _Z49grpc_call_test_only_get_incoming_stream_encodingsP9grpc_call (Address: 0x6b6444209c)
    - function: grpc_tls_credentials_options_set_root_cert_name (Address: 0x6b64562620)
    - variable: envoy_config_core_v3_Pipe_msginit (Address: 0x6b648fb480)
    - function: _ZN9grpc_core8channelz16ChannelzRegistry4InitEv (Address: 0x6b64425080)
    - function: _ZN4absl12lts_2021032423inlined_vector_internal7StorageIN9grpc_core6XdsApi9EdsUpdate8PriorityELm2ENSt6__ndk19allocatorIS6_EEE15DestroyContentsEv (Address: 0x6b6449cc8c)
    - function: _ZN29grpc_access_token_credentialsD1Ev (Address: 0x6b64540ed4)
    - function: _ZN9grpc_core6Server19MaybeFinishShutdownEv (Address: 0x6b6444f79c)
    - function: _ZNSt6__ndk113random_deviceC2ERKNS_12basic_stringIcNS_11char_traitsIcEENS_9allocatorIcEEEE (Address: 0x6b6473194c)
    - variable: _ZTIN4absl12lts_2021032419functional_internal11FrontBinderIMN9grpc_core22XdsCertificateProviderEFvNSt6__ndk112basic_stringIcNS5_11char_traitsIcEENS5_9allocatorIcEEEEbbEJPS4_EEE (Address: 0x6b648f94a8)
    - function: _ZNSt6__ndk17codecvtIwc9mbstate_tED0Ev (Address: 0x6b64726db8)
    - function: _ZN9grpc_core18ChildPolicyHandler6HelperD0Ev (Address: 0x6b643fbecc)
    - variable: _ZNSt6__ndk114numeric_limitsIN4absl12lts_202103246int128EE15has_denorm_lossE (Address: 0x6b647e06c8)
    - function: gpr_cv_broadcast (Address: 0x6b645b3878)
    - function: _ZN9grpc_core14WorkSerializer18WorkSerializerImplD2Ev (Address: 0x6b6442dd20)
    - variable: _ZNSt6__ndk18messagesIwE2idE (Address: 0x6b64928d08)
    - variable: _ZTVNSt6__ndk115__codecvt_utf16IDsLb1EEE (Address: 0x6b649145c8)
    - function: _ZN9grpc_core19LoadBalancingPolicy10UpdateArgsaSEOS1_ (Address: 0x6b643fac10)
    - function: _ZN4absl12lts_2021032413base_internal19ThrowStdDomainErrorEPKc (Address: 0x6b645f07d0)
    - variable: _ZN9grpc_core26FaultInjectionFilterVtableE (Address: 0x6b648f8188)
    - variable: _ZTISt11logic_error (Address: 0x6b64916540)
    - function: grpc_slice_default_hash_impl (Address: 0x6b6443ebb0)
    - function: _ZNKSt6__ndk19money_putIcNS_19ostreambuf_iteratorIcNS_11char_traitsIcEEEEE6do_putES4_bRNS_8ios_baseEcRKNS_12basic_stringIcS3_NS_9allocatorIcEEEE (Address: 0x6b6471807c)
    - function: _ZN9grpc_core10Subchannel16HealthWatcherMap13HealthWatcherD2Ev (Address: 0x6b644112a8)
    - function: _ZN9grpc_core26LoadBalancingPolicyFactoryD2Ev (Address: 0x6b6446c360)
    - variable: grpc_lb_v1_LoadBalanceRequest_msginit (Address: 0x6b648f8f90)
    - function: _Z14grpc_log_errorPKcP10grpc_errorS0_i (Address: 0x6b6442b308)
    - function: _ZN3re26Regexp10ParseState10PushRegexpEPS0_ (Address: 0x6b645a3ee8)
    - function: _Z24grpc_metadata_batch_sizeP19grpc_metadata_batch (Address: 0x6b6445a040)
    - function: _ZNSt6__ndk113basic_ostreamIwNS_11char_traitsIwEEElsEx (Address: 0x6b646fb584)
    - variable: _ZTSo (Address: 0x6b648071cc)
    - function: _Z17grpc_pollset_sizev (Address: 0x6b6452cdec)
    - function: _ZN4absl12lts_2021032410CordForest5BuildEPNS0_13cord_internal7CordRepE (Address: 0x6b645c9b7c)
    - function: _ZNKSt6__ndk110__function6__funcIZN9grpc_core13ClientChannel17SubchannelWrapper14WatcherWrapperD1EvEUlvE_NS_9allocatorIS6_EEFvvEE6targetERKSt9type_info (Address: 0x6b643f4aec)
    - function: _ZN9grpc_core7ExecCtx3RunERKNS_13DebugLocationEP12grpc_closureP10grpc_error (Address: 0x6b6442bfc4)
    - function: _ZNK4absl12lts_2021032413time_internal4cctz12TimeZoneInfo9TimeLocalERKNS2_6detail10civil_timeINS4_10second_tagEEEl (Address: 0x6b645fca50)
    - function: _ZN4absl12lts_2021032416numbers_internal18safe_strtou64_baseENS0_11string_viewEPmi (Address: 0x6b645e9d2c)
    - function: _ZN3re214ByteMapBuilder5MergeEv (Address: 0x6b645aa174)
    - variable: _ZTIN9grpc_core10RefCountedINS_8channelz10SocketNode8SecurityENS_19PolymorphicRefCountELNS_13UnrefBehaviorE0EEE (Address: 0x6b648f4030)
    - function: grpc_insecure_channel_create (Address: 0x6b64413500)
    - function: _ZNK4absl12lts_2021032413time_internal4cctz12TimeZoneLibC8MakeTimeERKNS2_6detail10civil_timeINS4_10second_tagEEE (Address: 0x6b645ffbfc)
    - function: _ZN9grpc_core22ParseBackendMetricDataERK10grpc_slicePNS_5ArenaE (Address: 0x6b64465954)
    - function: _ZN9grpc_core14RegisteredCallC2EOS0_ (Address: 0x6b64447340)
    - function: _ZN9grpc_core9XdsClient12ChannelState12LrsCallState20OnInitialRequestSentEPvP10grpc_error (Address: 0x6b645121e0)
    - function: _ZN4absl12lts_2021032415status_internal14MapToLocalCodeEi (Address: 0x6b645c1dc0)
    - function: _Z33grpc_base64_estimate_encoded_sizemi (Address: 0x6b6454ff6c)
    - function: _ZN9grpc_core13ClientChannel17SubchannelWrapper22WatchConnectivityStateE23grpc_connectivity_stateNSt6__ndk110unique_ptrINS_19SubchannelInterface33ConnectivityStateWatcherInterfaceENS3_14default_deleteIS6_EEEE (Address: 0x6b643f87e8)
    - variable: _ZNSt6__ndk110moneypunctIwLb1EE2idE (Address: 0x6b64928ca8)
    - function: _ZNK3re211StringPiece6substrEmm (Address: 0x6b64593e64)
    - function: _ZNK9grpc_core6XdsApi9LdsUpdate15FilterChainData8ToStringEv (Address: 0x6b644e710c)
    - function: _ZN9grpc_core19LoadBalancingPolicy10UpdateArgsC1ERKS1_ (Address: 0x6b643fa94c)
    - variable: _ZTV29grpc_md_only_test_credentials (Address: 0x6b648f9d50)
    - function: _ZN3re23RE23Arg16parse_uint_octalEPKcmPv (Address: 0x6b6458ba4c)
    - function: _ZNSt13exception_ptrD1Ev (Address: 0x6b646f035c)
    - function: _ZNSt6__ndk113basic_ostreamIcNS_11char_traitsIcEEE6sentryC1ERS3_ (Address: 0x6b646f8e58)
    - function: _Z30grpc_channel_args_copy_and_addPK17grpc_channel_argsPK8grpc_argm (Address: 0x6b64417ed0)
    - function: _ZNKSt6__ndk114__codecvt_utf8IwE6do_outER9mbstate_tPKwS5_RS5_PcS7_RS7_ (Address: 0x6b64728918)
    - function: _ZN4absl12lts_2021032419str_format_internal13FormatArgImpl8DispatchINSt6__ndk112basic_stringIcNS4_11char_traitsIcEENS4_9allocatorIcEEEEEEbNS2_4DataENS1_24FormatConversionSpecImplEPv (Address: 0x6b645d23a0)
    - function: _ZN9grpc_core13ServerAddressC2EOS0_ (Address: 0x6b6440886c)
    - variable: _ZTVN9grpc_core18ChildPolicyHandler6HelperE (Address: 0x6b648f2c08)
    - function: _ZNSt6__ndk113basic_ostreamIwNS_11char_traitsIwEEEC1EPNS_15basic_streambufIwS2_EE (Address: 0x6b646fa390)
    - function: inflateEnd (Address: 0x6b64583140)
    - variable: _ZTIN9grpc_core6Server18RealRequestMatcherE (Address: 0x6b648f44f0)
    - function: _ZN31grpc_composite_call_credentials12debug_stringEv (Address: 0x6b64432b70)
    - function: _ZN9grpc_core13ClientChannel27ExternalConnectivityWatcherD1Ev (Address: 0x6b643ea16c)
    - variable: udpa_annotations_StatusAnnotation_msginit (Address: 0x6b648fe5d0)
    - function: grpc_slice_unref (Address: 0x6b6443b8b4)
    - function: _ZN4absl12lts_2021032423inlined_vector_internal7StorageIN9grpc_core23CallCombinerClosureList19CallCombinerClosureELm6ENSt6__ndk19allocatorIS5_EEE15EmplaceBackSlowIJRP12grpc_closureRP10grpc_errorRPKcEEERS5_DpOT_ (Address: 0x6b643f5a4c)
    - variable: _ZTIPKl (Address: 0x6b64915cc0)
    - function: _Z31grpc_chttp2_goaway_parser_parsePvP21grpc_chttp2_transportP18grpc_chttp2_streamRK10grpc_slicei (Address: 0x6b644d300c)
    - function: _ZNSt6__ndk120__shared_ptr_emplaceIN9grpc_core6XdsApi9LdsUpdate15FilterChainDataENS_9allocatorIS4_EEE16__on_zero_sharedEv (Address: 0x6b644fd2f4)
    - variable: _ZTINSt6__ndk110money_baseE (Address: 0x6b64914ed8)
    - function: _ZNK9grpc_core6XdsApi9LdsUpdate14FilterChainMap8SourceIpeqERKS3_ (Address: 0x6b64519c40)
    - function: _ZN3re26Regexp10ParseState12DoRightParenEv (Address: 0x6b645a4f8c)
    - function: _Z27tsi_frame_protector_protectP19tsi_frame_protectorPKhPmPhS3_ (Address: 0x6b6446512c)
    - function: _ZNK9grpc_core13ClientChannel16LoadBalancedCall8Metadata5beginEv (Address: 0x6b643f6184)
    - function: _ZN9grpc_core6Server21RequestRegisteredCallEPNS0_16RegisteredMethodEPP9grpc_callP12gpr_timespecP19grpc_metadata_arrayPP16grpc_byte_bufferP21grpc_completion_queueSE_Pv (Address: 0x6b644506c0)
    - variable: envoy_admin_v3_ScopedRoutesConfigDump_msginit (Address: 0x6b648fac08)
    - variable: _ZTINSt6__ndk117__assoc_sub_stateE (Address: 0x6b64915790)
    - variable: _ZNSt6__ndk110ctype_base5punctE (Address: 0x6b64804520)
    - function: _ZN9grpc_core6chttp225StreamFlowControlDisabled12UpdateActionENS0_17FlowControlActionE (Address: 0x6b644d08ac)
    - function: _ZNSt6__ndk112ctype_bynameIwEC2EPKcm (Address: 0x6b647261b0)
    - function: _ZN9grpc_core9XdsClient12ChannelState12LrsCallState6OrphanEv (Address: 0x6b64512568)
    - variable: _ZNSt6__ndk110moneypunctIwLb1EE4intlE (Address: 0x6b648055db)
    - function: _ZNSt8bad_castC1Ev (Address: 0x6b64744b7c)
    - variable: _ZTSSt16invalid_argument (Address: 0x6b64807400)
    - function: _ZN4absl12lts_202103244Cord15FlattenSlowPathEv (Address: 0x6b645c90f8)
    - function: _ZNSt16invalid_argumentD0Ev (Address: 0x6b6474494c)
    - variable: _ZTIN4absl12lts_2021032413time_internal4cctz12TimeZoneLibCE (Address: 0x6b64902c70)
    - function: _ZNSt6__ndk113basic_istreamIcNS_11char_traitsIcEEErsERl (Address: 0x6b646f3d1c)
    - function: _ZN28grpc_client_security_contextD1Ev (Address: 0x6b64431c0c)
    - variable: _ZTIN10__cxxabiv117__array_type_infoE (Address: 0x6b649160e0)
    - function: _ZNSt6__ndk113basic_istreamIwNS_11char_traitsIwEEE6ignoreElj (Address: 0x6b646f7f7c)
    - variable: _ZTVN9grpc_core21SliceBufferByteStreamE (Address: 0x6b648f46b0)
    - function: _Z30grpc_tcp_client_create_from_fdP7grpc_fdPK17grpc_channel_argsPKc (Address: 0x6b6452fb88)
    - variable: _ZTIN10__cxxabiv116__enum_type_infoE (Address: 0x6b64916170)
    - function: _Z28grpc_status_code_from_stringPKcP16grpc_status_code (Address: 0x6b64429050)
    - function: _ZN9grpc_core27TlsChannelSecurityConnector15check_call_hostEN4absl12lts_2021032411string_viewEP17grpc_auth_contextP12grpc_closurePP10grpc_error (Address: 0x6b6456641c)
    - function: _ZN3re214SimplifyWalker10ShortVisitEPNS_6RegexpES2_ (Address: 0x6b645aedb8)
    - function: _ZN3re28Compiler4CopyENS_4FragE (Address: 0x6b64597454)
    - function: _ZNSt6__ndk117__widen_from_utf8ILm16EED2Ev (Address: 0x6b646fd24c)
    - variable: grpc_stats_per_cpu_storage (Address: 0x6b64924c30)
    - function: _ZN9grpc_core13ClientChannel16LoadBalancedCall17PendingBatchesAddEP30grpc_transport_stream_op_batch (Address: 0x6b643f1838)
    - variable: grpc_global_wakeup_fd (Address: 0x6b64924ec0)
    - function: _ZNSt8bad_castD2Ev (Address: 0x6b64744b90)
    - variable: _ZNSt6__ndk110moneypunctIwLb0EE2idE (Address: 0x6b64928c98)
    - function: _ZN9grpc_core13RefCountedPtrI23grpc_security_connectorED2Ev (Address: 0x6b6443a464)
    - function: _ZNKSt6__ndk117moneypunct_bynameIcLb0EE16do_thousands_sepEv (Address: 0x6b647117d0)
    - function: _ZN9grpc_core30FileWatcherCertificateProviderD1Ev (Address: 0x6b64547578)
    - variable: envoy_extensions_filters_common_fault_v3_FaultRateLimit_FixedLimit_msginit (Address: 0x6b648febe0)
    - function: _ZN4absl12lts_202103246Status15UnrefNonInlinedEm (Address: 0x6b645c2880)
    - variable: _ZTSSt20bad_array_new_length (Address: 0x6b648073b0)
    - variable: grpc_trace_http2_stream_state (Address: 0x6b64924ad8)
    - function: _ZN9grpc_core20DelegatingSubchannelD0Ev (Address: 0x6b6446ff7c)
    - function: _Z36grpc_lb_policy_xds_cluster_impl_initv (Address: 0x6b644905e8)
    - variable: _ZN3re215unicode_tolowerE (Address: 0x6b647ceb54)
    - function: _ZN9grpc_core12FakeResolver25RequestReresolutionLockedEv (Address: 0x6b644aa2f8)
    - function: _ZN9grpc_core14SubchannelCall27StartTransportStreamOpBatchEP30grpc_transport_stream_op_batch (Address: 0x6b6440cd84)
    - function: _ZN9grpc_core38AsyncConnectivityStateWatcherInterface8Notifier16SendNotificationEPvP10grpc_error (Address: 0x6b64457280)
    - function: _ZN4absl12lts_2021032413base_internal10AtomicHookIPFvPKciS4_S4_S4_EE13DummyFunctionES4_iS4_S4_S4_ (Address: 0x6b64601070)
    - function: _ZN9grpc_core29GrpcLbLoadReportRequestCreateEllllPKN4absl12lts_2021032413InlinedVectorINS_17GrpcLbClientStats14DropTokenCountELm10ENSt6__ndk19allocatorIS4_EEEEP9upb_arena (Address: 0x6b644741cc)
    - function: grpc_resource_quota_set_max_threads (Address: 0x6b6452de2c)
    - variable: _ZTSN9grpc_core8channelz16ListenSocketNodeE (Address: 0x6b64778d70)
    - function: _ZNKSt11logic_error4whatEv (Address: 0x6b64744830)
    - function: _Z33grpc_resource_user_post_reclaimerP18grpc_resource_userbP12grpc_closure (Address: 0x6b6452f140)
    - function: _ZN9grpc_core15ByteStreamCache17CachingByteStream5ResetEv (Address: 0x6b6445676c)
    - variable: _ZN3re212posix_groupsE (Address: 0x6b648ff5b8)
    - function: _Z29grpc_metadata_batch_link_tailP19grpc_metadata_batchP18grpc_linked_mdelem (Address: 0x6b6445987c)
    - function: _ZN9grpc_core8channelz10SocketNode8Security10RenderJsonEv (Address: 0x6b64420f70)
    - function: _ZNSt6__ndk16__treeINS_12__value_typeINS_4pairINS_12basic_stringIcNS_11char_traitsIcEENS_9allocatorIcEEEES8_EEN9grpc_core9XdsClient15LoadReportStateEEENS_19__map_value_compareIS9_SD_NS_4lessIS9_EELb1EEENS6_ISD_EEE7destroyEPNS_11__tree_nodeISD_PvEE (Address: 0x6b6451bc04)
    - variable: grpc_gcp_HandshakerResult_msginit (Address: 0x6b648fed40)
    - function: _ZNSt6__ndk121__murmur2_or_cityhashImLm64EE18__hash_len_0_to_16EPKcm (Address: 0x6b645f8a58)
    - function: _ZNSt6__ndk114__split_bufferIN9grpc_core6XdsApi9RdsUpdate11VirtualHostERNS_9allocatorIS4_EEED2Ev (Address: 0x6b644fad54)
    - function: _ZNSt6__ndk115basic_stringbufIcNS_11char_traitsIcEENS_9allocatorIcEEE9underflowEv (Address: 0x6b6458c27c)
    - function: _Z29grpc_chttp2_rst_stream_createjjP28grpc_transport_one_way_stats (Address: 0x6b644d342c)
    - variable: _ZTIN9grpc_core20ClientChannelFactoryE (Address: 0x6b648f3408)
    - function: _ZNKSt6__ndk18time_getIwNS_19istreambuf_iteratorIwNS_11char_traitsIwEEEEE11do_get_yearES4_S4_RNS_8ios_baseERjP2tm (Address: 0x6b6470c624)
    - function: _ZNK4absl12lts_2021032413time_internal4cctz12TimeZoneLibC14PrevTransitionERKNSt6__ndk16chrono10time_pointINS5_12system_clockENS5_8durationIlNS4_5ratioILl1ELl1EEEEEEEPNS2_9time_zone16civil_transitionE (Address: 0x6b646002f4)
    - function: _ZN9grpc_core23XdsChannelCredsRegistry11IsSupportedERKNSt6__ndk112basic_stringIcNS1_11char_traitsIcEENS1_9allocatorIcEEEE (Address: 0x6b64500b24)
    - function: _ZN3re26Regexp5EqualEPS0_S1_ (Address: 0x6b6458fb98)
    - variable: _ZTIPKd (Address: 0x6b64915f40)
    - function: _ZNSt6__ndk16__treeINS_12__value_typeINS_12basic_stringIcNS_11char_traitsIcEENS_9allocatorIcEEEEN9grpc_core9XdsClient13ListenerStateEEENS_19__map_value_compareIS7_SB_NS_4lessIS7_EELb1EEENS5_ISB_EEE4findIS7_EENS_15__tree_iteratorISB_PNS_11__tree_nodeISB_PvEElEERKT_ (Address: 0x6b6451fdac)
    - function: _ZN4absl12lts_2021032416strings_internal11BigUnsignedILi84EE10MultiplyByEiPKj (Address: 0x6b645ef260)
    - function: _ZNSt6__ndk120__codecvt_utf8_utf16IDsED0Ev (Address: 0x6b6472f7dc)
    - variable: _ZTIg (Address: 0x6b64915fb0)
    - function: _ZN9grpc_core17HealthCheckClientD0Ev (Address: 0x6b644687dc)
    - variable: envoy_config_core_v3_Metadata_msginit (Address: 0x6b648fb610)
    - function: _ZN9grpc_core6XdsApi9EdsUpdate10DropConfigD0Ev (Address: 0x6b644954b0)
    - variable: _ZTI28grpc_tls_credentials_options (Address: 0x6b648fa430)
    - function: _ZN4absl12lts_2021032413base_internal10AtomicHookIPFvPKcPKvEE13DummyFunctionES4_S6_ (Address: 0x6b645df948)
    - function: upb_mapiter_value (Address: 0x6b645c1478)
    - variable: grpc_gcp_Identity_msginit (Address: 0x6b648fec18)
    - function: _ZN9grpc_core20DelegatingSubchannelD2Ev (Address: 0x6b6446ff38)
    - function: _ZN9grpc_core13InternedSliceC2EPNS_21InternedSliceRefcountE (Address: 0x6b6443eb98)
    - function: _ZN4absl12lts_2021032413cord_internal11CordRepRing16GetPrependBufferEm (Address: 0x6b645cc9e4)
    - variable: _ZNSt6__ndk18ios_base3outE (Address: 0x6b64803b68)
    - variable: envoy_admin_v3_EndpointsConfigDump_DynamicEndpointConfig_msginit (Address: 0x6b648fad60)
    - function: _ZNSt6__ndk112basic_stringIcNS_11char_traitsIcEENS_9allocatorIcEEE9push_backEc (Address: 0x6b6442f204)
    - function: _ZNSt6__ndk16vectorIN4absl12lts_2021032413time_internal4cctz10TransitionENS_9allocatorIS5_EEE13shrink_to_fitEv (Address: 0x6b645fa82c)
    - function: _ZN9grpc_core10Subchannel22CheckConnectivityStateERKN4absl12lts_202103248optionalINSt6__ndk112basic_stringIcNS4_11char_traitsIcEENS4_9allocatorIcEEEEEEPNS_13RefCountedPtrINS_19ConnectedSubchannelEEE (Address: 0x6b6440f698)
    - function: _ZdaPv (Address: 0x6b64744644)
    - variable: _ZTIPKy (Address: 0x6b64915db0)
    - variable: _ZTVNSt6__ndk116__narrow_to_utf8ILm32EEE (Address: 0x6b64914108)
    - function: _ZNSt6__ndk115basic_streambufIwNS_11char_traitsIwEEE7seekposENS_4fposI9mbstate_tEEj (Address: 0x6b646f2bb8)
    - function: _Z25gsec_aead_crypter_decryptP17gsec_aead_crypterPKhmS2_mS2_mPhmPmPPc (Address: 0x6b64576fe8)
    - function: upb_fielddef_msgsubdef (Address: 0x6b645b7678)
    - function: _ZN4absl12lts_2021032416strings_internal14CordTestAccess13MaxFlatLengthEv (Address: 0x6b645c99b4)
    - function: _ZN9grpc_core13ClientChannel21ResolverResultHandler11ReturnErrorEP10grpc_error (Address: 0x6b643f9270)
    - variable: _ZNSt6__ndk17collateIcE2idE (Address: 0x6b64928bd8)
    - function: _Z53tsi_create_ssl_server_handshaker_factory_with_optionsPK33tsi_ssl_server_handshaker_optionsPP33tsi_ssl_server_handshaker_factory (Address: 0x6b644634d0)
    - function: _ZN4absl12lts_2021032423inlined_vector_internal7StorageIN9grpc_core6XdsApi9EdsUpdate8PriorityELm2ENSt6__ndk19allocatorIS6_EEE8InitFromERKSA_ (Address: 0x6b6451b880)
    - function: _ZN9grpc_core17HealthCheckClient21StartRetryTimerLockedEv (Address: 0x6b64469288)
    - function: _ZN9grpc_core6chttp228TransportFlowControlDisabled8RecvDataEl (Address: 0x6b644d22e8)
    - function: _ZNSt6__ndk13mapINS_12basic_stringIcNS_11char_traitsIcEENS_9allocatorIcEEEENS_6vectorIN9grpc_core13StringMatcherENS4_IS9_EEEENS_4lessIS6_EENS4_INS_4pairIKS6_SB_EEEEED2Ev (Address: 0x6b64506998)
    - function: _ZN9grpc_core13ClientChannel26ClientChannelControlHelper13AddTraceEventENS_19LoadBalancingPolicy20ChannelControlHelper13TraceSeverityEN4absl12lts_2021032411string_viewE (Address: 0x6b643f79c4)
    - function: _ZNSt8bad_castD0Ev (Address: 0x6b64744b94)
    - function: _ZNK9grpc_core6XdsApi16CommonTlsContext27CertificateProviderInstance8ToStringEv (Address: 0x6b644e5bc4)
    - function: _Z23alts_reset_frame_writerP17alts_frame_writerPKhm (Address: 0x6b64577f80)
    - variable: grpc_poll_function (Address: 0x6b64921830)
    - function: _ZN9grpc_core21SliceBufferByteStreamD1Ev (Address: 0x6b64456260)
    - function: _ZNSt6__ndk16futureIvEC2EPNS_17__assoc_sub_stateE (Address: 0x6b64740844)
    - function: _ZN4absl12lts_2021032416strings_internal11BigUnsignedILi4EE17ReadFloatMantissaERKNS1_11ParsedFloatEi (Address: 0x6b645eda60)
    - function: _ZN9grpc_core8internal23ServerRetryThrottleData13RecordSuccessEv (Address: 0x6b64407fe8)
    - variable: _ZTVSt11range_error (Address: 0x6b64916638)
    - function: _ZN9grpc_core6XdsApi9EdsUpdate10DropConfig11AddCategoryENSt6__ndk112basic_stringIcNS3_11char_traitsIcEENS3_9allocatorIcEEEEj (Address: 0x6b64495588)
    - function: _ZNK4absl12lts_2021032417BadStatusOrAccess6statusEv (Address: 0x6b645b19dc)
    - function: _ZN3re28Compiler3AltENS_4FragES1_ (Address: 0x6b64595b20)
    - function: _ZN3re26Regexp10ParseStateD1Ev (Address: 0x6b645a3e18)
    - function: _ZN9grpc_core14SubchannelCall24SetAfterCallStackDestroyEP12grpc_closure (Address: 0x6b6440cee4)
    - function: _Z36grpc_gcp_rpc_protocol_versions_checkPK29_grpc_gcp_RpcProtocolVersionsS1_P37_grpc_gcp_RpcProtocolVersions_Version (Address: 0x6b64569bc8)
    - function: _ZN9grpc_core18HandshakerRegistry8ShutdownEv (Address: 0x6b64524b28)
    - function: _ZNSt6__ndk110__time_putD2Ev (Address: 0x6b6470fc80)
    - variable: envoy_config_core_v3_DataSource_msginit (Address: 0x6b648fb730)
    - function: _Z25grpc_sockaddr_is_v4mappedPK21grpc_resolved_addressPS_ (Address: 0x6b64415fec)
    - function: _ZNKSt6__ndk112basic_stringIwNS_11char_traitsIwEENS_9allocatorIwEEE16find_last_not_ofEPKwmm (Address: 0x6b64739a08)
    - function: _ZN37grpc_oauth2_token_fetcher_credentialsD1Ev (Address: 0x6b64541384)
    - function: _Z32grpc_channel_create_with_builderP26grpc_channel_stack_builder23grpc_channel_stack_typePP10grpc_error (Address: 0x6b64445dc0)
    - function: _ZNSt6__ndk17codecvtIDic9mbstate_tED1Ev (Address: 0x6b646fd24c)
    - variable: _ZTVN3re214ToStringWalkerE (Address: 0x6b648ffc10)
    - function: _ZN9grpc_core6chttp228TransportFlowControlDisabledC2EP21grpc_chttp2_transport (Address: 0x6b644d1050)
    - function: _ZN3re23DFA19AnalyzeSearchHelperEPNS0_12SearchParamsEPNS0_9StartInfoEj (Address: 0x6b6459ccd4)
    - function: _ZN9grpc_core19LoadBalancingPolicy10UpdateArgsD2Ev (Address: 0x6b643ee3e0)
    - function: _ZN9grpc_core6Server11ChannelData18InitChannelElementEP20grpc_channel_elementP25grpc_channel_element_args (Address: 0x6b6444dd20)
    - variable: _ZTSN9grpc_core13ClientChannel27ExternalConnectivityWatcherE (Address: 0x6b647733c0)
    - function: _ZN9grpc_core4Fork30GetResetChildPollingEngineFuncEv (Address: 0x6b645b4ae0)
    - variable: google_protobuf_Empty_msginit (Address: 0x6b647d6ca0)
    - function: _Z35grpc_chttp2_list_add_writing_streamP21grpc_chttp2_transportP18grpc_chttp2_stream (Address: 0x6b644db434)
    - variable: _ZTIN9grpc_core13ClientChannel16LoadBalancedCall8MetadataE (Address: 0x6b648f2580)
    - function: _ZNSt6__ndk112basic_stringIwNS_11char_traitsIwEENS_9allocatorIwEEE6__initIPKwEENS_9enable_ifIXsr21__is_forward_iteratorIT_EE5valueEvE4typeESA_SA_ (Address: 0x6b6472fb00)
    - variable: _ZTINSt6__ndk112ctype_bynameIwEE (Address: 0x6b64914990)
    - variable: _ZTSN10__cxxabiv117__array_type_infoE (Address: 0x6b64807240)
    - function: _Z28grpc_sockaddr_make_wildcard6iP21grpc_resolved_address (Address: 0x6b644163cc)
    - variable: _ZNSt6__ndk114numeric_limitsIN4absl12lts_202103247uint128EE10is_boundedE (Address: 0x6b647e0695)
    - function: _Z27grpc_inproc_plugin_shutdownv (Address: 0x6b644dd1f0)
    - function: _ZN9grpc_core27CertificateProviderRegistry12InitRegistryEv (Address: 0x6b644e0fdc)
    - variable: grpc_gcp_Identity_AttributesEntry_msginit (Address: 0x6b648fec30)
    - variable: _ZTSN9grpc_core6chttp217StreamFlowControlE (Address: 0x6b6478d6f0)
    - function: _ZTv0_n24_NSt6__ndk114basic_iostreamIcNS_11char_traitsIcEEED0Ev (Address: 0x6b646fca2c)
    - function: _ZNSt6__ndk17codecvtIwc9mbstate_tED2Ev (Address: 0x6b6472f590)
    - function: _ZN9grpc_core8internal46alts_handshaker_client_get_closure_for_testingEP22alts_handshaker_client (Address: 0x6b64578f74)
    - function: _ZN14TlsCredentialsC2EN9grpc_core13RefCountedPtrI28grpc_tls_credentials_optionsEE (Address: 0x6b64562e6c)
    - function: _ZN9grpc_core14MakeRefCountedINS_9XdsClientEJNSt6__ndk110unique_ptrINS_12XdsBootstrapENS2_14default_deleteIS4_EEEERP17grpc_channel_argsEEENS_13RefCountedPtrIT_EEDpOT0_ (Address: 0x6b64518c38)
    - function: _ZN3re216CharClassBuilderC1Ev (Address: 0x6b64590bf4)
    - variable: envoy_config_route_v3_ScopedRouteConfiguration_Key_Fragment_msginit (Address: 0x6b648fe358)
    - function: _ZNSt6__ndk114basic_iostreamIcNS_11char_traitsIcEEED1Ev (Address: 0x6b646fc9b8)
    - function: _ZN9grpc_core14MakeOrphanableINS_24CertificateProviderStoreEJRKNSt6__ndk13mapINS2_12basic_stringIcNS2_11char_traitsIcEENS2_9allocatorIcEEEENS1_16PluginDefinitionENS2_4lessIS9_EENS7_INS2_4pairIKS9_SA_EEEEEEEEENS2_10unique_ptrIT_NS_16OrphanableDeleteEEEDpOT0_ (Address: 0x6b645132ac)
    - function: _ZNSt6__ndk112__hash_tableIiNS_4hashIiEENS_8equal_toIiEENS_9allocatorIiEEE8__rehashEm (Address: 0x6b645db538)
    - variable: _ZTINSt6__ndk114__shared_countE (Address: 0x6b64915490)
    - function: upb_fielddef_name (Address: 0x6b645b7580)
    - function: _ZNK4absl12lts_2021032411string_view4findEcm (Address: 0x6b645ebd88)
    - function: _ZN9grpc_core27TlsChannelSecurityConnector28TlsChannelCertificateWatcher7OnErrorEP10grpc_errorS3_ (Address: 0x6b6456696c)
    - variable: _ZN4absl12lts_202103244Cord9InlineRep10kMaxInlineE (Address: 0x6b647da680)
    - function: upb_oneofdef_itof (Address: 0x6b645b7d38)
    - variable: envoy_config_cluster_v3_LoadBalancingPolicy_msginit (Address: 0x6b648fb3a8)
    - variable: _ZTSN9grpc_core20InternallyRefCountedINS_9XdsClient12ChannelState13RetryableCallINS2_12AdsCallStateEEEEE (Address: 0x6b64796490)
    - function: _ZNK9grpc_core8channelz12ChannelTrace10TraceEvent16RenderTraceEventEv (Address: 0x6b6441a88c)
    - function: _ZN4absl12lts_2021032419str_format_internal13FormatArgImpl8DispatchIsEEbNS2_4DataENS1_24FormatConversionSpecImplEPv (Address: 0x6b645d03ec)
    - function: _Z40grpc_channel_stack_builder_set_transportP26grpc_channel_stack_builderP14grpc_transport (Address: 0x6b64419b64)
    - function: _ZN37grpc_oauth2_token_fetcher_credentials12debug_stringEv (Address: 0x6b6453fb44)
    - function: _ZN9grpc_core8channelz11ChannelNode10RenderJsonEv (Address: 0x6b6441d140)
    - variable: _ZN9grpc_core13TraceFlagList12root_tracer_E (Address: 0x6b64922c70)
    - variable: xds_core_v3_ContextParams_msginit (Address: 0x6b648fe908)
    - variable: google_protobuf_Struct_msginit (Address: 0x6b649020f0)
    - variable: google_protobuf_FieldOptions_msginit (Address: 0x6b649025c8)
    - variable: _ZNSt6__ndk18ios_base8internalE (Address: 0x6b64803b10)
    - function: _Z26grpc_enable_error_creationv (Address: 0x6b64429ba8)
    - function: _ZN3re23DFA14SlowSearchLoopEPNS0_12SearchParamsE (Address: 0x6b6459ca64)
    - variable: _ZNSt6__ndk18ios_base7unitbufE (Address: 0x6b64803b34)
    - function: _ZN9grpc_core13ClientChannel8CallData30ApplyServiceConfigToCallLockedEP17grpc_call_elementP19grpc_metadata_batch (Address: 0x6b643f0be0)
    - function: _ZN4absl12lts_2021032419ToDoubleNanosecondsENS0_8DurationE (Address: 0x6b645e2e60)
    - variable: _ZTIN9grpc_core6chttp224TransportFlowControlBaseE (Address: 0x6b648f8c78)
    - function: _ZNSt6__ndk18numpunctIwED2Ev (Address: 0x6b6472ab60)
    - function: _ZNSt6__ndk114error_categoryD1Ev (Address: 0x6b6473f220)
    - function: _Z34grpc_register_event_engine_factoryPKcPFPK24grpc_event_engine_vtablebEb (Address: 0x6b64559798)
    - function: _Z22grpc_mdctx_global_initv (Address: 0x6b64457f60)
    - function: _ZNSt6__ndk113basic_ostreamIcNS_11char_traitsIcEEEC1EPNS_15basic_streambufIcS2_EE (Address: 0x6b646f8b90)
    - function: _ZNK4absl12lts_2021032411string_view5rfindES1_m (Address: 0x6b645ebddc)
    - variable: envoy_type_matcher_v3_DoubleMatcher_msginit (Address: 0x6b648fe4e0)
    - function: _ZNSt6__ndk113basic_ostreamIcNS_11char_traitsIcEEEC2EPNS_15basic_streambufIcS2_EE (Address: 0x6b646f8b0c)
    - function: _Z27grpc_resolver_dns_ares_initv (Address: 0x6b644a8698)
    - variable: _ZTSN10__cxxabiv129__pointer_to_member_type_infoE (Address: 0x6b64807090)
    - function: _ZN9grpc_core22XdsCertificateProvider36UpdateSubjectAlternativeNameMatchersERKNSt6__ndk112basic_stringIcNS1_11char_traitsIcEENS1_9allocatorIcEEEENS1_6vectorINS_13StringMatcherENS5_ISB_EEEE (Address: 0x6b64507294)
    - function: _ZN9grpc_core14MakeRefCountedINS_8channelz11ChannelNodeEJPKcRKmRKbEEENS_13RefCountedPtrIT_EEDpOT0_ (Address: 0x6b64448258)
    - function: _ZNKSt6__ndk117moneypunct_bynameIwLb1EE13do_neg_formatEv (Address: 0x6b64713450)
    - function: _ZNKSt6__ndk112ctype_bynameIwE11do_scan_notEmPKwS3_ (Address: 0x6b64726874)
    - function: _ZNSt6__ndk110__function6__funcIZN9grpc_core13ClientChannel17SubchannelWrapper14WatcherWrapper25OnConnectivityStateChangeEvEUlvE_NS_9allocatorIS6_EEFvvEE18destroy_deallocateEv (Address: 0x6b643f4b74)
    - function: _ZN9grpc_core13ClientChannel27ExternalConnectivityWatcher16AddWatcherLockedEv (Address: 0x6b643ea624)
    - function: _Z24grpc_channel_args_stringPK17grpc_channel_args (Address: 0x6b64418d40)
    - function: _ZNSt6__ndk112__hash_tableINS_17__hash_value_typeIjPN9grpc_core21TcpZerocopySendRecordEEENS_22__unordered_map_hasherIjS5_NS_4hashIjEELb1EEENS_21__unordered_map_equalIjS5_NS_8equal_toIjEELb1EEENS_9allocatorIS5_EEE6removeENS_21__hash_const_iteratorIPNS_11__hash_nodeIS5_PvEEEE (Address: 0x6b645330f4)
    - function: _upb_msg_clear (Address: 0x6b645bc238)
    - function: _ZN9grpc_core13ClientChannel8CallData17PendingBatchesAddEP17grpc_call_elementP30grpc_transport_stream_op_batch (Address: 0x6b643f04e8)
    - variable: envoy_type_metadata_v3_metadata_proto_upbdefinit (Address: 0x6b64921168)
    - function: _ZN9grpc_core15ByteStreamCacheD2Ev (Address: 0x6b644563c0)
    - function: _Z48grpc_channel_stack_builder_get_channel_argumentsP26grpc_channel_stack_builder (Address: 0x6b64419b5c)
    - function: _ZN9grpc_core6XdsApi16CommonTlsContextD2Ev (Address: 0x6b64489fe8)
    - function: _ZNSt6__ndk121recursive_timed_mutex4lockEv (Address: 0x6b647315d4)
    - variable: envoy_extensions_transport_sockets_tls_v3_TlsCertificate_msginit (Address: 0x6b648fe428)
    - variable: _ZNSt6__ndk114numeric_limitsIN4absl12lts_202103247uint128EE15has_denorm_lossE (Address: 0x6b647e068c)
    - function: _ZNKSt6__ndk117moneypunct_bynameIwLb0EE13do_pos_formatEv (Address: 0x6b64712930)
    - variable: envoy_config_core_v3_HealthCheck_Payload_msginit (Address: 0x6b648fbb78)
    - function: _ZN9grpc_core6chttp228TransportFlowControlDisabled15MaybeSendUpdateEb (Address: 0x6b644d22c4)
    - function: _ZNSt6__ndk16vectorIN9grpc_core6XdsApi9LdsUpdate14FilterChainMap13DestinationIpENS_9allocatorIS5_EEE18__construct_at_endIPS5_EENS_9enable_ifIXsr21__is_forward_iteratorIT_EE5valueEvE4typeESC_SC_m (Address: 0x6b6451a4fc)
    - variable: _ZTSNSt6__ndk17num_getIwNS_19istreambuf_iteratorIwNS_11char_traitsIwEEEEEE (Address: 0x6b64805b70)
    - variable: _ZNSt6__ndk18time_putIcNS_19ostreambuf_iteratorIcNS_11char_traitsIcEEEEE2idE (Address: 0x6b64928c58)
    - function: _ZNKSt6__ndk117moneypunct_bynameIwLb1EE13do_pos_formatEv (Address: 0x6b64713448)
    - function: _ZN4absl12lts_2021032423inlined_vector_internal7StorageIPKcLm1ENSt6__ndk19allocatorIS4_EEE15EmplaceBackSlowIJRA25_S3_EEERS4_DpOT_ (Address: 0x6b6447395c)
    - variable: validate_AnyRules_msginit (Address: 0x6b648fe8a0)
    - function: _ZN4absl12lts_202103248AlphaNumC2ENS0_3DecE (Address: 0x6b645ea3b4)
    - function: _ZN4absl12lts_2021032410from_charsEPKcS2_RdNS0_12chars_formatE (Address: 0x6b645ec504)
    - variable: _ZN4absl12lts_2021032414ascii_internal13kPropertyBitsE (Address: 0x6b647dc4f0)
    - variable: envoy_service_status_v3_ClientStatusRequest_msginit (Address: 0x6b648fd300)
    - function: _ZNSt6__ndk125notify_all_at_thread_exitERNS_18condition_variableENS_11unique_lockINS_5mutexEEE (Address: 0x6b6473fb10)
    - function: deflateGetDictionary (Address: 0x6b6457d8d4)
    - function: _ZN9grpc_core19ServiceConfigParser14RegisterParserENSt6__ndk110unique_ptrINS0_6ParserENS1_14default_deleteIS3_EEEE (Address: 0x6b6440be80)
    - function: _ZN3tsi18SslSessionLRUCache3PutEPKcNSt6__ndk110unique_ptrI14ssl_session_stNS_17SslSessionDeleterEEE (Address: 0x6b645530ac)
    - function: _ZN9grpc_core19XdsClusterDropStatsD1Ev (Address: 0x6b64521664)
    - function: _ZNK9grpc_core19ConnectedSubchannel26GetInitialCallSizeEstimateEv (Address: 0x6b6440c9f4)
    - variable: grpc_stats_counter_doc (Address: 0x6b6491f918)
    - function: _ZN9grpc_core3URIaSEOS0_ (Address: 0x6b6446bff0)
    - function: _ZN3re219NamedCapturesWalkerD0Ev (Address: 0x6b645920d4)
    - function: grpcsharp_completion_queue_shutdown (Address: 0x6b643e7324)
    - function: _ZN3re28Compiler4StarENS_4FragEb (Address: 0x6b64595c28)
    - variable: envoy_config_endpoint_v3_ClusterLoadAssignment_Policy_msginit (Address: 0x6b648fbdf8)
    - variable: _ZTINSt6__ndk115time_put_bynameIcNS_19ostreambuf_iteratorIcNS_11char_traitsIcEEEEEE (Address: 0x6b64914ea0)
    - function: _ZNSt6__ndk19__num_getIwE19__stage2_float_prepERNS_8ios_baseEPwRwS5_ (Address: 0x6b647051b0)
    - function: _Z24grpc_timer_list_shutdownv (Address: 0x6b6442d604)
    - function: grpc_resource_quota_ref (Address: 0x6b6452de10)
    - function: _Z36gpr_global_config_set_grpc_verbosityPKc (Address: 0x6b645b209c)
    - function: _Z26grpc_set_socket_reuse_portii (Address: 0x6b6442c914)
    - variable: envoy_extensions_filters_http_fault_v3_FaultAbort_HeaderAbort_msginit (Address: 0x6b647c0428)
    - variable: envoy_admin_v3_ListenersConfigDump_DynamicListener_msginit (Address: 0x6b648faae0)
    - variable: envoy_extensions_filters_network_http_connection_manager_v3_ScopedRouteConfigurationsList_msginit (Address: 0x6b648fcec8)
    - function: _upb_array_resize_fallback (Address: 0x6b645bc498)
    - variable: _ZTSNSt6__ndk110__time_putE (Address: 0x6b64805f70)
    - function: _ZNK4absl12lts_2021032413time_internal4cctz12TimeZoneInfo9BreakTimeERKNSt6__ndk16chrono10time_pointINS5_12system_clockENS5_8durationIlNS4_5ratioILl1ELl1EEEEEEE (Address: 0x6b645fcaec)
    - function: _ZNSt6__ndk17collateIwED1Ev (Address: 0x6b646fd438)
    - function: _ZN9grpc_core10Subchannel28ConnectivityStateWatcherList19RemoveWatcherLockedEPNS0_33ConnectivityStateWatcherInterfaceE (Address: 0x6b6440d2b8)
    - variable: envoy_config_core_v3_grpc_service_proto_upbdefinit (Address: 0x6b64920488)
    - variable: envoy_config_route_v3_RouteMatch_GrpcRouteMatchOptions_msginit (Address: 0x6b647a2528)
    - function: _Z43grpc_channel_stack_builder_iterator_destroyP35grpc_channel_stack_builder_iterator (Address: 0x6b64419970)
    - variable: _ZTSN9grpc_core32FaultInjectionMethodParsedConfigE (Address: 0x6b6478aae0)
    - variable: _ZTTNSt6__ndk113basic_istreamIcNS_11char_traitsIcEEEE (Address: 0x6b64912890)
    - variable: _ZTIN4absl12lts_2021032417BadStatusOrAccessE (Address: 0x6b649020a0)
    - function: _ZN9grpc_core9XdsClient12ChannelState12AdsCallState6OrphanEv (Address: 0x6b6450abe0)
    - function: _ZNK9grpc_core6XdsApi5RouteeqERKS1_ (Address: 0x6b644ba088)
    - function: _ZNKSt6__ndk118__time_get_storageIcE15__do_date_orderEv (Address: 0x6b6470e4fc)
    - function: _ZNSt20bad_array_new_lengthC2Ev (Address: 0x6b64744528)
    - function: _ZN9grpc_core8UserDataD2Ev (Address: 0x6b64457d6c)
    - function: _ZNKSt6__ndk16locale9has_facetERNS0_2idE (Address: 0x6b647242b0)
    - function: _ZN4absl12lts_2021032410SimpleAtobENS0_11string_viewEPb (Address: 0x6b645e8664)
    - variable: _ZN4absl12lts_2021032416numbers_internal9kHexTableE (Address: 0x6b647dd1d5)
    - function: _ZN9grpc_core13RefCountedPtrINS_16HandshakeManagerEED2Ev (Address: 0x6b644c3f74)
    - function: _ZNSt10bad_typeidC2Ev (Address: 0x6b64744bc4)
    - function: _Z48grpc_override_well_known_credentials_path_getterPFNSt6__ndk112basic_stringIcNS_11char_traitsIcEENS_9allocatorIcEEEEvE (Address: 0x6b6453b578)
    - function: _Z21grpc_endpoint_destroyP13grpc_endpoint (Address: 0x6b6452ae78)
    - function: _Z12grpc_preforkv (Address: 0x6b6452c268)
    - function: _Z33grpc_credentials_mdelem_array_addP29grpc_credentials_mdelem_array11grpc_mdelem (Address: 0x6b64539f08)
    - function: _ZNK9grpc_core6XdsApi9EdsUpdate10DropConfigeqERKS2_ (Address: 0x6b6451b77c)
    - function: _Z28grpc_ipv6_loopback_availablev (Address: 0x6b6442d170)
    - function: _ZN4absl12lts_2021032416strings_internal11BigUnsignedILi84EEC1Ev (Address: 0x6b645ee6dc)
    - variable: _ZTVNSt6__ndk19money_putIwNS_19ostreambuf_iteratorIwNS_11char_traitsIwEEEEEE (Address: 0x6b64913740)
    - function: _ZNSt6__ndk113basic_ostreamIcNS_11char_traitsIcEEE6sentryC2ERS3_ (Address: 0x6b646f8e58)
    - variable: _ZTV39grpc_google_default_channel_credentials (Address: 0x6b648f9e40)
    - variable: _ZTSN9grpc_core9XdsClient12ChannelState12AdsCallStateE (Address: 0x6b64796120)
    - function: _Z16grpc_timer_checkPl (Address: 0x6b6442d5dc)
    - function: _ZN9grpc_core17HealthCheckClient9CallStateC1ENS_13RefCountedPtrIS0_EEP16grpc_pollset_set (Address: 0x6b64469388)
    - function: _Z31grpc_lb_policy_round_robin_initv (Address: 0x6b64482ba4)
    - variable: _ZTIN9grpc_core26ExternalAccountCredentialsE (Address: 0x6b648fd9e0)
    - function: _Z27grpc_chttp2_plugin_shutdownv (Address: 0x6b644c7b60)
    - function: _ZNKSt6__ndk18time_getIcNS_19istreambuf_iteratorIcNS_11char_traitsIcEEEEE13__get_12_hourERiRS4_S4_RjRKNS_5ctypeIcEE (Address: 0x6b6470b150)
    - variable: _ZTIN9grpc_core14XdsCredentialsE (Address: 0x6b648fa390)
    - variable: _ZTSN10__cxxabiv117__pbase_type_infoE (Address: 0x6b64807000)
    - function: _ZN9grpc_core14WorkSerializerC2Ev (Address: 0x6b6442db8c)
    - function: _Z29grpc_shutdown_internal_lockedv (Address: 0x6b6444cbb4)
    - function: _ZNSt10bad_typeidD0Ev (Address: 0x6b64744bdc)
    - variable: _ZNSt6__ndk18ios_base9basefieldE (Address: 0x6b64803b40)
    - function: _ZN9grpc_core14SubchannelCall7DestroyEPvP10grpc_error (Address: 0x6b6440ccec)
    - function: _ZNSt6__ndk114collate_bynameIcED2Ev (Address: 0x6b647248f8)
    - variable: _ZTVN9grpc_core13ClientChannel17SubchannelWrapper14WatcherWrapperE (Address: 0x6b648f2248)
    - variable: _ZTSN9grpc_core6Server29AllocatingRequestMatcherBatchE (Address: 0x6b6477e180)
    - variable: _ZNSt6__ndk114numeric_limitsIN4absl12lts_202103246int128EE14min_exponent10E (Address: 0x6b647e06e8)
    - function: _Z30grpc_create_socketpair_if_unixPi (Address: 0x6b6442d62c)
    - variable: _ZNSt6__ndk114numeric_limitsIN4absl12lts_202103247uint128EE14max_exponent10E (Address: 0x6b647e06b4)
    - function: _ZNKSt6__ndk120__codecvt_utf8_utf16IwE10do_unshiftER9mbstate_tPcS4_RS4_ (Address: 0x6b6472a6a8)
    - variable: _ZTIN9grpc_core19ConnectedSubchannelE (Address: 0x6b648f31d0)
    - variable: _ZN9grpc_core21grpc_xds_client_traceE (Address: 0x6b64924bb0)
    - function: grpc_auth_context_release (Address: 0x6b64431b88)
    - function: _ZN9grpc_core4Fork6EnableEb (Address: 0x6b645b49d4)
    - variable: _ZTINSt6__ndk120__time_get_c_storageIwEE (Address: 0x6b64914cd8)
    - function: _Znwm (Address: 0x6b64744570)
    - function: _ZNSt6__ndk113basic_istreamIwNS_11char_traitsIwEEErsERs (Address: 0x6b646f6698)
    - function: _Z47tsi_construct_string_peer_property_from_cstringPKcS0_P17tsi_peer_property (Address: 0x6b644656d0)
    - function: _ZN9grpc_core6Server18RealRequestMatcher14ZombifyPendingEv (Address: 0x6b64453878)
    - function: _ZN9grpc_core19ServiceConfigParser4InitEv (Address: 0x6b6440bde0)
    - variable: _ZTIN9grpc_core8internal23ServerRetryThrottleDataE (Address: 0x6b648f30e0)
    - function: _ZN9grpc_core15ByteStreamCache17CachingByteStream4NextEmP12grpc_closure (Address: 0x6b644564d8)
    - function: _ZN9grpc_core16InternedMetadataC2ERK10grpc_sliceS3_jPS0_ (Address: 0x6b64457d70)
    - function: _Z38grpc_set_socket_no_sigpipe_if_possiblei (Address: 0x6b6442c460)
    - function: _ZN4absl12lts_2021032413time_internal4cctz6detail6formatERKNSt6__ndk112basic_stringIcNS4_11char_traitsIcEENS4_9allocatorIcEEEERKNS4_6chrono10time_pointINSD_12system_clockENSD_8durationIlNS4_5ratioILl1ELl1EEEEEEERKNSG_IlNSH_ILl1ELl1000000000000000EEEEERKNS2_9time_zoneE (Address: 0x6b645f2c6c)
    - function: gpr_mu_lock (Address: 0x6b645b37b4)
    - function: _ZN9grpc_core24Chttp2IncomingByteStream4NextEmP12grpc_closure (Address: 0x6b644cccc8)
    - variable: grpc_trace_operation_failures (Address: 0x6b64923d78)
    - function: _ZN4absl12lts_2021032429EnableMutexInvariantDebuggingEb (Address: 0x6b645dbedc)
    - function: _ZN3re26Regexp13ComputeSimpleEv (Address: 0x6b645ae048)
    - function: _Z15grpc_stats_diffPK15grpc_stats_dataS1_PS_ (Address: 0x6b645272d4)
    - function: _ZN3re211SparseArrayIiE4lessERKNS1_10IndexValueES4_ (Address: 0x6b645abd38)
    - function: _Z42grpc_ssl_channel_security_connector_createN9grpc_core13RefCountedPtrI24grpc_channel_credentialsEENS0_I21grpc_call_credentialsEEPK15grpc_ssl_configPKcS9_P21tsi_ssl_session_cache (Address: 0x6b64436a8c)
    - function: _ZN4absl12lts_2021032413InlinedVectorIN9grpc_core13ServerAddressELm1ENSt6__ndk19allocatorIS3_EEEaSEOS7_ (Address: 0x6b643ee0a8)
    - function: _ZN3re23DFA9SearchFTTEPNS0_12SearchParamsE (Address: 0x6b6459ca14)
    - function: _ZNSt14overflow_errorD1Ev (Address: 0x6b64744838)
    - function: grpcsharp_server_credentials_release (Address: 0x6b643e84ec)
    - function: _ZNSt6__ndk112basic_stringIcNS_11char_traitsIcEENS_9allocatorIcEEE6assignEPKcm (Address: 0x6b643f3590)
    - function: _ZN4absl12lts_2021032410FormatTimeENS0_11string_viewENS0_4TimeENS0_8TimeZoneE (Address: 0x6b645e40cc)
    - variable: _ZTVN9grpc_core6Server29AllocatingRequestMatcherBatchE (Address: 0x6b648f45e8)
    - variable: _ZNSt6__ndk18ios_base4leftE (Address: 0x6b64803b14)
    - function: _ZNKSt6__ndk121__basic_string_commonILb1EE20__throw_length_errorEv (Address: 0x6b643f2d44)
    - variable: _ZTVNSt6__ndk117__assoc_sub_stateE (Address: 0x6b64915758)
    - function: _ZNSt6__ndk110__time_getC2EPKc (Address: 0x6b6472c404)
    - function: _ZNK9grpc_core6XdsApi16CommonTlsContext8ToStringEv (Address: 0x6b644e62f0)
    - function: _ZN9grpc_core6Server8CallDataC1EP17grpc_call_elementRK22grpc_call_element_argsNS_13RefCountedPtrIS0_EE (Address: 0x6b64451188)
    - function: _Z30grpc_inproc_transport_shutdownv (Address: 0x6b644ddab8)
    - function: _ZN3re26Regexp13NamedCapturesEv (Address: 0x6b64590514)
    - function: _ZN9grpc_core16HandshakeManagerD1Ev (Address: 0x6b64523dd0)
    - function: _ZN9grpc_core29AwsExternalAccountCredentials18OnRetrieveRoleNameEPvP10grpc_error (Address: 0x6b64571950)
    - function: _ZN9grpc_core29AwsExternalAccountCredentialsC2ENS_26ExternalAccountCredentials7OptionsENSt6__ndk16vectorINS3_12basic_stringIcNS3_11char_traitsIcEENS3_9allocatorIcEEEENS8_ISA_EEEEPP10grpc_error (Address: 0x6b6456ca58)
    - variable: _ZNSt6__ndk114numeric_limitsIN4absl12lts_202103246int128EE17has_signaling_NaNE (Address: 0x6b647e06c0)
    - function: _Z27grpc_chttp2_stream_map_initP22grpc_chttp2_stream_mapm (Address: 0x6b644dbb24)
    - function: _Z22grpc_channel_init_initv (Address: 0x6b64448c4c)
    - function: _ZNKSt6__ndk112ctype_bynameIcE10do_tolowerEPcPKc (Address: 0x6b6472615c)
    - function: _ZNKSt6__ndk117moneypunct_bynameIcLb1EE16do_decimal_pointEv (Address: 0x6b64711dd0)
    - variable: _ZTSN9grpc_core10RefCountedI29grpc_tls_certificate_providerNS_19PolymorphicRefCountELNS_13UnrefBehaviorE0EEE (Address: 0x6b647927a0)
    - function: _Z38grpc_channel_update_call_size_estimateP12grpc_channelm (Address: 0x6b64446640)
    - function: gpr_time_from_hours (Address: 0x6b645b3db4)
    - function: _ZN3re23RE23Arg18parse_ulong_cradixEPKcmPv (Address: 0x6b6458bb74)
    - function: _ZNSt16invalid_argumentD1Ev (Address: 0x6b64744780)
    - function: _ZNKSt6__ndk18time_getIcNS_19istreambuf_iteratorIcNS_11char_traitsIcEEEEE11__get_year4ERiRS4_S4_RjRKNS_5ctypeIcEE (Address: 0x6b6470b614)
    - function: _ZN9grpc_core8internal49alts_tsi_handshaker_set_client_vtable_for_testingEP19alts_tsi_handshakerP29alts_handshaker_client_vtable (Address: 0x6b64568684)
    - function: _ZNK4absl12lts_2021032413time_internal4cctz9time_zone15next_transitionERKNSt6__ndk16chrono10time_pointINS5_12system_clockENS5_8durationIlNS4_5ratioILl1ELl1EEEEEEEPNS3_16civil_transitionE (Address: 0x6b645f6fbc)
    - function: _Z26grpc_auth_context_from_argPK8grpc_arg (Address: 0x6b644326a4)
    - function: _ZNSt6__ndk15ctypeIcE13classic_tableEv (Address: 0x6b64725408)
    - variable: _ZTIN9grpc_core10RefCountedINS_10Subchannel33ConnectivityStateWatcherInterfaceENS_19PolymorphicRefCountELNS_13UnrefBehaviorE0EEE (Address: 0x6b648f2280)
    - function: _ZNSt6__ndk117__widen_from_utf8ILm16EED0Ev (Address: 0x6b6472aa3c)
    - function: _ZN9grpc_core5Arena7DestroyEv (Address: 0x6b645b4794)
    - function: _ZN4absl12lts_2021032415ToDoubleSecondsENS0_8DurationE (Address: 0x6b645e2f34)
    - function: _ZN9grpc_core13ClientChannel16LoadBalancedCall20PickSubchannelLockedEPP10grpc_error (Address: 0x6b643eebc4)
    - function: _ZNSt6__ndk110__function6__funcIZN9grpc_core38AsyncConnectivityStateWatcherInterface8NotifierC1ENS2_13RefCountedPtrIS3_EE23grpc_connectivity_stateRKN4absl12lts_202103246StatusERKNS_10shared_ptrINS2_14WorkSerializerEEEEUlvE_NS_9allocatorISI_EEFvvEED0Ev (Address: 0x6b64457434)
    - function: _ZNK4absl12lts_2021032413time_internal4cctz12TimeZoneLibC11DescriptionEv (Address: 0x6b64600308)
    - function: _ZN3re23RE23Arg15parse_ulong_hexEPKcmPv (Address: 0x6b6458bb64)
    - function: _Z27gpr_timers_set_log_filenamePKc (Address: 0x6b645b60b0)
    - variable: _ZTVN9grpc_core8internal31ClientChannelMethodParsedConfigE (Address: 0x6b648f2df8)
    - variable: google_protobuf_duration_proto_upbdefinit (Address: 0x6b64921370)
    - function: _ZN9grpc_core26ExternalAccountCredentialsD1Ev (Address: 0x6b6455c75c)
    - function: _Z40grpc_channel_stack_builder_get_transportP26grpc_channel_stack_builder (Address: 0x6b64419ba4)
    - function: _ZN4absl12lts_2021032411make_uniqueIN9grpc_core12XdsBootstrapEJNS2_4JsonERPP10grpc_errorEEENS0_15memory_internal16MakeUniqueResultIT_E6scalarEDpOT0_ (Address: 0x6b64500f30)
    - function: _Z27tsi_local_handshaker_createbPP14tsi_handshaker (Address: 0x6b64552a74)
    - variable: _ZTS20TlsServerCredentials (Address: 0x6b647bece0)
    - function: _ZNSt6__ndk17collateIcED2Ev (Address: 0x6b646fd248)
    - function: _ZN4absl12lts_2021032413base_internal16ThrowStdBadAllocEv (Address: 0x6b645f0d60)
    - function: _ZN9grpc_core18ManagedMemorySliceC1EPK10grpc_slice (Address: 0x6b6443f1a0)
    - function: _ZNSt6__ndk16__treeINS_12__value_typeIPN9grpc_core9XdsClient27RouteConfigWatcherInterfaceENS_10unique_ptrIS4_NS_14default_deleteIS4_EEEEEENS_19__map_value_compareIS5_SA_NS_4lessIS5_EELb1EEENS_9allocatorISA_EEE7destroyEPNS_11__tree_nodeISA_PvEE (Address: 0x6b6451c0b8)
    - function: _ZNKSt6__ndk17num_getIcNS_19istreambuf_iteratorIcNS_11char_traitsIcEEEEE6do_getES4_S4_RNS_8ios_baseERjS8_ (Address: 0x6b646feb24)
    - function: _ZNKSt6__ndk18time_getIwNS_19istreambuf_iteratorIwNS_11char_traitsIwEEEEE17__get_white_spaceERS4_S4_RjRKNS_5ctypeIwEE (Address: 0x6b6470cfac)
    - function: _ZNSt6__ndk113basic_istreamIwNS_11char_traitsIwEEE4syncEv (Address: 0x6b646f8734)
    - variable: _ZNSt6__ndk16locale7collateE (Address: 0x6b648044cc)
    - function: _ZN4absl12lts_2021032421RegisterMutexProfilerEPFvlE (Address: 0x6b645db87c)
    - function: grpc_auth_context_peer_is_authenticated (Address: 0x6b64432138)
    - variable: grpc_posix_pollset_set_vtable (Address: 0x6b64921938)
    - function: gpr_cv_wait (Address: 0x6b645b37e0)
    - variable: _ZTIPKt (Address: 0x6b64915bd0)
    - function: grpc_slice_buf_start_eq (Address: 0x6b6443cbf8)
    - variable: google_protobuf_EnumValueOptions_msginit (Address: 0x6b64902628)
    - function: _Z35grpc_server_security_context_createPN9grpc_core5ArenaE (Address: 0x6b64431db4)
    - function: _ZN9grpc_core16InternedMetadataC2ERK10grpc_sliceS3_jPS0_PKNS0_8NoRefKeyE (Address: 0x6b64457de8)
    - function: _ZN3re28Compiler14ByteRangeEqualEii (Address: 0x6b64596be0)
    - function: _ZN9grpc_core15XdsLocalityNameD0Ev (Address: 0x6b644a8088)
    - variable: _ZTV21grpc_alts_credentials (Address: 0x6b648fd8c0)
    - function: _ZN9grpc_core6Server28AllocatingRequestMatcherBase30RequestCallWithPossiblePublishEmPNS0_13RequestedCallE (Address: 0x6b64454e54)
    - variable: _ZTVN9grpc_core9XdsClient12ChannelStateE (Address: 0x6b648f94c0)
    - function: _ZNSt6__ndk113basic_ostreamIwNS_11char_traitsIwEEE6sentryC1ERS3_ (Address: 0x6b646fa6cc)
    - function: _ZNSt6__ndk110__time_putC1EPKc (Address: 0x6b6470ff34)
    - variable: _ZNSt6__ndk114numeric_limitsIN4absl12lts_202103247uint128EE12has_infinityE (Address: 0x6b647e0684)
    - function: _ZNKSt6__ndk18numpunctIcE11do_truenameEv (Address: 0x6b6472ac20)
    - function: _ZNSt6__ndk18ios_baseD1Ev (Address: 0x6b646f0e5c)
    - function: _ZNSt6__ndk112basic_stringIcNS_11char_traitsIcEENS_9allocatorIcEEEC2ERKS5_mmRKS4_ (Address: 0x6b64732480)
    - variable: _ZTIN3tsi16SslCachedSessionE (Address: 0x6b648fe018)
    - variable: _ZTSNSt6__ndk19basic_iosIcNS_11char_traitsIcEEEE (Address: 0x6b647cc5a0)
    - function: grpcsharp_call_cancel_with_status (Address: 0x6b643e7718)
    - variable: envoy_config_cluster_v3_Cluster_OriginalDstLbConfig_msginit (Address: 0x6b648fb2a0)
    - function: _ZN4absl12lts_2021032423inlined_vector_internal7StorageIN9grpc_core14PemKeyCertPairELm1ENSt6__ndk19allocatorIS4_EEE6AssignINS1_20IteratorValueAdapterIS7_PKS4_EEEEvT_m (Address: 0x6b64545054)
    - function: _ZN3re24Prog6FanoutEPNS_11SparseArrayIiEE (Address: 0x6b645a1b20)
    - function: _ZNKSt6__ndk115basic_streambufIwNS_11char_traitsIwEEE6getlocEv (Address: 0x6b646f27ac)
    - function: _ZNSt6__ndk16__sortIRNS_6__lessIiiEEPiEEvT0_S5_T_ (Address: 0x6b6459e534)
    - function: _ZNKSt6__ndk110__function6__funcIZN9grpc_core13ClientChannel17SubchannelWrapper14WatcherWrapper25OnConnectivityStateChangeEvEUlvE_NS_9allocatorIS6_EEFvvEE6targetERKSt9type_info (Address: 0x6b643f4bd4)
    - variable: _ZTSN4absl12lts_2021032413time_internal4cctz12TimeZoneInfoE (Address: 0x6b647e0d30)
    - function: _ZN9grpc_core13ClientChannel8CallData27StartTransportStreamOpBatchEP17grpc_call_elementP30grpc_transport_stream_op_batch (Address: 0x6b643e96ec)
    - function: _ZNKSt6__ndk15ctypeIwE5do_isEmw (Address: 0x6b647253e0)
    - function: _ZN9grpc_core24ConnectivityStateTrackerD1Ev (Address: 0x6b64456a38)
    - function: _ZNSt6__ndk111__money_putIcE8__formatEPcRS2_S3_jPKcS5_RKNS_5ctypeIcEEbRKNS_10money_base7patternEccRKNS_12basic_stringIcNS_11char_traitsIcEENS_9allocatorIcEEEESL_SL_i (Address: 0x6b64717ac4)
    - function: _ZN9grpc_core8internal23ServerRetryThrottleData34GetReplacementThrottleDataIfNeededEPPS1_ (Address: 0x6b64407f74)
    - function: _ZN9grpc_core21ConnectivityStateNameE23grpc_connectivity_state (Address: 0x6b64456774)
    - variable: _ZTVNSt6__ndk19money_getIwNS_19istreambuf_iteratorIwNS_11char_traitsIwEEEEEE (Address: 0x6b649136d0)
    - function: _ZN4absl12lts_2021032413IsUnavailableERKNS0_6StatusE (Address: 0x6b645c3530)
    - function: _ZN9grpc_core29AwsExternalAccountCredentialsD2Ev (Address: 0x6b64572738)
    - function: _ZNSt6__ndk113basic_ostreamIwNS_11char_traitsIwEEElsEl (Address: 0x6b646fb1c4)
    - function: grpc_call_ref (Address: 0x6b644414c0)
    - function: _ZN9grpc_core6chttp228TransportFlowControlDisabled10MakeActionEv (Address: 0x6b644d22cc)
    - function: _ZN9grpc_core8channelz16ListenSocketNodeD0Ev (Address: 0x6b644246e4)
    - variable: validate_StringRules_msginit (Address: 0x6b648fe800)
    - function: _ZN9grpc_core8channelz10ServerNodeC1Em (Address: 0x6b6441ea90)
    - function: _ZNSt6__ndk115basic_streambufIcNS_11char_traitsIcEEE5pbumpEi (Address: 0x6b646f2748)
    - function: _ZN3re26Regexp10ParseState10PushDollarEv (Address: 0x6b645a4624)
    - function: _ZNK9grpc_core6chttp220TransportFlowControl20flow_control_enabledEv (Address: 0x6b644d1e0c)
    - function: _ZN4absl12lts_202103245Mutex45InternalAttemptToUseMutexInFatalSignalHandlerEv (Address: 0x6b645db9c0)
    - variable: _ZTISt12out_of_range (Address: 0x6b64916620)
    - function: grpc_channel_create_call (Address: 0x6b64446b98)
    - function: _Z8new_nodePvS_P13grpc_avl_nodeS1_ (Address: 0x6b64416fb0)
    - function: _ZN9grpc_core12FakeResolver24ReturnReresolutionResultEv (Address: 0x6b644aa504)
    - function: _ZN9grpc_core10Subchannel12OnRetryAlarmEPvP10grpc_error (Address: 0x6b6441021c)
    - function: _ZNKSt6__ndk115__codecvt_utf16IDiLb0EE10do_unshiftER9mbstate_tPcS4_RS4_ (Address: 0x6b64729bd8)
    - variable: _ZNSt6__ndk114numeric_limitsIN4absl12lts_202103247uint128EE13has_quiet_NaNE (Address: 0x6b647e0685)
    - variable: _ZTINSt6__ndk110__function6__baseIFvP10grpc_errorPN9grpc_core19LoadBalancingPolicy17MetadataInterfaceEPNS5_9CallStateEEEE (Address: 0x6b648f6988)
    - function: _ZNSt6__ndk113basic_ostreamIwNS_11char_traitsIwEEElsEPFRNS_8ios_baseES5_E (Address: 0x6b646fa7f4)
    - variable: _ZTVNSt6__ndk114codecvt_bynameIcc9mbstate_tEE (Address: 0x6b64913878)
    - variable: _ZN3re220num_unicode_casefoldE (Address: 0x6b647ceb50)
    - variable: envoy_config_core_v3_GrpcService_GoogleGrpc_CallCredentials_msginit (Address: 0x6b648fba38)
    - function: _ZN4absl12lts_202103247CondVar10WaitCommonEPNS0_5MutexENS0_24synchronization_internal13KernelTimeoutE (Address: 0x6b645df264)
    - function: _ZSt14set_unexpectedPFvvE (Address: 0x6b64744d08)
    - variable: grpc_static_accept_stream_encoding_metadata (Address: 0x6b6477ea66)
    - function: _Z26grpc_status_to_http2_error16grpc_status_code (Address: 0x6b6445d01c)
    - function: _ZN9grpc_core13ClientChannel29OnResolverResultChangedLockedENS_8Resolver6ResultE (Address: 0x6b643eb980)
    - function: _ZN4absl12lts_2021032416strings_internal11BigUnsignedILi84EE21MultiplyByTenToTheNthEi (Address: 0x6b645eec10)
    - function: _ZN9grpc_core17MessageSizeParserD0Ev (Address: 0x6b644c3488)
    - function: _ZNKSt6__ndk110moneypunctIwLb1EE14do_curr_symbolEv (Address: 0x6b6471119c)
    - function: _ZNSt6__ndk113basic_istreamIcNS_11char_traitsIcEEEC2EPNS_15basic_streambufIcS2_EE (Address: 0x6b646f2da0)
    - function: _ZN4absl12lts_2021032419str_format_internal11FILERawSink5WriteENS0_11string_viewE (Address: 0x6b645da11c)
    - function: grpc_auth_metadata_context_copy (Address: 0x6b6454d134)
    - variable: _ZTISt9bad_alloc (Address: 0x6b64916460)
    - variable: _ZTSPKy (Address: 0x6b648071bc)
    - variable: _ZN4absl12lts_2021032419str_format_internal28FormatConversionCharInternal1gE (Address: 0x6b647dae04)
    - function: _Z39grpc_stream_compression_encoding_mdelem33grpc_stream_compression_algorithm (Address: 0x6b64525a04)
    - function: grpc_tls_certificate_provider_file_watcher_create (Address: 0x6b64548550)
    - function: _ZNKSt6__ndk18time_getIcNS_19istreambuf_iteratorIcNS_11char_traitsIcEEEEE13__get_weekdayERiRS4_S4_RjRKNS_5ctypeIcEE (Address: 0x6b6470b5bc)
    - function: _ZNKSt10bad_typeid4whatEv (Address: 0x6b64744c00)
    - function: _ZNSt6__ndk16__treeINS_12__value_typeIPKcNS_10unique_ptrIN9grpc_core13ServerAddress18AttributeInterfaceENS_14default_deleteIS7_EEEEEENS_19__map_value_compareIS3_SB_NS_4lessIS3_EELb1EEENS_9allocatorISB_EEE14__erase_uniqueIS3_EEmRKT_ (Address: 0x6b644093a0)
    - function: _ZNSt16bad_array_lengthD0Ev (Address: 0x6b64744560)
    - function: _ZNKSt6__ndk15ctypeIwE9do_narrowEPKwS3_cPc (Address: 0x6b64725844)
    - function: _ZN3re221FactorAlternationImpl6Round3EPPNS_6RegexpEiNS1_10ParseFlagsEPNSt6__ndk16vectorINS_6SpliceENS5_9allocatorIS7_EEEE (Address: 0x6b645a5f20)
    - function: _ZN9grpc_core18HandshakerRegistry14AddHandshakersENS_14HandshakerTypeEPK17grpc_channel_argsP16grpc_pollset_setPNS_16HandshakeManagerE (Address: 0x6b64524d84)
    - function: _ZN9grpc_core13RefCountedPtrINS_22XdsCertificateProviderEED2Ev (Address: 0x6b64489544)
    - function: _ZN3re219NamedCapturesWalkerD2Ev (Address: 0x6b645905f4)
    - function: _ZN9grpc_core30FileExternalAccountCredentialsD2Ev (Address: 0x6b645606f0)
    - function: _ZN9grpc_core8internal32ClientChannelServiceConfigParser17ParseGlobalParamsEPK17grpc_channel_argsRKNS_4JsonEPP10grpc_error (Address: 0x6b643ffc34)
    - variable: _ZTVN4absl12lts_2021032413time_internal4cctz12TimeZoneLibCE (Address: 0x6b64902c20)
    - function: _ZN4absl12lts_2021032413base_internal18ThrowStdLogicErrorEPKc (Address: 0x6b645f0638)
    - function: _ZNKSt6__ndk17num_getIcNS_19istreambuf_iteratorIcNS_11char_traitsIcEEEEE15__do_get_signedIlEES4_S4_S4_RNS_8ios_baseERjRT_ (Address: 0x6b646fdd18)
    - variable: _ZTIN9grpc_core6chttp225StreamFlowControlDisabledE (Address: 0x6b648f8ac0)
    - variable: _ZNSt6__ndk18ios_base3octE (Address: 0x6b64803b18)
    - function: _ZN3re26Regexp9AlternateEPPS0_iNS0_10ParseFlagsE (Address: 0x6b6458f748)
    - variable: grpc_polling_api_trace (Address: 0x6b6492182b)
    - function: upb_msg_next (Address: 0x6b645c0f88)
    - function: grpcsharp_secure_channel_create (Address: 0x6b643e8420)
    - function: _ZN9grpc_core8Resolver6ResultC2ERKS1_ (Address: 0x6b643fe2a4)
    - function: _ZN9grpc_core8internal17RetryGlobalConfigD0Ev (Address: 0x6b64407e48)
    - function: _ZN4absl12lts_2021032423inlined_vector_internal7StorageINSt6__ndk112basic_stringIcNS3_11char_traitsIcEENS3_9allocatorIcEEEELm4ENS7_IS9_EEE15EmplaceBackSlowIJS9_EEERS9_DpOT_ (Address: 0x6b6450062c)
    - variable: _ZTVN9grpc_core19LoadBalancingPolicyE (Address: 0x6b648f29e0)
    - function: _ZN4absl12lts_2021032413time_internal4cctz9time_zone4ImplC2ERKNSt6__ndk112basic_stringIcNS5_11char_traitsIcEENS5_9allocatorIcEEEE (Address: 0x6b645f8444)
    - function: _ZN9grpc_core17HealthCheckClient9CallState6OrphanEv (Address: 0x6b64469634)
    - function: grpc_server_start (Address: 0x6b64452078)
    - variable: _ZTSN9grpc_core22XdsCertificateProviderE (Address: 0x6b64795000)
    - function: _ZN29grpc_access_token_credentialsC2EPKc (Address: 0x6b64540fc8)
    - function: _ZN9grpc_core6Server16DoneRequestEventEPvP18grpc_cq_completion (Address: 0x6b6444f71c)
    - function: _ZN9grpc_core17HealthCheckClient15StartCallLockedEv (Address: 0x6b64468ab0)
    - function: _ZN4absl12lts_202103246Status6NewRepENS0_10StatusCodeENS0_11string_viewENSt6__ndk110unique_ptrINS0_13InlinedVectorINS0_15status_internal7PayloadELm1ENS4_9allocatorIS8_EEEENS4_14default_deleteISB_EEEE (Address: 0x6b645c2914)
    - function: _ZNKSt8bad_cast4whatEv (Address: 0x6b64744bb8)
    - function: _ZNKSt6__ndk17num_getIcNS_19istreambuf_iteratorIcNS_11char_traitsIcEEEEE6do_getES4_S4_RNS_8ios_baseERjRe (Address: 0x6b64700264)
    - function: _Z54alts_iovec_record_protocol_privacy_integrity_unprotectP26alts_iovec_record_protocol5iovecPKS1_mS1_PPc (Address: 0x6b6457c244)
    - function: _ZN3re23DFAC1EPNS_4ProgENS1_9MatchKindEl (Address: 0x6b6459a23c)
    - function: _ZN9grpc_core12XdsBootstrap25ParseCertificateProvidersEPNS_4JsonE (Address: 0x6b64501fac)
    - function: _ZNKSt6__ndk114__codecvt_utf8IwE10do_unshiftER9mbstate_tPcS4_RS4_ (Address: 0x6b64728a40)
    - function: _ZN4absl12lts_2021032416numbers_internal17SixDigitsToBufferEdPc (Address: 0x6b645e8b64)
    - variable: _ZTS37grpc_oauth2_token_fetcher_credentials (Address: 0x6b6479d250)
    - variable: _ZN4absl12lts_2021032419str_format_internal28FormatConversionCharInternal1pE (Address: 0x6b647dae09)
    - function: _ZN4absl12lts_2021032411IsCancelledERKNS0_6StatusE (Address: 0x6b645c33d0)
    - variable: _ZTVN9grpc_core9XdsClient12ChannelState12LrsCallState8ReporterE (Address: 0x6b648f9578)
    - function: grpc_shutdown (Address: 0x6b6444ce54)
    - variable: grpc_static_mdelem_user_data (Address: 0x6b6491f1f8)
    - function: _ZN9grpc_core29UrlExternalAccountCredentials30OnRetrieveSubjectTokenInternalEP10grpc_error (Address: 0x6b64561870)
    - function: _ZN9grpc_core6Server8FailCallEmPNS0_13RequestedCallEP10grpc_error (Address: 0x6b6444f728)
    - function: _ZNSt6__ndk112system_errorC1EiRKNS_14error_categoryERKNS_12basic_stringIcNS_11char_traitsIcEENS_9allocatorIcEEEE (Address: 0x6b6473ed28)
    - function: _Z39gpr_global_config_get_grpc_dns_resolverv (Address: 0x6b64554124)
    - function: _ZN3re218CaptureNamesWalkerD2Ev (Address: 0x6b64590720)
    - function: _ZNSt6__ndk118__time_get_storageIwE9__analyzeEcRKNS_5ctypeIwEE (Address: 0x6b6472cfa8)
    - function: _ZN9grpc_core10Subchannel16HealthWatcherMap12NotifyLockedE23grpc_connectivity_stateRKN4absl12lts_202103246StatusE (Address: 0x6b6440dc30)
    - function: _ZN4absl12lts_2021032416strings_internal11BigUnsignedILi84EE10MultiplyByEj (Address: 0x6b645ef088)
    - function: _ZN9grpc_core8channelz12ChannelTrace10TraceEventC2ENS1_8SeverityERK10grpc_sliceNS_13RefCountedPtrINS0_8BaseNodeEEE (Address: 0x6b6441a098)
    - variable: _ZTVN9grpc_core8internal17RetryMethodConfigE (Address: 0x6b648f3048)
    - function: _ZN3re28Compiler8EndRangeEv (Address: 0x6b64596c34)
    - function: _ZN9grpc_core6Server34AllocatingRequestMatcherRegisteredD0Ev (Address: 0x6b64454dd8)
    - function: _ZN9grpc_core13RefCountedPtrINS_24CertificateProviderStoreEED2Ev (Address: 0x6b644e1a58)
    - function: _ZNSt6__ndk16__treeINS_12__value_typeINS_12basic_stringIcNS_11char_traitsIcEENS_9allocatorIcEEEEN32grpc_tls_certificate_distributor15CertificateInfoEEENS_19__map_value_compareIS7_SA_NS_4lessIS7_EELb1EEENS5_ISA_EEE12__find_equalIS7_EERPNS_16__tree_node_baseIPvEERPNS_15__tree_end_nodeISL_EERKT_ (Address: 0x6b645453c4)
    - function: _ZN3re26Regexp6WalkerINS_4FragEED0Ev (Address: 0x6b64598a2c)
    - function: _ZN9grpc_core6chttp217StreamFlowControlD2Ev (Address: 0x6b644d2024)
    - function: _ZN9grpc_core13RefCountedPtrINS_9XdsClient12ChannelState13RetryableCallINS2_12AdsCallStateEEEED2Ev (Address: 0x6b6450aa74)
    - function: _ZNSt6__ndk16__treeINS_12__value_typeINS_12basic_stringIcNS_11char_traitsIcEENS_9allocatorIcEEEEN9grpc_core6XdsApi15CdsResourceDataEEENS_19__map_value_compareIS7_SB_NS_4lessIS7_EELb1EEENS5_ISB_EEE7destroyEPNS_11__tree_nodeISB_PvEE (Address: 0x6b64500030)
    - function: _ZN4absl12lts_2021032413time_internal4cctz10TimeZoneIfD1Ev (Address: 0x6b645f9f60)
    - function: _Z36tsi_zero_copy_grpc_protector_protectP28tsi_zero_copy_grpc_protectorP17grpc_slice_bufferS2_ (Address: 0x6b6446589c)
    - function: _ZNSt6__ndk18ios_base7failureD2Ev (Address: 0x6b646fceb0)
    - variable: _ZTSN9grpc_core21SliceBufferByteStreamE (Address: 0x6b6477e3d0)
    - function: _ZN9grpc_core38LockedMultiProducerSingleConsumerQueue3PopEv (Address: 0x6b645b5a70)
    - function: _ZNSt6__ndk115basic_stringbufIcNS_11char_traitsIcEENS_9allocatorIcEEE9pbackfailEi (Address: 0x6b6458c314)
    - variable: envoy_config_core_v3_GrpcProtocolOptions_msginit (Address: 0x6b648fbd80)
    - function: _Z37grpc_cycle_counter_to_millis_round_upd (Address: 0x6b6442bd9c)
    - function: _ZNSt6__ndk16vectorIN4absl12lts_2021032413time_internal4cctz14TransitionTypeENS_9allocatorIS5_EEE7reserveEm (Address: 0x6b645fc6ec)
    - function: _ZN4absl12lts_2021032416strings_internal7memrchrEPKcim (Address: 0x6b645f03f0)
    - function: _ZNSt6__ndk16__treeINS_12__value_typeINS_12basic_stringIcNS_11char_traitsIcEENS_9allocatorIcEEEEN9grpc_core9XdsClient13ListenerStateEEENS_19__map_value_compareIS7_SB_NS_4lessIS7_EELb1EEENS5_ISB_EEE12__find_equalIS7_EERPNS_16__tree_node_baseIPvEERPNS_15__tree_end_nodeISM_EERKT_ (Address: 0x6b6451cad8)
    - function: _ZNSt16bad_array_lengthC2Ev (Address: 0x6b6474454c)
    - function: _ZN9grpc_core30FileExternalAccountCredentialsC1ENS_26ExternalAccountCredentials7OptionsENSt6__ndk16vectorINS3_12basic_stringIcNS3_11char_traitsIcEENS3_9allocatorIcEEEENS8_ISA_EEEEPP10grpc_error (Address: 0x6b6455f2c4)
    - function: _Z31grpc_fill_alpn_protocol_stringsPm (Address: 0x6b644386d4)
    - function: _ZN21grpc_alts_credentialsC1EPK29grpc_alts_credentials_optionsPKc (Address: 0x6b6455a7ac)
    - variable: envoy_extensions_filters_network_http_connection_manager_v3_HttpConnectionManager_InternalAddressConfig_msginit (Address: 0x6b648fcdd8)
    - function: _ZN9grpc_core8channelz18CallCountingHelper11CollectDataEPNS1_11CounterDataE (Address: 0x6b6441c780)
    - function: _ZNSt6__ndk117moneypunct_bynameIwLb1EE4initEPKc (Address: 0x6b64712a0c)
    - function: _ZN9grpc_core14XdsCredentialsD2Ev (Address: 0x6b6454b39c)
    - variable: _ZTS23grpc_plugin_credentials (Address: 0x6b6477aaa0)
    - function: _ZNKSt6__ndk110__function6__funcIPFP17grpc_channel_argsS3_PP10grpc_errorENS_9allocatorIS8_EES7_E7__cloneEPNS0_6__baseIS7_EE (Address: 0x6b64414850)
    - variable: _ZTI37grpc_oauth2_token_fetcher_credentials (Address: 0x6b648fa070)
    - function: gpr_cpu_current_cpu (Address: 0x6b645b1f40)
    - variable: _ZTINSt6__ndk115messages_bynameIwEE (Address: 0x6b64915260)
    - function: _ZNSt6__ndk120__shared_ptr_emplaceIN9grpc_core14WorkSerializerENS_9allocatorIS2_EEE16__on_zero_sharedEv (Address: 0x6b643f6d7c)
    - variable: _ZTSN9grpc_core13ClientChannel21ResolverResultHandlerE (Address: 0x6b64774500)
    - function: _ZN9grpc_core29FakeResolverResponseGenerator10SetFailureEv (Address: 0x6b644aad8c)
    - function: _ZNSt6__ndk1plIcNS_11char_traitsIcEENS_9allocatorIcEEEENS_12basic_stringIT_T0_T1_EEPKS6_RKS9_ (Address: 0x6b64575140)
    - variable: _ZNSt6__ndk114numeric_limitsIN4absl12lts_202103246int128EE5trapsE (Address: 0x6b647e06f4)
    - function: _ZN4absl12lts_2021032423inlined_vector_internal7StorageIN9grpc_core8channelz18CallCountingHelper17AtomicCounterDataELm1ENSt6__ndk19allocatorIS6_EEE7ReserveEm (Address: 0x6b64424a2c)
    - function: _ZNSt6__ndk18numpunctIcEC2Em (Address: 0x6b6472aa84)
    - variable: _ZTIN9grpc_core10RefCountedINS_26CertificateProviderFactory6ConfigENS_19PolymorphicRefCountELNS_13UnrefBehaviorE0EEE (Address: 0x6b648f9210)
    - function: upb_filedef_depcount (Address: 0x6b645b7df0)
    - function: _ZNSt6__ndk16vectorIN9grpc_core6XdsApi9LdsUpdate14FilterChainMap8SourceIpENS_9allocatorIS5_EEE21__push_back_slow_pathIS5_EEvOT_ (Address: 0x6b644ff02c)
    - function: _ZN4absl12lts_202103244CordC2INSt6__ndk112basic_stringIcNS3_11char_traitsIcEENS3_9allocatorIcEEEELi0EEEOT_ (Address: 0x6b645c40dc)
    - function: upb_fielddef_defaultfloat (Address: 0x6b645b7634)
    - variable: _ZTVNSt6__ndk110__function6__funcIN4absl12lts_2021032419functional_internal11FrontBinderIMN9grpc_core22XdsCertificateProviderEFvNS_12basic_stringIcNS_11char_traitsIcEENS_9allocatorIcEEEEbbEJPS7_EEENSB_ISH_EEFvSD_bbEEE (Address: 0x6b648f9428)
    - function: _ZNKSt6__ndk17codecvtIcc9mbstate_tE16do_always_noconvEv (Address: 0x6b64726ce0)
    - function: _ZN9grpc_core13ClientChannel8CallData27ResolverQueuedCallCanceller12CancelLockedEPvP10grpc_error (Address: 0x6b643f5ba0)
    - function: _ZNSt6__ndk113basic_ostreamIwNS_11char_traitsIwEEE5tellpEv (Address: 0x6b646fc5a0)
    - variable: grpc_http1_trace (Address: 0x6b64924c50)
    - variable: _ZTI32grpc_tls_certificate_distributor (Address: 0x6b648f9410)
    - function: _ZN9grpc_core8internal50alts_handshaker_client_get_send_buffer_for_testingEP22alts_handshaker_client (Address: 0x6b64578bdc)
    - function: upb_fielddef_ismap (Address: 0x6b645b772c)
    - function: grpc_call_error_to_string (Address: 0x6b64442ea8)
    - function: _ZNKSt6__ndk19money_putIcNS_19ostreambuf_iteratorIcNS_11char_traitsIcEEEEE6do_putES4_bRNS_8ios_baseEce (Address: 0x6b64717264)
    - function: _ZNSt6__ndk114__split_bufferIPN3re23NFA6ThreadERNS_9allocatorIS4_EEE9push_backEOS4_ (Address: 0x6b645a2868)
    - function: upb_inttable_compact2 (Address: 0x6b645be0dc)
    - function: _ZNSt6__ndk115basic_streambufIcNS_11char_traitsIcEEE5uflowEv (Address: 0x6b6458c2d4)
    - function: _ZN4absl12lts_2021032415IsAlreadyExistsERKNS0_6StatusE (Address: 0x6b645c33b0)
    - function: grpc_server_add_insecure_http2_port (Address: 0x6b644144d4)
    - function: _Z41grpc_chttp2_list_remove_stalled_by_streamP21grpc_chttp2_transportP18grpc_chttp2_stream (Address: 0x6b644dbb1c)
    - function: _ZNKSt6__ndk18time_getIcNS_19istreambuf_iteratorIcNS_11char_traitsIcEEEEE13__get_percentERS4_S4_RjRKNS_5ctypeIcEE (Address: 0x6b6470b65c)
    - variable: envoy_config_route_v3_HedgePolicy_msginit (Address: 0x6b648fc9c8)
    - variable: validate_EnumRules_msginit (Address: 0x6b648fe830)
    - variable: _ZTVNSt6__ndk114__shared_countE (Address: 0x6b64915468)
    - function: _ZN9grpc_core13ClientChannel17SubchannelWrapper30MaybeUpdateConnectedSubchannelENS_13RefCountedPtrINS_19ConnectedSubchannelEEE (Address: 0x6b643f5008)
    - variable: envoy_config_accesslog_v3_OrFilter_msginit (Address: 0x6b648fe170)
    - function: _ZNSt6__ndk114__split_bufferIPN3re23NFA6ThreadENS_9allocatorIS4_EEE10push_frontEOS4_ (Address: 0x6b645a2650)
    - function: inflateValidate (Address: 0x6b64583918)
    - function: _ZN9grpc_core13SplitHostPortEN4absl12lts_2021032411string_viewEPS2_S3_ (Address: 0x6b645b5444)
    - function: _ZN9grpc_core8channelz16ListenSocketNodeC1ENSt6__ndk112basic_stringIcNS2_11char_traitsIcEENS2_9allocatorIcEEEES8_ (Address: 0x6b64423e20)
    - function: _ZNK4absl12lts_2021032417BadStatusOrAccess4whatEv (Address: 0x6b645b19d0)
    - function: _ZN3re23RE2C2ERKNS_11StringPieceE (Address: 0x6b645879f8)
    - variable: envoy_service_discovery_v3_DiscoveryRequest_msginit (Address: 0x6b648fd1b0)
    - variable: _ZTVNSt6__ndk119__shared_weak_countE (Address: 0x6b649154a0)
    - function: _ZN9grpc_core15GlobalConfigEnv8GetValueEv (Address: 0x6b645b4d30)
    - function: _Z33grpc_chttp2_act_on_flowctl_actionRKN9grpc_core6chttp217FlowControlActionEP21grpc_chttp2_transportP18grpc_chttp2_stream (Address: 0x6b644c9140)
    - function: _ZN9grpc_core6chttp221StreamFlowControlBaseD2Ev (Address: 0x6b644d08a4)
    - function: gpr_time_from_minutes (Address: 0x6b645b3d6c)
    - function: _ZNK4absl12lts_2021032413time_internal4cctz9time_zone6lookupERKNS2_6detail10civil_timeINS4_10second_tagEEE (Address: 0x6b645f6f7c)
    - variable: _ZTINSt6__ndk17codecvtIcc9mbstate_tEE (Address: 0x6b64913f10)
    - function: _ZN9grpc_core6Server23RegisterCompletionQueueEP21grpc_completion_queue (Address: 0x6b6444f3d8)
    - function: _ZN9grpc_core6XdsApi20AssembleClientConfigERKNSt6__ndk13mapIN4absl12lts_2021032411string_viewENS0_20ResourceTypeMetadataENS1_4lessIS5_EENS1_9allocatorINS1_4pairIKS5_S6_EEEEEE (Address: 0x6b644f41a8)
    - variable: _ZTINSt6__ndk114basic_iostreamIcNS_11char_traitsIcEEEE (Address: 0x6b64912cc0)
    - variable: _ZTIN9grpc_core32InsecureChannelSecurityConnectorE (Address: 0x6b648fa570)
    - function: _ZNSt16bad_array_lengthD2Ev (Address: 0x6b647444e0)
    - function: _ZNSt6__ndk16locale7classicEv (Address: 0x6b6471c7e8)
    - variable: _ZTIN9grpc_core10RefCountedINS_14DynamicFiltersENS_19PolymorphicRefCountELNS_13UnrefBehaviorE0EEE (Address: 0x6b648f2920)
    - function: _ZNSt6__ndk124uniform_int_distributionImEclINS_23mersenne_twister_engineImLm32ELm624ELm397ELm31ELm2567483615ELm11ELm4294967295ELm7ELm2636928640ELm15ELm4022730752ELm18ELm1812433253EEEEEmRT_RKNS1_10param_typeE (Address: 0x6b644af370)
    - function: _ZN21grpc_alts_credentialsD2Ev (Address: 0x6b6455a820)
    - variable: grpc_resolve_address_impl (Address: 0x6b64924cf0)
    - variable: _ZTSN9grpc_core24CertificateProviderStore26CertificateProviderWrapperE (Address: 0x6b64792730)
    - function: grpc_register_plugin (Address: 0x6b6444c8dc)
    - function: _ZN9grpc_core6chttp225StreamFlowControlDisabledD0Ev (Address: 0x6b644d08a8)
    - function: _Z40grpc_channel_stack_builder_remove_filterP26grpc_channel_stack_builderPKc (Address: 0x6b64419ce0)
    - function: __cxa_current_primary_exception (Address: 0x6b647416d4)
    - function: _Z39grpc_lb_policy_weighted_target_shutdownv (Address: 0x6b64485280)
    - variable: _ZTVN10__cxxabiv129__pointer_to_member_type_infoE (Address: 0x6b64916328)
    - function: _ZNSt6__ndk119__shared_weak_count14__release_weakEv (Address: 0x6b64731018)
    - variable: _ZTSN9grpc_core26CertificateProviderFactory6ConfigE (Address: 0x6b64792a90)
    - variable: envoy_type_matcher_v3_ListMatcher_msginit (Address: 0x6b648fd4e8)
    - function: _Z8tcp_sendiPK6msghdri (Address: 0x6b645308d8)
    - function: _Z25grpc_deadline_filter_initv (Address: 0x6b64412fc0)
    - variable: _ZTSPKi (Address: 0x6b64807180)
    - function: _ZN9grpc_core8channelz10ServerNode17RemoveChildSocketEl (Address: 0x6b6441ee00)
    - function: _ZNKSt6__ndk117moneypunct_bynameIcLb0EE16do_negative_signEv (Address: 0x6b647117fc)
    - function: _ZN9grpc_core14SubchannelCall5UnrefEv (Address: 0x6b6440cfb4)
    - function: _ZNK4absl12lts_2021032411string_view17find_first_not_ofEcm (Address: 0x6b645ec1a8)
    - function: _ZN9grpc_core33FaultInjectionServiceConfigParserD0Ev (Address: 0x6b644be1a8)
    - function: _Z32gsec_aes_gcm_aead_crypter_createPKhmmmbPP17gsec_aead_crypterPPc (Address: 0x6b6457601c)
    - variable: __emutls_v._ZN9grpc_core26ApplicationCallbackExecCtx18callback_exec_ctx_E (Address: 0x6b6491f090)
    - function: _ZN4absl12lts_2021032413time_internal4cctz10TimeZoneIfD2Ev (Address: 0x6b645f9f60)
    - function: _ZN9grpc_core13ClientChannel16LoadBalancedCall33MaybeAddCallToLbQueuedCallsLockedEv (Address: 0x6b643f27a4)
    - variable: _ZTVN9grpc_core6Server11ChannelData19ConnectivityWatcherE (Address: 0x6b648f4658)
    - function: _Z41grpc_channel_stack_builder_prepend_filterP26grpc_channel_stack_builderPK19grpc_channel_filterPFvP18grpc_channel_stackP20grpc_channel_elementPvES8_ (Address: 0x6b64419db8)
    - function: grpc_slice_buffer_reset_and_unref (Address: 0x6b6443d7e0)
    - function: _ZNSt6__ndk112basic_stringIcNS_11char_traitsIcEENS_9allocatorIcEEEaSEc (Address: 0x6b64732b20)
    - function: _ZN3re216CharClassBuilder4CopyEv (Address: 0x6b645911dc)
    - variable: _ZTSN9grpc_core16HandshakeManagerE (Address: 0x6b64796c70)
    - function: grpc_compression_bitset_to_stream_bitset (Address: 0x6b64525a64)
    - variable: xds_core_v3_ResourceLocator_Directive_msginit (Address: 0x6b648fd758)
    - function: _Z33grpc_apply_socket_mutator_in_argsi13grpc_fd_usagePK17grpc_channel_args (Address: 0x6b6442d098)
    - variable: envoy_config_cluster_v3_Cluster_RefreshRate_msginit (Address: 0x6b648fb348)
    - function: _ZN4absl12lts_2021032416strings_internal11BigUnsignedILi4EE10MultiplyByEj (Address: 0x6b645ede1c)
    - function: _ZNKSt6__ndk120__time_get_c_storageIwE7__am_pmEv (Address: 0x6b6472be44)
    - function: _ZNK9grpc_core6Server18RealRequestMatcher19request_queue_countEv (Address: 0x6b64453a90)
    - function: _ZN4absl12lts_202103244Cord7PrependENS0_11string_viewE (Address: 0x6b645c4bc8)
    - variable: envoy_config_core_v3_RateLimitSettings_msginit (Address: 0x6b648fb870)
    - function: _ZN9grpc_core24Chttp2IncomingByteStreamC2EP21grpc_chttp2_transportP18grpc_chttp2_streamjj (Address: 0x6b644cc9a8)
    - function: _ZN4absl12lts_202103247CondVar4WaitEPNS0_5MutexE (Address: 0x6b645df554)
    - function: _ZNSt6__ndk16__treeINS_12__value_typeINS_4pairINS_12basic_stringIcNS_11char_traitsIcEENS_9allocatorIcEEEES8_EEN9grpc_core9XdsClient15LoadReportStateEEENS_19__map_value_compareIS9_SD_NS_4lessIS9_EELb1EEENS6_ISD_EEE13__lower_boundIS9_EENS_15__tree_iteratorISD_PNS_11__tree_nodeISD_PvEElEERKT_SP_PNS_15__tree_end_nodeIPNS_16__tree_node_baseISN_EEEE (Address: 0x6b645207d4)
    - function: zcalloc (Address: 0x6b645866cc)
    - function: _Z26grpc_tcp_client_prepare_fdPK17grpc_channel_argsPK21grpc_resolved_addressPS2_Pi (Address: 0x6b6452fb8c)
    - function: grpcsharp_channel_get_target (Address: 0x6b643e74c0)
    - variable: _ZNSt6__ndk18ios_base5truncE (Address: 0x6b64803b6c)
    - variable: _ZTIN9grpc_core20InternallyRefCountedINS_9XdsClient12ChannelState13RetryableCallINS2_12LrsCallStateEEEEE (Address: 0x6b648f9750)
    - function: _ZN9grpc_core26TlsServerSecurityConnector10check_peerE8tsi_peerP13grpc_endpointPNS_13RefCountedPtrI17grpc_auth_contextEEP12grpc_closure (Address: 0x6b645676cc)
    - function: _ZN9grpc_core8channelz10ServerNode23RemoveChildListenSocketEl (Address: 0x6b6441f004)
    - function: _ZN14TlsCredentialsD1Ev (Address: 0x6b64562e9c)
    - function: _ZNSt6__ndk112bad_weak_ptrD2Ev (Address: 0x6b64730ed4)
    - function: _ZNSt6__ndk110__function6__funcIZN9grpc_core13ClientChannel17SubchannelWrapper14WatcherWrapperD1EvEUlvE_NS_9allocatorIS6_EEFvvEE18destroy_deallocateEv (Address: 0x6b643f4ab4)
    - function: _ZN9grpc_core8channelz10ServerNode20AddChildListenSocketENS_13RefCountedPtrINS0_16ListenSocketNodeEEE (Address: 0x6b6441ee8c)
    - variable: _ZTSN9grpc_core33FaultInjectionServiceConfigParserE (Address: 0x6b6478aab0)
    - variable: envoy_config_bootstrap_v3_RuntimeLayer_DiskLayer_msginit (Address: 0x6b648fb000)
    - function: _ZNSt6__ndk113basic_istreamIcNS_11char_traitsIcEEE3getERc (Address: 0x6b646f4848)
    - function: _ZN43grpc_service_account_jwt_access_credentials11reset_cacheEv (Address: 0x6b6453db98)
    - variable: _ZNSt6__ndk18ios_base6eofbitE (Address: 0x6b64803b4c)
    - variable: envoy_config_accesslog_v3_ExtensionFilter_msginit (Address: 0x6b648fe208)
    - function: _ZN9grpc_core16HandshakeManagerC2Ev (Address: 0x6b64523c98)
    - function: _ZNK9grpc_core4JsoneqERKS0_ (Address: 0x6b644ba654)
    - function: _ZN3re24Prog14SearchBitStateERKNS_11StringPieceES3_NS0_6AnchorENS0_9MatchKindEPS1_i (Address: 0x6b64595460)
    - function: _ZNKSt6__ndk18time_getIwNS_19istreambuf_iteratorIwNS_11char_traitsIwEEEEE3getES4_S4_RNS_8ios_baseERjP2tmPKwSC_ (Address: 0x6b6470bc30)
    - function: upb_enum_iter_number (Address: 0x6b645b751c)
    - function: _ZNSt6__ndk16__treeIP17grpc_call_elementNS_4lessIS2_EENS_9allocatorIS2_EEE7destroyEPNS_11__tree_nodeIS2_PvEE (Address: 0x6b643f579c)
    - function: _ZN9grpc_core5Arena3NewINS_15ByteStreamCacheEJNSt6__ndk110unique_ptrINS_10ByteStreamENS_16OrphanableDeleteEEEEEEPT_DpOT0_ (Address: 0x6b64406024)
    - function: _ZNSt6__ndk17collateIcED0Ev (Address: 0x6b646fd250)
    - function: _ZN34grpc_composite_channel_credentials16update_argumentsEP17grpc_channel_args (Address: 0x6b644339b4)
    - variable: _ZTVN3re218CaptureNamesWalkerE (Address: 0x6b648ff2a8)
    - function: _ZN4absl12lts_2021032413base_internal13LowLevelAlloc14AllocWithArenaEmPNS2_5ArenaE (Address: 0x6b64771844)
    - function: _Z16gpr_murmur_hash3PKvmj (Address: 0x6b645b2564)
    - function: _ZNSt6__ndk19to_stringEy (Address: 0x6b6473cb00)
    - function: _ZNKSt6__ndk115__codecvt_utf16IwLb0EE9do_lengthER9mbstate_tPKcS5_m (Address: 0x6b64729210)
    - function: _ZN9grpc_core13StringMatcherC1ENSt6__ndk110unique_ptrIN3re23RE2ENS1_14default_deleteIS4_EEEE (Address: 0x6b6453841c)
    - function: _ZN4absl12lts_2021032419str_format_internal17FormatConvertImplEyNS1_24FormatConversionSpecImplEPNS1_14FormatSinkImplE (Address: 0x6b645d1510)
    - function: _Z40tsi_create_ssl_server_handshaker_factoryPK25tsi_ssl_pem_key_cert_pairmPKciS3_PS3_tPP33tsi_ssl_server_handshaker_factory (Address: 0x6b644633ec)
    - variable: grpc_lb_v1_Server_msginit (Address: 0x6b648f9070)
    - function: _ZNKSt6__ndk112ctype_bynameIwE10do_toupperEPwPKw (Address: 0x6b647269a4)
    - function: _ZNKSt6__ndk112ctype_bynameIwE10do_tolowerEw (Address: 0x6b647269f8)
    - function: _Z21gpr_cycle_counter_subdd (Address: 0x6b645b467c)
    - function: _Z25grpc_resource_user_createP19grpc_resource_quotaPKc (Address: 0x6b6452e268)
    - function: _ZNSt6__ndk112basic_stringIcNS_11char_traitsIcEENS_9allocatorIcEEE6insertENS_11__wrap_iterIPKcEEc (Address: 0x6b647336ec)
    - variable: _ZTSN9grpc_core23MessageSizeParsedConfigE (Address: 0x6b6478b7d0)
    - function: _ZN9grpc_core22XdsCertificateProvider14GetSanMatchersERKNSt6__ndk112basic_stringIcNS1_11char_traitsIcEENS1_9allocatorIcEEEE (Address: 0x6b64507208)
    - function: _ZNSt6__ndk115basic_streambufIwNS_11char_traitsIwEEE5pbumpEi (Address: 0x6b646f2b88)
    - function: _ZNKSt6__ndk18time_getIwNS_19istreambuf_iteratorIwNS_11char_traitsIwEEEEE13__get_weekdayERiRS4_S4_RjRKNS_5ctypeIwEE (Address: 0x6b6470d2cc)
    - function: _Z23probe_so_reuseport_oncev (Address: 0x6b6442ca5c)
    - function: _ZNK4absl12lts_2021032413time_internal4cctz12TimeZoneLibC14NextTransitionERKNSt6__ndk16chrono10time_pointINS5_12system_clockENS5_8durationIlNS4_5ratioILl1ELl1EEEEEEEPNS2_9time_zone16civil_transitionE (Address: 0x6b646002ec)
    - function: _ZN3re214ToStringWalker8PreVisitEPNS_6RegexpEiPb (Address: 0x6b645b0d10)
    - function: _ZNSt6__ndk114__num_put_base18__identify_paddingEPcS1_RKNS_8ios_baseE (Address: 0x6b64705ed8)
    - function: _upb_mapsorter_pushmap (Address: 0x6b645bc800)
    - function: _ZN9grpc_core9XdsClient12ChannelState12AdsCallState15SubscribeLockedERKNSt6__ndk112basic_stringIcNS3_11char_traitsIcEENS3_9allocatorIcEEEESB_ (Address: 0x6b645098c4)
    - function: _Z20grpc_endpoint_get_fdP13grpc_endpoint (Address: 0x6b6452ae9c)
    - function: _ZN9grpc_core12XdsBootstrapC1ENS_4JsonEPP10grpc_error (Address: 0x6b645010c4)
    - function: grpc_tracer_set_enabled (Address: 0x6b64429744)
    - function: _ZNSt6__ndk121recursive_timed_mutex8try_lockEv (Address: 0x6b647316e8)
    - function: _ZNSt6__ndk13mapINS_12basic_stringIcNS_11char_traitsIcEENS_9allocatorIcEEEEN9grpc_core30FileWatcherCertificateProvider11WatcherInfoENS_4lessIS6_EENS4_INS_4pairIKS6_S9_EEEEED2Ev (Address: 0x6b64547570)
    - function: _ZNSt6__ndk112__deque_baseIN3re23NFA6ThreadENS_9allocatorIS3_EEED2Ev (Address: 0x6b645a0794)
    - function: _ZN9grpc_core4Fork10GlobalInitEv (Address: 0x6b645b4868)
    - function: _ZN4absl12lts_2021032418ToInt64NanosecondsENS0_8DurationE (Address: 0x6b645e2c20)
    - function: _Z29grpc_init_static_metadata_ctxv (Address: 0x6b6445a760)
    - function: grpcsharp_metadata_credentials_create_from_plugin (Address: 0x6b643e852c)
    - function: _ZNKSt6__ndk17codecvtIDic9mbstate_tE10do_unshiftERS1_PcS4_RS4_ (Address: 0x6b647286cc)
    - function: _ZNK9grpc_core6XdsApi5Route8ToStringEv (Address: 0x6b644e4524)
    - function: _ZNKSt6__ndk118__time_get_storageIwE15__do_date_orderEv (Address: 0x6b6470f490)
    - function: _ZN9grpc_core9XdsClient12ChannelState12AdsCallState19OnRequestSentLockedEP10grpc_error (Address: 0x6b6450f27c)
    - function: _ZNK9grpc_core17XdsHttpFilterImpl17ModifyChannelArgsEP17grpc_channel_args (Address: 0x6b645233a8)
    - function: _ZNSt6__ndk114__split_bufferIPN3re29WalkStateIPNS1_6RegexpEEERNS_9allocatorIS6_EEE10push_frontERKS6_ (Address: 0x6b645b0a18)
    - function: _ZNSt12domain_errorD2Ev (Address: 0x6b64744780)
    - function: _ZNSt6__ndk118condition_variable15__do_timed_waitERNS_11unique_lockINS_5mutexEEENS_6chrono10time_pointINS5_12system_clockENS5_8durationIxNS_5ratioILl1ELl1000000000EEEEEEE (Address: 0x6b6473fa4c)
    - variable: _ZTSN9grpc_core19LoadBalancingPolicy6ConfigE (Address: 0x6b647820f0)
    - variable: grpc_chttp2_settings_parameters (Address: 0x6b648f8e10)
    - function: _ZNKSt6__ndk18time_getIwNS_19istreambuf_iteratorIwNS_11char_traitsIwEEEEE13__get_percentERS4_S4_RjRKNS_5ctypeIwEE (Address: 0x6b6470d36c)
    - variable: grpc_fd_trace (Address: 0x6b64921829)
    - function: _ZNKSt6__ndk117moneypunct_bynameIwLb1EE11do_groupingEv (Address: 0x6b64713410)
    - function: _ZN9grpc_core22XdsCertificateProvider23ClusterCertificateStateD1Ev (Address: 0x6b645056ac)
    - function: _Z23grpc_socket_mutator_refP19grpc_socket_mutator (Address: 0x6b6452f954)
    - function: _ZNK3re211StringPiece4copyEPcmm (Address: 0x6b64593e24)
    - function: _ZNKSt6__ndk120__codecvt_utf8_utf16IDsE5do_inER9mbstate_tPKcS5_RS5_PDsS7_RS7_ (Address: 0x6b6472a790)
    - function: _ZN9grpc_core20UnmanagedMemorySlice8HeapInitEm (Address: 0x6b6443bd24)
    - function: _ZN9grpc_core19ConnectedSubchannelD1Ev (Address: 0x6b6440c7b8)
    - function: _ZNSt6__ndk16vectorIiNS_9allocatorIiEEE21__push_back_slow_pathIRKiEEvOT_ (Address: 0x6b645adb58)
    - function: _ZN21grpc_chttp2_transportC1EPK17grpc_channel_argsP13grpc_endpointbP18grpc_resource_user (Address: 0x6b644c80ac)
    - function: grpc_slice_buffer_take_first (Address: 0x6b6443e4dc)
    - variable: _wyp (Address: 0x6b647d7ed0)
    - function: _Z37grpc_sockaddr_to_uri_unix_if_possiblePK21grpc_resolved_address (Address: 0x6b6442d7e4)
    - function: _ZNSt6__ndk117__assoc_sub_state10__sub_waitERNS_11unique_lockINS_5mutexEEE (Address: 0x6b64740634)
    - function: _Z37grpc_channel_stack_builder_get_targetP26grpc_channel_stack_builder (Address: 0x6b64419968)
    - variable: _ZTIPy (Address: 0x6b64915d90)
    - variable: envoy_config_route_v3_RouteAction_HashPolicy_ConnectionProperties_msginit (Address: 0x6b648fc818)
    - function: _ZN4absl12lts_2021032413cord_internal11CordRepRing11PrependSlowEPS2_PNS1_7CordRepE (Address: 0x6b645cd898)
    - function: _ZN9grpc_core24MovedStringSliceRefCount7DestroyEPv (Address: 0x6b6443cfb0)
    - function: _ZN3re26RegexpD1Ev (Address: 0x6b6458e520)
    - function: grpc_channelz_get_server_sockets (Address: 0x6b644274bc)
    - variable: _ZTSN3re219NamedCapturesWalkerE (Address: 0x6b647cc990)
    - variable: envoy_config_route_v3_HeaderMatcher_msginit (Address: 0x6b648fcc00)
    - function: _ZN4absl12lts_2021032410SimpleAtodENS0_11string_viewEPd (Address: 0x6b645e851c)
    - function: _ZNSt6__ndk15mutexD1Ev (Address: 0x6b647311c0)
    - function: _ZNSt6__ndk112basic_stringIcNS_11char_traitsIcEENS_9allocatorIcEEE6insertEmPKcm (Address: 0x6b645e8100)
    - function: _ZNKSt6__ndk120__codecvt_utf8_utf16IwE5do_inER9mbstate_tPKcS5_RS5_PwS7_RS7_ (Address: 0x6b6472a30c)
    - variable: _ZTIN9grpc_core10RefCountedINS_17GrpcLbClientStatsENS_19PolymorphicRefCountELNS_13UnrefBehaviorE0EEE (Address: 0x6b648f53b0)
    - function: _Z26grpc_resolver_xds_shutdownv (Address: 0x6b644b10f4)
    - function: _ZN9grpc_core8channelz11ChannelNode39GetChannelConnectivityStateChangeStringE23grpc_connectivity_state (Address: 0x6b6441d100)
    - function: _ZN9grpc_core10Subchannel26MaybeStartConnectingLockedEv (Address: 0x6b6440fc60)
    - function: grpcsharp_call_start_serverside (Address: 0x6b643e8100)
    - function: _Z22grpc_init_epoll1_linuxb (Address: 0x6b6456a478)
    - function: _ZTv0_n24_NSt6__ndk113basic_istreamIwNS_11char_traitsIwEEED1Ev (Address: 0x6b646f5cc8)
    - function: _ZNSt6__ndk114__split_bufferIPPN9grpc_core6Server8CallDataERNS_9allocatorIS5_EEE9push_backEOS5_ (Address: 0x6b644548a4)
    - function: _Z30grpc_set_iomgr_platform_vtableP26grpc_iomgr_platform_vtable (Address: 0x6b6452c9cc)
    - function: _ZN9grpc_core13RefCountedPtrI21grpc_call_credentialsED2Ev (Address: 0x6b64431a60)
    - function: _ZN3re23DFAC2EPNS_4ProgENS1_9MatchKindEl (Address: 0x6b6459a23c)
    - function: inflateGetHeader (Address: 0x6b64583374)
    - function: _Z34grpc_test_only_set_slice_hash_seedj (Address: 0x6b6443f55c)
    - function: _ZN4absl12lts_2021032413time_internal4cctz12TimeZoneInfo17ExtendTransitionsEv (Address: 0x6b645fb16c)
    - function: _ZNK4absl12lts_2021032416strings_internal11BigUnsignedILi4EE5wordsEv (Address: 0x6b645ee4d8)
    - function: _ZNKSt6__ndk17num_putIwNS_19ostreambuf_iteratorIwNS_11char_traitsIwEEEEE6do_putES4_RNS_8ios_baseEwe (Address: 0x6b6470985c)
    - function: _ZN3re23RE23Arg18parse_ushort_radixEPKcmPvi (Address: 0x6b6458ad9c)
    - function: _ZN9grpc_core24CertificateProviderStoreD0Ev (Address: 0x6b6451fc8c)
    - function: _ZNKSt6__ndk17num_getIwNS_19istreambuf_iteratorIwNS_11char_traitsIwEEEEE6do_getES4_S4_RNS_8ios_baseERjRf (Address: 0x6b64703534)
    - function: upb_fielddef_lazy (Address: 0x6b645b7570)
    - variable: _ZTSNSt6__ndk113basic_istreamIwNS_11char_traitsIwEEEE (Address: 0x6b64803c90)
    - variable: _ZN4absl12lts_2021032419str_format_internal31FormatConversionCharSetInternal1uE (Address: 0x6b647dae38)
    - function: _ZN9grpc_core12XdsBootstrap22ParseChannelCredsArrayEPNS_4JsonEPNS0_9XdsServerE (Address: 0x6b645028b4)
    - function: _ZN3re213CycleFoldRuneEi (Address: 0x6b645a424c)
    - function: _ZN4absl12lts_2021032413base_internal10AtomicHookIPFvPKcPKvlEE13DummyFunctionES4_S6_l (Address: 0x6b645df944)
    - variable: _ZTIN9grpc_core10RefCountedINS_19XdsClusterDropStatsENS_19PolymorphicRefCountELNS_13UnrefBehaviorE0EEE (Address: 0x6b648f9930)
    - function: _Z32grpc_auth_refresh_token_destructP23grpc_auth_refresh_token (Address: 0x6b6453eca8)
    - function: _Z40grpc_message_compression_encoding_mdelem34grpc_message_compression_algorithm (Address: 0x6b645259d4)
    - function: _ZN9grpc_core6Server11ChannelData19ConnectivityWatcher25OnConnectivityStateChangeE23grpc_connectivity_stateRKN4absl12lts_202103246StatusE (Address: 0x6b64455ddc)
    - function: _ZNSt6__ndk16__treeINS_12__value_typeIN4absl12lts_2021032411string_viewEPKN9grpc_core6XdsApi16ResourceMetadataEEENS_19__map_value_compareIS4_SA_NS_4lessIS4_EELb1EEENS_9allocatorISA_EEE7destroyEPNS_11__tree_nodeISA_PvEE (Address: 0x6b6451c9ac)
    - variable: _ZTINSt6__ndk111__money_getIcEE (Address: 0x6b64915068)
    - variable: google_protobuf_Int64Value_msginit (Address: 0x6b649021b8)
    - variable: _ZN3re211perl_groupsE (Address: 0x6b648ff498)
    - function: _ZNSt6__ndk112ctype_bynameIcEC2EPKcm (Address: 0x6b64725d98)
    - function: _Z32grpc_stats_inc_call_initial_sizei (Address: 0x6b64527c88)
    - function: _ZNSt6__ndk19basic_iosIwNS_11char_traitsIwEEED1Ev (Address: 0x6b646f1cf8)
    - function: _Z24grpc_set_socket_zerocopyi (Address: 0x6b6442c35c)
    - variable: _ZTSN9grpc_core20InternallyRefCountedINS_19SubchannelConnectorEEE (Address: 0x6b6478bb40)
    - variable: envoy_config_cluster_v3_circuit_breaker_proto_upbdefinit (Address: 0x6b64921b08)
    - function: _ZN9grpc_core10Subchannel33ConnectivityStateWatcherInterfaceD2Ev (Address: 0x6b643f4860)
    - variable: _ZTSDs (Address: 0x6b64807218)
    - variable: _ZTVN9grpc_core6ServerE (Address: 0x6b648f4428)
    - function: _ZN9grpc_core19XdsClusterDropStats21AddUncategorizedDropsEv (Address: 0x6b64521be0)
    - function: _ZN9grpc_core27TlsChannelSecurityConnector15add_handshakersEPK17grpc_channel_argsP16grpc_pollset_setPNS_16HandshakeManagerE (Address: 0x6b6456595c)
    - function: _ZN4absl12lts_2021032413StrReplaceAllENS0_11string_viewESt16initializer_listINSt6__ndk14pairIS1_S1_EEE (Address: 0x6b645eafe0)
    - function: _ZN4absl12lts_202103249IsAbortedERKNS0_6StatusE (Address: 0x6b645c3390)
    - function: grpc_channel_check_connectivity_state (Address: 0x6b643e8954)
    - function: _ZNKSt6__ndk115__codecvt_utf16IDiLb1EE13do_max_lengthEv (Address: 0x6b64729fe8)
    - function: _ZNSt6__ndk13mapIPN9grpc_core19SubchannelInterface33ConnectivityStateWatcherInterfaceEPNS1_13ClientChannel17SubchannelWrapper14WatcherWrapperENS_4lessIS4_EENS_9allocatorINS_4pairIKS4_S8_EEEEED2Ev (Address: 0x6b643f82d4)
    - function: _ZNSt6__ndk16__treeINS_12__value_typeIPN9grpc_core15XdsLocalityNameENS2_6XdsApi9EdsUpdate8Priority8LocalityEEENS_19__map_value_compareIS4_S9_NS3_4LessELb1EEENS_9allocatorIS9_EEE7destroyEPNS_11__tree_nodeIS9_PvEE (Address: 0x6b6449cd24)
    - function: _ZN9grpc_core10Subchannel33ConnectivityStateWatcherInterface27PushConnectivityStateChangeENS1_23ConnectivityStateChangeE (Address: 0x6b6440de58)
    - variable: _ZTINSt6__ndk115numpunct_bynameIwEE (Address: 0x6b64914a10)
    - function: _ZN9grpc_core6Server16RegisteredMethodC2EPKcS3_44grpc_server_register_method_payload_handlingj (Address: 0x6b644555b0)
    - function: _ZN3re23DFA6SearchERKNS_11StringPieceES3_bbbPbPPKcPNS_10SparseSetTIvEE (Address: 0x6b6459cdd0)
    - function: _ZNSt6__ndk110__function6__funcIPFP17grpc_channel_argsS3_PP10grpc_errorENS_9allocatorIS8_EES7_ED0Ev (Address: 0x6b64414810)
    - function: _Z22grpc_resolver_xds_initv (Address: 0x6b644b1054)
    - function: _Z38grpc_stream_compression_context_create30grpc_stream_compression_method (Address: 0x6b645266b4)
    - variable: _ZN4absl12lts_2021032419str_format_internal31FormatConversionCharSetInternal1pE (Address: 0x6b647dae98)
    - variable: _ZTSNSt6__ndk18numpunctIwEE (Address: 0x6b64805200)
    - variable: _ZTSPKm (Address: 0x6b648071a4)
    - function: _Z31grpc_endpoint_get_resource_userP13grpc_endpoint (Address: 0x6b6452aea8)
    - variable: _ZNSt6__ndk18ios_base6skipwsE (Address: 0x6b64803b30)
    - variable: _ZTI11ExecCtxNext (Address: 0x6b648f42f0)
    - variable: envoy_config_accesslog_v3_DurationFilter_msginit (Address: 0x6b648fe110)
    - function: _ZNSt6__ndk113basic_ostreamIcNS_11char_traitsIcEEElsEPNS_15basic_streambufIcS2_EE (Address: 0x6b646f9ce8)
    - function: _ZN4absl12lts_2021032423inlined_vector_internal7StorageI8grpc_argLm3ENSt6__ndk19allocatorIS3_EEE10InitializeINS1_20IteratorValueAdapterIS6_PKS3_EEEEvT_m (Address: 0x6b643f7cbc)
    - function: _ZN9grpc_core30ParseJsonObjectFieldAsDurationINSt6__ndk16vectorIP10grpc_errorNS1_9allocatorIS4_EEEEEEbRKNS1_3mapINS1_12basic_stringIcNS1_11char_traitsIcEENS5_IcEEEENS_4JsonENS1_4lessISD_EENS5_INS1_4pairIKSD_SE_EEEEEERSI_PlPT_b (Address: 0x6b64400a78)
    - function: _ZN4absl12lts_2021032413base_internal21ThrowStdOverflowErrorERKNSt6__ndk112basic_stringIcNS2_11char_traitsIcEENS2_9allocatorIcEEEE (Address: 0x6b645f0b4c)
    - function: _ZN4absl12lts_2021032413time_internal4cctz12TimeZoneInfoD2Ev (Address: 0x6b645fe838)
    - variable: _ZZN4absl12lts_2021032413base_internal12CallOnceImplIRPFvvEJEEEvPNSt6__ndk16atomicIjEENS1_14SchedulingModeEOT_DpOT0_E5trans (Address: 0x6b647d6f98)
    - function: _Z24grpc_sockaddr_get_familyPK21grpc_resolved_address (Address: 0x6b64416c3c)
    - function: _Z35grpc_event_engine_run_in_backgroundv (Address: 0x6b64559e4c)
    - function: _ZN9grpc_core9XdsClient12ChannelState12LrsCallState18OnResponseReceivedEPvP10grpc_error (Address: 0x6b6451227c)
    - variable: _ZTIN9grpc_core15ByteStreamCache17CachingByteStreamE (Address: 0x6b648f4750)
    - variable: _ZTVNSt6__ndk112ctype_bynameIcEE (Address: 0x6b64913b10)
    - function: _Z44grpc_lb_policy_xds_cluster_resolver_shutdownv (Address: 0x6b64499478)
    - function: grpc_completion_queue_thread_local_cache_flush (Address: 0x6b6444906c)
    - variable: google_protobuf_ListValue_msginit (Address: 0x6b64902158)
    - function: _ZN3re26Regexp6WalkerINS_4FragEE5ResetEv (Address: 0x6b64598a48)
    - function: _ZN9grpc_core8Resolver6ResultC2EOS1_ (Address: 0x6b643fe3f8)
    - function: _Z26grpc_http_response_destroyP18grpc_http_response (Address: 0x6b645298b0)
    - function: _ZN31grpc_channel_security_connectorD0Ev (Address: 0x6b644367a4)
    - variable: _ZTSN9grpc_core20InternallyRefCountedINS_33ConnectivityStateWatcherInterfaceEEE (Address: 0x6b64773ab0)
    - variable: _ZTSN9grpc_core23XdsClusterLocalityStatsE (Address: 0x6b64796780)
    - function: _ZNSt6__ndk16vectorIN9grpc_core13StringMatcherENS_9allocatorIS2_EEE21__push_back_slow_pathIS2_EEvOT_ (Address: 0x6b644fddf0)
    - function: _ZNKSt6__ndk110moneypunctIwLb0EE16do_decimal_pointEv (Address: 0x6b64711014)
    - variable: _ZTIw (Address: 0x6b64915a10)
    - function: upb_fielddef_layout (Address: 0x6b645b76b4)
    - variable: _ZTVN9grpc_core9XdsClient12ChannelState12AdsCallState13ResourceStateE (Address: 0x6b648f97e8)
    - variable: _ZTSN9grpc_core10RefCountedI32grpc_tls_certificate_distributorNS_19PolymorphicRefCountELNS_13UnrefBehaviorE0EEE (Address: 0x6b64795130)
    - variable: _ZTVNSt6__ndk115basic_streambufIcNS_11char_traitsIcEEEE (Address: 0x6b648ff0a8)
    - variable: _ZTVNSt6__ndk110__function6__funcIZN9grpc_core13ClientChannel24ConnectivityWatcherAdderC1EPS3_23grpc_connectivity_stateNS_10unique_ptrINS2_38AsyncConnectivityStateWatcherInterfaceENS2_16OrphanableDeleteEEEEUlvE_NS_9allocatorISB_EEFvvEEE (Address: 0x6b648f2418)
    - function: _ZNKSt6__ndk117moneypunct_bynameIcLb1EE16do_negative_signEv (Address: 0x6b64711e04)
    - function: _ZN9grpc_core8Executor19SetThreadingDefaultEb (Address: 0x6b6452c118)
    - function: _ZN4absl12lts_202103249ParseTimeENS0_11string_viewES1_NS0_8TimeZoneEPNS0_4TimeEPNSt6__ndk112basic_stringIcNS5_11char_traitsIcEENS5_9allocatorIcEEEE (Address: 0x6b645e438c)
    - function: _ZN4absl12lts_2021032423inlined_vector_internal7StorageINSt6__ndk110unique_ptrIN9grpc_core26LoadBalancingPolicyFactoryENS3_14default_deleteIS6_EEEELm10ENS3_9allocatorIS9_EEE15DestroyContentsEv (Address: 0x6b643fcfe8)
    - function: _ZN9grpc_core12XdsBootstrap9ParseNodeEPNS_4JsonE (Address: 0x6b64501a20)
    - function: _ZN9grpc_core13InternedSliceC1EPNS_21InternedSliceRefcountE (Address: 0x6b6443eb98)
    - function: _ZNK9grpc_core13ClientChannel16LoadBalancedCall8Metadata18IteratorHandleNextEl (Address: 0x6b643f61e4)
    - function: upb_fielddef_checkintfmt (Address: 0x6b645b7808)
    - function: _ZNSt6__ndk113random_deviceC1ERKNS_12basic_stringIcNS_11char_traitsIcEENS_9allocatorIcEEEE (Address: 0x6b6473194c)
    - function: _ZN9grpc_core23CallCombinerClosureList11RunClosuresEPNS_12CallCombinerE (Address: 0x6b643f0948)
    - function: _ZN3re23RE23Arg10parse_charEPKcmPv (Address: 0x6b6458a9d4)
    - function: _Z27tsi_ssl_session_cache_unrefP21tsi_ssl_session_cache (Address: 0x6b644623b8)
    - function: _ZN9grpc_core10Subchannel31ConnectedSubchannelStateWatcher25OnConnectivityStateChangeE23grpc_connectivity_stateRKN4absl12lts_202103246StatusE (Address: 0x6b64412664)
    - function: _ZN4absl12lts_2021032423inlined_vector_internal7StorageIN9grpc_core14PemKeyCertPairELm1ENSt6__ndk19allocatorIS4_EEED2Ev (Address: 0x6b645452c8)
    - variable: _ZTVNSt6__ndk110__function6__funcIZN9grpc_core38AsyncConnectivityStateWatcherInterface8NotifierC1ENS2_13RefCountedPtrIS3_EE23grpc_connectivity_stateRKN4absl12lts_202103246StatusERKNS_10shared_ptrINS2_14WorkSerializerEEEEUlvE_NS_9allocatorISI_EEFvvEEE (Address: 0x6b648f4818)
    - variable: _ZTS39grpc_google_default_channel_credentials (Address: 0x6b6479c690)
    - function: _ZNSt6__ndk113shared_futureIvED2Ev (Address: 0x6b647410b0)
    - function: _ZN9grpc_core15ByteStreamCache17CachingByteStreamD0Ev (Address: 0x6b644564c0)
    - function: _Z25grpc_mdelem_get_user_data11grpc_mdelemPFvPvE (Address: 0x6b64458d84)
    - function: _ZNSt6__ndk112system_error6__initERKNS_10error_codeENS_12basic_stringIcNS_11char_traitsIcEENS_9allocatorIcEEEE (Address: 0x6b6473e82c)
    - function: _ZN23grpc_plugin_credentialsC1E32grpc_metadata_credentials_plugin19grpc_security_level (Address: 0x6b644354d8)
    - function: grpc_channel_destroy (Address: 0x6b64448048)
    - function: _ZN9grpc_core20ParseJsonObjectFieldIPKNSt6__ndk16vectorINS_4JsonENS1_9allocatorIS3_EEEENS2_IP10grpc_errorNS4_ISA_EEEEEEbRKNS1_3mapINS1_12basic_stringIcNS1_11char_traitsIcEENS4_IcEEEES3_NS1_4lessISI_EENS4_INS1_4pairIKSI_S3_EEEEEERSM_PT_PT0_b (Address: 0x6b644bde70)
    - function: upb_enum_begin (Address: 0x6b645b742c)
    - function: _upb_arena_slowmalloc (Address: 0x6b645c00e8)
    - function: _Z31grpc_polling_entity_pollset_setP19grpc_polling_entity (Address: 0x6b6442c158)
    - function: _ZN9grpc_core21SliceBufferByteStream6OrphanEv (Address: 0x6b64456268)
    - function: _ZNSt6__ndk18numpunctIcED1Ev (Address: 0x6b6472aad8)
    - function: grpc_tls_certificate_provider_release (Address: 0x6b6454899c)
    - function: _ZN3re212RegexpStatus8CodeTextENS_16RegexpStatusCodeE (Address: 0x6b6458fff8)
    - variable: envoy_config_bootstrap_v3_Watchdog_msginit (Address: 0x6b648faf50)
    - function: grpc_slice_buffer_trim_end (Address: 0x6b6443e5a0)
    - variable: _ZTS23grpc_security_connector (Address: 0x6b6477b000)
    - function: _ZNSt6__ndk16__treeINS_12__value_typeINS_12basic_stringIcNS_11char_traitsIcEENS_9allocatorIcEEEEN9grpc_core17XdsHttpFilterImpl12FilterConfigEEENS_19__map_value_compareIS7_SB_NS_4lessIS7_EELb1EEENS5_ISB_EEE15__emplace_multiIJRKNS_4pairIKS7_SA_EEEEENS_15__tree_iteratorISB_PNS_11__tree_nodeISB_PvEElEEDpOT_ (Address: 0x6b644b95d0)
    - function: _ZN9grpc_core8channelz12ChannelTraceD2Ev (Address: 0x6b6441a3b4)
    - variable: _ZTIDi (Address: 0x6b64916050)
    - variable: _ZTVNSt6__ndk19basic_iosIwNS_11char_traitsIwEEEE (Address: 0x6b649127a0)
    - function: _Z29grpc_chttp2_num_alpn_versionsv (Address: 0x6b644c3b74)
    - function: _ZN4absl12lts_2021032416numbers_internal17safe_strto64_baseENS0_11string_viewEPli (Address: 0x6b645e952c)
    - function: gpr_event_set (Address: 0x6b645b3528)
    - function: _ZNSt6__ndk112ctype_bynameIwEC2ERKNS_12basic_stringIcNS_11char_traitsIcEENS_9allocatorIcEEEEm (Address: 0x6b6472632c)
    - variable: _ZTSNSt6__ndk111__money_putIwEE (Address: 0x6b64806380)
    - function: _ZN4absl12lts_2021032413base_internal10AtomicHookIPFbNS0_11LogSeverityEPKciPPcPiEE13DummyFunctionES3_S5_iS7_S8_ (Address: 0x6b64601068)
    - function: _ZN4absl12lts_202103245Mutex5AwaitERKNS0_9ConditionE (Address: 0x6b645dc9e8)
    - variable: _ZTIPKDh (Address: 0x6b64915ea0)
    - function: _ZN9grpc_core14WorkSerializer3RunENSt6__ndk18functionIFvvEEERKNS_13DebugLocationE (Address: 0x6b6442dc18)
    - function: _ZN9grpc_core17HealthCheckClient9CallState25AfterCallStackDestructionEPvP10grpc_error (Address: 0x6b644697c8)
    - function: _Z30grpc_deadline_checking_enabledPK17grpc_channel_args (Address: 0x6b64412f80)
    - function: deflate (Address: 0x6b6457e054)
    - function: _ZNK4absl12lts_2021032413cord_internal11CordRepRing7ForEachIZNS2_4FillILb1EEEvPKS2_jjEUljE_EEvjjOT_ (Address: 0x6b645cee50)
    - function: _ZNSt6__ndk16__treeINS_12__value_typeINS_12basic_stringIcNS_11char_traitsIcEENS_9allocatorIcEEEEN9grpc_core4JsonEEENS_19__map_value_compareIS7_SA_NS_4lessIS7_EELb1EEENS5_ISA_EEE12__find_equalIS7_EERPNS_16__tree_node_baseIPvEERPNS_15__tree_end_nodeISL_EERKT_ (Address: 0x6b643f3274)
    - variable: google_protobuf_struct_proto_upbdefinit (Address: 0x6b649213e8)
    - function: _ZNKSt6__ndk16__treeINS_12basic_stringIcNS_11char_traitsIcEENS_9allocatorIcEEEENS_4lessIS6_EENS4_IS6_EEE4findIS6_EENS_21__tree_const_iteratorIS6_PNS_11__tree_nodeIS6_PvEElEERKT_ (Address: 0x6b64504bcc)
    - function: _Z49grpc_chttp2_maybe_complete_recv_trailing_metadataP21grpc_chttp2_transportP18grpc_chttp2_stream (Address: 0x6b644cb254)
    - variable: envoy_config_bootstrap_v3_Watchdog_WatchdogAction_msginit (Address: 0x6b648faf70)
    - variable: _ZTIN9grpc_core13ClientChannel16LoadBalancedCall11LbCallStateE (Address: 0x6b648f25e0)
    - function: _ZNSt6__ndk16__treeINS_12__value_typeIP12grpc_closureN9grpc_core13RefCountedPtrINS4_13ClientChannel27ExternalConnectivityWatcherEEEEENS_19__map_value_compareIS3_S9_NS_4lessIS3_EELb1EEENS_9allocatorIS9_EEE7destroyEPNS_11__tree_nodeIS9_PvEE (Address: 0x6b643f2b80)
    - variable: _ZNSt6__ndk18ios_base9uppercaseE (Address: 0x6b64803b38)
    - variable: _ZTV23grpc_plugin_credentials (Address: 0x6b648f3b30)
    - variable: _ZTIN9grpc_core20InternallyRefCountedINS_6ServerEEE (Address: 0x6b648f4470)
    - function: _ZNSt6__ndk16__treeINS_12__value_typeIPN9grpc_core10SubchannelEiEENS_19__map_value_compareIS4_S5_NS_4lessIS4_EELb1EEENS_9allocatorIS5_EEE7destroyEPNS_11__tree_nodeIS5_PvEE (Address: 0x6b643f2cf8)
    - function: grpc_server_request_call (Address: 0x6b64452950)
    - variable: _ZTVN9grpc_core14DynamicFiltersE (Address: 0x6b648f28e0)
    - function: _Z40grpc_channel_stack_builder_append_filterP26grpc_channel_stack_builderPK19grpc_channel_filterPFvP18grpc_channel_stackP20grpc_channel_elementPvES8_ (Address: 0x6b64419bf4)
    - function: _ZN3re216CharClassBuilder10FoldsASCIIEv (Address: 0x6b645911c8)
    - function: gpr_cpu_num_cores (Address: 0x6b645b1eb8)
    - variable: _ZTI37grpc_google_refresh_token_credentials (Address: 0x6b648fa090)
    - function: _ZNSt6__ndk115basic_streambufIwNS_11char_traitsIwEEE5sgetnEPwl (Address: 0x6b646f28d4)
    - function: _Z39grpc_certificate_provider_registry_initv (Address: 0x6b644e122c)
    - function: upb_fielddef_file (Address: 0x6b645b75cc)
    - function: _ZN9grpc_core8channelz16ChannelzRegistry18InternalGetServersEl (Address: 0x6b64425d1c)
    - function: _Z32grpc_error_has_clear_grpc_statusP10grpc_error (Address: 0x6b64457a0c)
    - function: _ZNKSt6__ndk115__codecvt_utf16IDiLb0EE13do_max_lengthEv (Address: 0x6b64729cf0)
    - function: _ZN4absl12lts_2021032423inlined_vector_internal7StorageINS0_11string_viewELm1ENSt6__ndk19allocatorIS3_EEE15EmplaceBackSlowIJRKS3_EEERS3_DpOT_ (Address: 0x6b6445a4b4)
    - function: _ZNSt6__ndk113basic_istreamIwNS_11char_traitsIwEEED0Ev (Address: 0x6b646f5cdc)
    - function: _ZNKSt6__ndk115__codecvt_utf16IDsLb0EE13do_max_lengthEv (Address: 0x6b647297ec)
    - function: _ZNSt13runtime_errorD2Ev (Address: 0x6b64744838)
    - function: _ZNSt6__ndk120__shared_ptr_emplaceIN9grpc_core14WorkSerializerENS_9allocatorIS2_EEED2Ev (Address: 0x6b643f6d0c)
    - function: _ZN4absl12lts_2021032420InvalidArgumentErrorENS0_11string_viewE (Address: 0x6b645c3294)
    - variable: _ZNSt6__ndk16locale8monetaryE (Address: 0x6b648044d4)
    - function: _Z24grpc_socket_mutator_initP19grpc_socket_mutatorPK26grpc_socket_mutator_vtable (Address: 0x6b6452f944)
    - function: grpc_is_binary_header (Address: 0x6b64456124)
    - function: _ZN9grpc_core19XdsClusterDropStatsD0Ev (Address: 0x6b64521af8)
    - variable: ua_parser (Address: 0x6b64924a58)
    - function: _ZN9grpc_core13ServiceConfig6CreateEPK17grpc_channel_argsN4absl12lts_2021032411string_viewEPP10grpc_error (Address: 0x6b64409768)
    - function: _ZNK9grpc_core24CertificateProviderStore26CertificateProviderWrapper11distributorEv (Address: 0x6b644e1ea8)
    - function: _ZNKSt6__ndk18time_getIcNS_19istreambuf_iteratorIcNS_11char_traitsIcEEEEE11__get_monthERiRS4_S4_RjRKNS_5ctypeIcEE (Address: 0x6b6470b204)
    - function: _ZNSt6__ndk16__treeINS_12__value_typeIN4absl12lts_2021032411string_viewEPN9grpc_core17XdsHttpFilterImplEEENS_19__map_value_compareIS4_S8_NS_4lessIS4_EELb1EEENS_9allocatorIS8_EEE4findIS4_EENS_15__tree_iteratorIS8_PNS_11__tree_nodeIS8_PvEElEERKT_ (Address: 0x6b64522fd8)
    - variable: envoy_type_matcher_v3_RegexMatcher_GoogleRE2_msginit (Address: 0x6b648fd3f0)
    - function: _ZN9grpc_core9XdsClient12ChannelState12StateWatcher25OnConnectivityStateChangeE23grpc_connectivity_stateRKN4absl12lts_202103246StatusE (Address: 0x6b64519590)
    - function: _ZNKSt6__ndk114collate_bynameIcE10do_compareEPKcS3_S3_S3_ (Address: 0x6b64724998)
    - function: _ZN9grpc_core29StaticDataCertificateProviderD2Ev (Address: 0x6b64546318)
    - function: _ZN4absl12lts_202103247uint128C2Ee (Address: 0x6b645f1de8)
    - variable: _ZTIN9grpc_core19SubchannelConnectorE (Address: 0x6b648f8650)
    - function: _ZNSt6__ndk112__hash_tableINS_17__hash_value_typeIPN3re23DFA5StateEiEENS_22__unordered_map_hasherIS5_S6_NS_4hashIS5_EELb1EEENS_21__unordered_map_equalIS5_S6_NS_8equal_toIS5_EELb1EEENS_9allocatorIS6_EEE8__rehashEm (Address: 0x6b6459f550)
    - variable: _ZTSN9grpc_core14DynamicFiltersE (Address: 0x6b64774690)
    - function: _ZNSt6__ndk112basic_stringIwNS_11char_traitsIwEENS_9allocatorIwEEE6__initEmw (Address: 0x6b647361d0)
    - function: _Z15grpc_avl_createPK15grpc_avl_vtable (Address: 0x6b64416fa8)
    - function: _ZNSt6__ndk113basic_istreamIcNS_11char_traitsIcEEE3getEPcl (Address: 0x6b646f487c)
    - function: sk_GENERAL_NAME_call_free_func (Address: 0x6b64463fe8)
    - function: _ZN9grpc_core13ClientChannel16LoadBalancedCallD1Ev (Address: 0x6b643f15b4)
    - variable: _ZTSNSt6__ndk114__num_get_baseE (Address: 0x6b64805b50)
    - function: _Z28grpc_polling_entity_is_emptyPK19grpc_polling_entity (Address: 0x6b6442c174)
    - function: _ZN4absl12lts_2021032416strings_internal11BigUnsignedILi84EE8Digits10Ev (Address: 0x6b645eec08)
    - function: _ZNKSt6__ndk17codecvtIDsc9mbstate_tE13do_max_lengthEv (Address: 0x6b647280cc)
    - variable: _ZTIPn (Address: 0x6b64915de0)
    - function: _Z39grpc_client_channel_stop_backup_pollingP16grpc_pollset_set (Address: 0x6b64466170)
    - function: _Z36grpc_iomgr_count_objects_for_testingv (Address: 0x6b6452c494)
    - function: grpcsharp_composite_call_credentials_create (Address: 0x6b643e84fc)
    - function: _ZN17grpc_event_engine12experimental11EventEngine15ResolvedAddressC1EPK8sockaddrj (Address: 0x6b64527cbc)
    - function: grpc_ssl_server_certificate_config_create (Address: 0x6b64436148)
    - variable: _ZTSPKDs (Address: 0x6b64807220)
    - function: grpc_auth_context_add_property (Address: 0x6b644323b8)
    - function: _ZNSt6__ndk13mapINS_12basic_stringIcNS_11char_traitsIcEENS_9allocatorIcEEEEN9grpc_core23XdsClusterLocalityStats13BackendMetricENS_4lessIS6_EENS4_INS_4pairIKS6_S9_EEEEEixERSD_ (Address: 0x6b6451c5f0)
    - function: _Z35grpc_chttp2_ping_parser_begin_frameP23grpc_chttp2_ping_parserjh (Address: 0x6b6455651c)
    - function: _Z32alts_tsi_handshaker_has_shutdownP19alts_tsi_handshaker (Address: 0x6b645683b8)
    - variable: envoy_extensions_filters_http_fault_v3_HTTPFault_msginit (Address: 0x6b648fe3c0)
    - function: upb_filedef_msgcount (Address: 0x6b645b7de8)
    - variable: envoy_config_route_v3_RouteAction_HashPolicy_Header_msginit (Address: 0x6b648fc7e0)
    - variable: grpc_server_auth_filter (Address: 0x6b648fa6a0)
    - variable: envoy_config_endpoint_v3_LocalityLbEndpoints_msginit (Address: 0x6b648fbed8)
    - function: _Z22grpc_chttp2_stream_refP18grpc_chttp2_stream (Address: 0x6b644c94a4)
    - function: _ZNK9grpc_core6XdsApi9EdsUpdate8Priority8ToStringEv (Address: 0x6b644e9b58)
    - function: _ZNSt6__ndk112basic_stringIwNS_11char_traitsIwEENS_9allocatorIwEEE2atEm (Address: 0x6b64736dcc)
    - function: _ZN19grpc_deadline_stateC1EP17grpc_call_elementRK22grpc_call_element_argsl (Address: 0x6b64412a70)
    - function: _ZNKSt6__ndk117moneypunct_bynameIcLb1EE16do_thousands_sepEv (Address: 0x6b64711dd8)
    - function: gpr_free_aligned (Address: 0x6b645b1e60)
    - function: _ZN9grpc_core19LoadBalancingPolicy22TransientFailurePickerD0Ev (Address: 0x6b643faef0)
    - function: _ZN9grpc_core13ClientChannelC2EP25grpc_channel_element_argsPP10grpc_error (Address: 0x6b643ea728)
    - variable: envoy_type_metadata_v3_MetadataKind_msginit (Address: 0x6b648fd558)
    - function: _ZN9grpc_core13HeaderMatcherC1EN4absl12lts_2021032411string_viewEbb (Address: 0x6b645396d0)
    - function: _ZN3re23DFA14RunWorkqOnByteEPNS0_5WorkqES2_ijPb (Address: 0x6b6459b6e4)
    - variable: validate_FloatRules_msginit (Address: 0x6b648fe6c8)
    - function: txtenc_nullz (Address: 0x6b645bead0)
    - function: _ZNSt6__ndk16__treeINS_12__value_typeINS_12basic_stringIcNS_11char_traitsIcEENS_9allocatorIcEEEEN9grpc_core17XdsHttpFilterImpl12FilterConfigEEENS_19__map_value_compareIS7_SB_NS_4lessIS7_EELb1EEENS5_ISB_EEE12__find_equalIS7_EERPNS_16__tree_node_baseIPvEENS_21__tree_const_iteratorISB_PNS_11__tree_nodeISB_SK_EElEERPNS_15__tree_end_nodeISM_EESN_RKT_ (Address: 0x6b644b8d70)
    - function: _Z22grpc_channel_args_findPK17grpc_channel_argsPKc (Address: 0x6b6441837c)
    - function: _ZNSt12length_errorD0Ev (Address: 0x6b647449a8)
    - function: _ZN9grpc_core8internal45alts_handshaker_client_set_vtable_for_testingEP22alts_handshaker_clientP29alts_handshaker_client_vtable (Address: 0x6b64578e98)
    - function: _ZNKSt6__ndk117moneypunct_bynameIwLb0EE16do_negative_signEv (Address: 0x6b6471291c)
    - function: _ZNSt6__ndk115basic_streambufIcNS_11char_traitsIcEEE5gbumpEi (Address: 0x6b646f2714)
    - function: upb_fielddef_index (Address: 0x6b645b7558)
    - function: _ZNKSt6__ndk112basic_stringIcNS_11char_traitsIcEENS_9allocatorIcEEE7compareEmmPKcm (Address: 0x6b64735a44)
    - function: _ZNSt6__ndk120__shared_ptr_emplaceIN9grpc_core14WorkSerializerENS_9allocatorIS2_EEE21__on_zero_shared_weakEv (Address: 0x6b643f6d84)
    - function: _ZN9grpc_core26CertificateProviderFactoryD2Ev (Address: 0x6b644e2df4)
    - function: _ZNSt6__ndk114codecvt_bynameIDsc9mbstate_tED2Ev (Address: 0x6b64719ad8)
    - function: upb_status_seterrf (Address: 0x6b645bfee0)
    - function: _ZN3re27CEscapeERKNS_11StringPieceE (Address: 0x6b64594680)
    - variable: envoy_config_route_v3_RetryPolicy_RetryPriority_msginit (Address: 0x6b648fc920)
    - variable: _ZTSSt12out_of_range (Address: 0x6b64807440)
    - function: grpcsharp_batch_context_recv_status_on_client_trailing_metadata (Address: 0x6b643e728c)
    - variable: _ZTISt9type_info (Address: 0x6b64916790)
    - function: _Z49gpr_global_config_get_grpc_stacktrace_minloglevelv (Address: 0x6b645b20b4)
    - function: _Z50grpc_channel_args_compression_algorithm_get_statesPK17grpc_channel_args (Address: 0x6b64525824)
    - function: upb_inttable_remove (Address: 0x6b645bdee8)
    - function: _ZN28grpc_alts_server_credentialsD1Ev (Address: 0x6b6455ab68)
    - function: _ZNSt6__ndk118condition_variable4waitERNS_11unique_lockINS_5mutexEEE (Address: 0x6b6473fa04)
    - function: _ZNSt6__ndk16__treeINS_12__value_typeINS_12basic_stringIcNS_11char_traitsIcEENS_9allocatorIcEEEEN9grpc_core6XdsApi15RdsResourceDataEEENS_19__map_value_compareIS7_SB_NS_4lessIS7_EELb1EEENS5_ISB_EEE12__find_equalIS7_EERPNS_16__tree_node_baseIPvEERPNS_15__tree_end_nodeISM_EERKT_ (Address: 0x6b644ff76c)
    - function: deflateInit_ (Address: 0x6b6457cde8)
    - variable: _ZTVNSt6__ndk110moneypunctIwLb0EEE (Address: 0x6b649133f8)
    - function: _ZN9grpc_core6chttp220TransportFlowControl10RecvUpdateEj (Address: 0x6b644d1f5c)
    - function: _ZN9grpc_core19LocalSubchannelPoolD0Ev (Address: 0x6b643fd834)
    - function: _ZNSt6__ndk112basic_stringIwNS_11char_traitsIwEENS_9allocatorIwEEE9__grow_byEmmmmmm (Address: 0x6b647372f4)
    - function: upb_filedef_name (Address: 0x6b645b7dc0)
    - function: _ZN9grpc_core16ExtractJsonArrayINSt6__ndk16vectorIP10grpc_errorNS1_9allocatorIS4_EEEEEEbRKNS_4JsonERKNS1_12basic_stringIcNS1_11char_traitsIcEENS5_IcEEEEPPKNS2_IS8_NS5_IS8_EEEEPT_ (Address: 0x6b644be910)
    - function: _Z44grpc_channel_stack_builder_get_resource_userP26grpc_channel_stack_builder (Address: 0x6b64419bec)
    - variable: _ZTSNSt6__ndk117bad_function_callE (Address: 0x6b64774570)
    - function: _ZNKSt6__ndk19money_getIwNS_19istreambuf_iteratorIwNS_11char_traitsIwEEEEE6do_getES4_S4_bRNS_8ios_baseERjRe (Address: 0x6b647153e0)
    - variable: _ZTVNSt6__ndk115__codecvt_utf16IDiLb0EEE (Address: 0x6b64914648)
    - function: _ZN9grpc_core9XdsClient12ChannelState12AdsCallStateC2ENS_13RefCountedPtrINS1_13RetryableCallIS2_EEEE (Address: 0x6b64509c9c)
    - function: _ZNSt6__ndk16__treeINS_12__value_typeINS_12basic_stringIcNS_11char_traitsIcEENS_9allocatorIcEEEEiEENS_19__map_value_compareIS7_S8_NS_4lessIS7_EELb1EEENS5_IS8_EEE4findIS7_EENS_15__tree_iteratorIS8_PNS_11__tree_nodeIS8_PvEElEERKT_ (Address: 0x6b645923bc)
    - function: _ZNSt6__ndk13mapINS_12basic_stringIcNS_11char_traitsIcEENS_9allocatorIcEEEEN9grpc_core6XdsApi15LdsResourceDataENS_4lessIS6_EENS4_INS_4pairIKS6_S9_EEEEEixERSD_ (Address: 0x6b644f598c)
    - function: _Z23grpc_set_socket_cloexecii (Address: 0x6b6442c720)
    - function: _ZNKSt6__ndk117moneypunct_bynameIwLb1EE16do_decimal_pointEv (Address: 0x6b64713400)
    - function: _ZN3re28BitStateC1EPNS_4ProgE (Address: 0x6b64594a80)
    - variable: google_protobuf_MethodOptions_msginit (Address: 0x6b64902668)
    - variable: _ZTIs (Address: 0x6b64915b50)
    - function: _Z39grpc_timer_manager_get_wakeups_testonlyv (Address: 0x6b645376a4)
    - function: _ZNSt6__ndk1plIcNS_11char_traitsIcEENS_9allocatorIcEEEENS_12basic_stringIT_T0_T1_EERKS9_PKS6_ (Address: 0x6b6473e294)
    - function: _ZNSt6__ndk16futureIvED2Ev (Address: 0x6b64740930)
    - function: _ZN9grpc_core17AllocatedMetadataC2ERKNS_18ManagedMemorySliceERKNS_20UnmanagedMemorySliceE (Address: 0x6b64457c5c)
    - function: _Z26grpc_channel_stack_elementP18grpc_channel_stackm (Address: 0x6b644193e0)
    - function: _Z47grpc_channel_stack_builder_iterator_filter_nameP35grpc_channel_stack_builder_iterator (Address: 0x6b644199dc)
    - variable: envoy_config_core_v3_event_service_config_proto_upbdefinit (Address: 0x6b64921bb8)
    - function: _Z21gpr_get_cycle_counterv (Address: 0x6b645b45f4)
    - function: _Z23grpc_millis_to_timespecl14gpr_clock_type (Address: 0x6b6442bb48)
    - function: _ZN4absl12lts_2021032413time_internal4cctz12TimeZoneInfoD0Ev (Address: 0x6b645fe8d4)
    - variable: _ZTSN3re26Regexp6WalkerINS_4FragEEE (Address: 0x6b647ccc00)
    - function: _ZNK4absl12lts_202103248TimeZone2AtENS0_4TimeE (Address: 0x6b645e50f4)
    - variable: envoy_config_core_v3_TcpProtocolOptions_msginit (Address: 0x6b647a1818)
    - function: _ZNSt6__ndk111timed_mutexD2Ev (Address: 0x6b64731388)
    - function: _ZN9grpc_core5ArenaD1Ev (Address: 0x6b645b46e0)
    - function: _ZN3re211SparseArrayIPNS_3NFA6ThreadEE6resizeEi (Address: 0x6b645a062c)
    - function: _ZN3re23RE23Arg21parse_ulonglong_radixEPKcmPvi (Address: 0x6b6458b05c)
    - variable: _ZTVN9grpc_core6Server18RealRequestMatcherE (Address: 0x6b648f4488)
    - function: _ZNKSt6__ndk17num_putIwNS_19ostreambuf_iteratorIwNS_11char_traitsIwEEEEE6do_putES4_RNS_8ios_baseEwm (Address: 0x6b64708948)
    - function: _ZN9grpc_core13ClientChannel16LoadBalancedCall32ResumePendingBatchInCallCombinerEPvP10grpc_error (Address: 0x6b643f1c90)
    - function: _ZN23grpc_server_credentials27set_auth_metadata_processorERK28grpc_auth_metadata_processor (Address: 0x6b644344ec)
    - function: grpc_slice_buffer_move_first_into_buffer (Address: 0x6b6443e2bc)
    - function: grpc_auth_context_find_properties_by_name (Address: 0x6b64431f78)
    - function: _ZNSt6__ndk16vectorIN9grpc_core6XdsApi9LdsUpdate21HttpConnectionManager10HttpFilterENS_9allocatorIS5_EEEC2ERKS8_ (Address: 0x6b6451a104)
    - function: _ZNSt6__ndk14stolERKNS_12basic_stringIcNS_11char_traitsIcEENS_9allocatorIcEEEEPmi (Address: 0x6b6473a72c)
    - variable: google_protobuf_any_proto_upbdefinit (Address: 0x6b64921340)
    - function: _ZN3re216CharClassBuilder6NegateEv (Address: 0x6b6459160c)
    - function: _ZNSt6__ndk115basic_streambufIcNS_11char_traitsIcEEE5sputnEPKcl (Address: 0x6b646f2528)
    - function: _ZN4absl12lts_2021032416allocator_traitsINSt6__ndk19allocatorIN9grpc_core12XdsBootstrap9XdsServerEEEE12destroy_implIS7_S6_EEDTcldtfp0_7destroyfp1_EEiRT_PT0_ (Address: 0x6b6451fd28)
    - function: _Z48grpc_chttp2_maybe_complete_recv_initial_metadataP21grpc_chttp2_transportP18grpc_chttp2_stream (Address: 0x6b644caec4)
    - function: _ZNSt6__ndk117__widen_from_utf8ILm16EED1Ev (Address: 0x6b646fd24c)
    - function: _Z30grpc_channel_init_create_stackP26grpc_channel_stack_builder23grpc_channel_stack_type (Address: 0x6b64448eb8)
    - function: grpcsharp_request_call_context_host (Address: 0x6b643e72c4)
    - function: _ZNSt6__ndk113basic_ostreamIcNS_11char_traitsIcEEElsEs (Address: 0x6b646f9190)
    - function: _ZNSt12length_errorD2Ev (Address: 0x6b64744780)
    - function: _ZN9grpc_core13StringMatcherC2ERKS0_ (Address: 0x6b64538444)
    - function: _ZN9grpc_core16ResolverRegistry7Builder23RegisterResolverFactoryENSt6__ndk110unique_ptrINS_15ResolverFactoryENS2_14default_deleteIS4_EEEE (Address: 0x6b643fe86c)
    - variable: _ZN9grpc_core11g_hash_seedE (Address: 0x6b64922ed8)
    - function: _ZN9grpc_core15Chttp2Connector11MaybeNotifyEP10grpc_error (Address: 0x6b644c4a18)
    - function: _ZNSt6__ndk112basic_stringIcNS_11char_traitsIcEENS_9allocatorIcEEE6appendEmc (Address: 0x6b643fd3b8)
    - function: _ZNSt6__ndk114__split_bufferIPN3re29WalkStateINS1_4FragEEERNS_9allocatorIS5_EEE10push_frontERKS5_ (Address: 0x6b6459a024)
    - function: _ZN9grpc_core6chttp217StreamFlowControl24IncomingByteStreamUpdateEmm (Address: 0x6b644d1878)
    - function: _ZNSt13runtime_errorD0Ev (Address: 0x6b6474488c)
    - function: _ZNSt6__ndk112basic_stringIcNS_11char_traitsIcEENS_9allocatorIcEEE6assignEPKc (Address: 0x6b64732aec)
    - function: _ZNSt6__ndk112system_errorC1EiRKNS_14error_categoryE (Address: 0x6b6473f04c)
    - function: _ZN9grpc_core29AwsExternalAccountCredentials26FinishRetrieveSubjectTokenENSt6__ndk112basic_stringIcNS1_11char_traitsIcEENS1_9allocatorIcEEEEP10grpc_error (Address: 0x6b6456d270)
    - variable: _ZTVNSt6__ndk114codecvt_bynameIwc9mbstate_tEE (Address: 0x6b649138d8)
    - function: _ZNSt6__ndk14stofERKNS_12basic_stringIcNS_11char_traitsIcEENS_9allocatorIcEEEEPm (Address: 0x6b6473b6ac)
    - function: _ZN9grpc_core10SubchannelD1Ev (Address: 0x6b6440edb8)
    - function: grpc_slice_copy (Address: 0x6b6443b740)
    - function: _ZNSt6__ndk117__assoc_sub_state9__executeEv (Address: 0x6b647407a4)
    - function: _ZN9grpc_core8channelz12ChannelTrace10TraceEventC1ENS1_8SeverityERK10grpc_sliceNS_13RefCountedPtrINS0_8BaseNodeEEE (Address: 0x6b6441a098)
    - function: _Z20grpc_sockaddr_to_uriPK21grpc_resolved_address (Address: 0x6b644169cc)
    - function: _ZNSt6__ndk16__treeINS_12__value_typeINS_4pairINS_12basic_stringIcNS_11char_traitsIcEENS_9allocatorIcEEEES8_EEN9grpc_core6XdsApi17ClusterLoadReportEEENS_19__map_value_compareIS9_SD_NS_4lessIS9_EELb1EEENS6_ISD_EEE16__construct_nodeIJRKNS_21piecewise_construct_tENS_5tupleIJRKS9_EEENSO_IJEEEEEENS_10unique_ptrINS_11__tree_nodeISD_PvEENS_22__tree_node_destructorINS6_ISW_EEEEEEDpOT_ (Address: 0x6b64520f60)
    - function: _Z27grpc_slice_buffer_sub_firstP17grpc_slice_buffermm (Address: 0x6b6443e978)
    - variable: _ZTIN3re26Regexp6WalkerINS_4FragEEE (Address: 0x6b648ff368)
    - function: upb_oneofdef_field (Address: 0x6b645b7cac)
    - function: _ZNK4absl12lts_202103249ByAnyChar4FindENS0_11string_viewEm (Address: 0x6b645eb9e8)
    - function: _ZN9grpc_core8Executor3RunEP12grpc_closureP10grpc_errorNS_12ExecutorTypeENS_15ExecutorJobTypeE (Address: 0x6b6452bf30)
    - variable: _ZNSt6__ndk114numeric_limitsIN4absl12lts_202103246int128EE5radixE (Address: 0x6b647e06e0)
    - function: _ZNSt6__ndk111timed_mutexC1Ev (Address: 0x6b6473136c)
    - function: _ZN9grpc_core18ChildPolicyHandler6Helper16CreateSubchannelENS_13ServerAddressERK17grpc_channel_args (Address: 0x6b643fbf28)
    - function: _Z25alts_is_frame_writer_doneP17alts_frame_writer (Address: 0x6b64578110)
    - variable: envoy_config_overload_v3_ResourceMonitor_msginit (Address: 0x6b648fc308)
    - function: _ZNKSt6__ndk17num_putIwNS_19ostreambuf_iteratorIwNS_11char_traitsIwEEEEE6do_putES4_RNS_8ios_baseEwy (Address: 0x6b64708c0c)
    - function: gprsharp_free (Address: 0x6b643e7724)
    - function: _ZN9grpc_core23XdsClusterLocalityStats19GetSnapshotAndResetEv (Address: 0x6b64522660)
    - function: _ZNSt6__ndk112ctype_bynameIwED0Ev (Address: 0x6b64726400)
    - function: _Z27grpc_timer_manager_shutdownv (Address: 0x6b645373c0)
    - function: _Z19grpc_timer_heap_topP15grpc_timer_heap (Address: 0x6b6453717c)
    - variable: _ZNSt6__ndk18ios_base7showposE (Address: 0x6b64803b2c)
    - variable: _ZTIc (Address: 0x6b64915a60)
    - function: _ZN9grpc_core19ConnectedSubchannelC2EP18grpc_channel_stackPK17grpc_channel_argsNS_13RefCountedPtrINS_8channelz14SubchannelNodeEEE (Address: 0x6b6440c768)
    - function: _ZTv0_n24_NSt6__ndk113basic_istreamIcNS_11char_traitsIcEEED0Ev (Address: 0x6b646f2ef0)
    - function: grpc_slice_hash (Address: 0x6b6443ec0c)
    - variable: _ZNSt6__ndk110moneypunctIcLb0EE2idE (Address: 0x6b64928c78)
    - function: _ZN20grpc_ssl_credentials12build_configEPKcP26grpc_ssl_pem_key_cert_pairPK28grpc_ssl_verify_peer_options (Address: 0x6b64435700)
    - function: _ZN3re28Compiler7NoMatchEv (Address: 0x6b645959d8)
    - function: _ZN9grpc_core4Fork17DoIncExecCtxCountEv (Address: 0x6b645b49f8)
    - variable: _ZTVSt12out_of_range (Address: 0x6b649165f8)
    - function: _ZSt15get_new_handlerv (Address: 0x6b64741d28)
    - function: _Z33grpc_channel_args_copy_and_removePK17grpc_channel_argsPPKcm (Address: 0x6b644181a8)
    - function: _ZN4absl12lts_202103247CondVar6RemoveEPNS0_13base_internal14PerThreadSynchE (Address: 0x6b645df154)
    - function: _ZNSt6__ndk16localeC1EPKc (Address: 0x6b64723bbc)
    - variable: envoy_config_route_v3_RateLimit_Action_HeaderValueMatch_msginit (Address: 0x6b648fcb58)
    - function: _ZN9grpc_core9XdsClient26RemoveClusterLocalityStatsEN4absl12lts_2021032411string_viewES3_S3_RKNS_13RefCountedPtrINS_15XdsLocalityNameEEEPNS_23XdsClusterLocalityStatsE (Address: 0x6b64516f90)
    - function: _ZNKSt6__ndk15ctypeIcE9do_narrowEcc (Address: 0x6b64725cf8)
    - variable: _ZTSj (Address: 0x6b64807184)
    - variable: _ZTVNSt6__ndk115numpunct_bynameIcEE (Address: 0x6b64913d00)
    - function: _ZN4absl12lts_202103244Cord9InlineRep10AppendTreeEPNS0_13cord_internal7CordRepE (Address: 0x6b645c4e0c)
    - function: _ZN9grpc_core23RegisterHttpProxyMapperEv (Address: 0x6b6446b21c)
    - variable: _ZTSNSt6__ndk110__function6__funcIZN9grpc_core13ClientChannel26ConnectivityWatcherRemoverC1EPS3_PNS2_38AsyncConnectivityStateWatcherInterfaceEEUlvE_NS_9allocatorIS8_EEFvvEEE (Address: 0x6b64774080)
    - function: _ZN9grpc_core6Server34AllocatingRequestMatcherRegistered12MatchOrQueueEmPNS0_8CallDataE (Address: 0x6b64454e84)
    - function: _ZN4absl12lts_2021032423inlined_vector_internal7StorageIcLm196ENSt6__ndk19allocatorIcEEE6InsertINS1_20IteratorValueAdapterIS5_NS3_11__wrap_iterIPKcEEEEEEPcSB_T_m (Address: 0x6b644810a0)
    - function: _ZN3re28PODArrayItED2Ev (Address: 0x6b645a92a4)
    - function: _Z30gsec_aead_crypter_nonce_lengthPK17gsec_aead_crypterPmPPc (Address: 0x6b6457720c)
    - function: _ZN9grpc_core9XdsClient19AddClusterDropStatsEN4absl12lts_2021032411string_viewES3_S3_ (Address: 0x6b64515a14)
    - function: _ZNK9grpc_core27TlsChannelSecurityConnector3cmpEPK23grpc_security_connector (Address: 0x6b645662e8)
    - function: _Z28grpc_chttp2_reset_ping_clockP21grpc_chttp2_transport (Address: 0x6b644caea4)
    - function: _Z35grpc_chttp2_rst_stream_parser_parsePvP21grpc_chttp2_transportP18grpc_chttp2_streamRK10grpc_slicei (Address: 0x6b644d36bc)
    - function: grpc_auth_property_iterator_next (Address: 0x6b64431ff8)
    - variable: udpa_annotations_MigrateAnnotation_msginit (Address: 0x6b648fe570)
    - function: _Z26grpc_slice_intern_shutdownv (Address: 0x6b6443f7e0)
    - function: _ZNSt6__ndk114error_categoryC2Ev (Address: 0x6b6473e3a0)
    - function: upb_strtable_iter_value (Address: 0x6b645bd1d0)
    - function: upb_msgdef_realoneofcount (Address: 0x6b645b7b10)
    - variable: _ZTVN9grpc_core20XdsServerCredentialsE (Address: 0x6b648fa3a8)
    - function: _ZNSt6__ndk16futureIvE3getEv (Address: 0x6b64740960)
    - variable: _ZTIN9grpc_core8internal17RetryGlobalConfigE (Address: 0x6b648f3030)
    - variable: _ZTSPg (Address: 0x6b64807210)
    - function: _ZNKSt6__ndk110__function6__funcIPFP17grpc_channel_argsS3_PP10grpc_errorENS_9allocatorIS8_EES7_E11target_typeEv (Address: 0x6b644148a0)
    - variable: _ZTIN9grpc_core10RefCountedINS_16HandshakeManagerENS_19PolymorphicRefCountELNS_13UnrefBehaviorE0EEE (Address: 0x6b648f9a90)
    - variable: _ZTINSt6__ndk110__function6__baseIFvNS_12basic_stringIcNS_11char_traitsIcEENS_9allocatorIcEEEEP10grpc_errorEEE (Address: 0x6b648fda78)
    - function: _ZNSt6__ndk120__throw_system_errorEiPKc (Address: 0x6b6473f178)
    - function: _Z38grpc_chttp2_window_update_parser_parsePvP21grpc_chttp2_transportP18grpc_chttp2_streamRK10grpc_slicei (Address: 0x6b645572ec)
    - variable: _ZTSPDh (Address: 0x6b648071dc)
    - function: _ZNKSt6__ndk110moneypunctIwLb0EE11do_groupingEv (Address: 0x6b64711024)
    - variable: _ZNSt6__ndk18time_putIwNS_19ostreambuf_iteratorIwNS_11char_traitsIwEEEEE2idE (Address: 0x6b64928c68)
    - variable: _ZTSN9grpc_core29UrlExternalAccountCredentialsE (Address: 0x6b647be8c0)
    - function: _ZNKSt6__ndk17codecvtIDic9mbstate_tE13do_max_lengthEv (Address: 0x6b64728910)
    - function: _ZNSt6__ndk16vectorINS_10unique_ptrIN9grpc_core17XdsHttpFilterImplENS_14default_deleteIS3_EEEENS_9allocatorIS6_EEE21__push_back_slow_pathIS6_EEvOT_ (Address: 0x6b64522e48)
    - function: _ZN3re210chartoruneEPiPKc (Address: 0x6b64594274)
    - function: _ZN4absl12lts_2021032411UnparseFlagENS0_8DurationE (Address: 0x6b645e40c8)
    - variable: _ZTIZN9grpc_core13ClientChannel26ConnectivityWatcherRemoverC1EPS0_PNS_38AsyncConnectivityStateWatcherInterfaceEEUlvE_ (Address: 0x6b648f2508)
    - function: _ZNSt6__ndk16vectorINS_12basic_stringIcNS_11char_traitsIcEENS_9allocatorIcEEEENS4_IS6_EEE24__emplace_back_slow_pathIJS6_EEEvDpOT_ (Address: 0x6b64409498)
    - function: _Z8gpr_dumpPKcmj (Address: 0x6b645b2ab8)
    - function: _Z30grpc_register_built_in_pluginsv (Address: 0x6b6446165c)
    - function: _Z23grpc_string_to_sockaddrP21grpc_resolved_addressPKci (Address: 0x6b6441679c)
    - variable: udpa_data_orca_v1_OrcaLoadReport_msginit (Address: 0x6b648f9098)
    - function: _ZNK9grpc_core28ServerAddressWeightAttribute8ToStringEv (Address: 0x6b644a3118)
    - function: _ZN9grpc_core7ExecCtx7RunListERKNS_13DebugLocationEP17grpc_closure_list (Address: 0x6b6442c034)
    - variable: _ZN4absl12lts_2021032414ascii_internal8kToLowerE (Address: 0x6b647dc5f0)
    - function: _ZNSt6__ndk112bad_weak_ptrD0Ev (Address: 0x6b64730ed8)
    - function: grpc_version_string (Address: 0x6b64456174)
    - function: _ZN9grpc_core20UnixSockaddrPopulateEN4absl12lts_2021032411string_viewEP21grpc_resolved_address (Address: 0x6b64415148)
    - function: _Z28gsec_aead_crypter_key_lengthPK17gsec_aead_crypterPmPPc (Address: 0x6b64577280)
    - function: grpc_g_stands_for (Address: 0x6b64456180)
    - variable: _ZTIN9grpc_core10RefCountedINS_19SubchannelInterfaceENS_19PolymorphicRefCountELNS_13UnrefBehaviorE0EEE (Address: 0x6b648f2710)
    - function: _ZN4absl12lts_2021032416allocator_traitsINSt6__ndk19allocatorIN9grpc_core14PemKeyCertPairEEEE14construct_implIS6_JRPS5_RKS5_EEEDTcldtfp0_9constructspclsr3stdE7forwardIT0_Efp1_EEEiRT_DpOSD_ (Address: 0x6b64508004)
    - function: _ZNK9grpc_core6XdsApi9EdsUpdate8PriorityeqERKS2_ (Address: 0x6b644e99b8)
    - function: _ZNSt6__ndk114collate_bynameIwED2Ev (Address: 0x6b647250d0)
    - variable: _ZTINSt6__ndk114collate_bynameIcEE (Address: 0x6b649148f0)
    - variable: validate_RepeatedRules_msginit (Address: 0x6b648fe868)
    - function: _ZN9grpc_core26TlsServerSecurityConnectorD1Ev (Address: 0x6b645673d4)
    - function: _ZN9grpc_core14ConfigSelector10GetFiltersEv (Address: 0x6b643f8d80)
    - function: _ZN3re24Prog12ComputeHintsEPNSt6__ndk16vectorINS0_4InstENS1_9allocatorIS3_EEEEii (Address: 0x6b645ac474)
    - function: grpc_resource_quota_arg_vtable (Address: 0x6b6452e224)
    - function: _Z30grpc_is_binary_header_internalRK10grpc_slice (Address: 0x6b644560d4)
    - variable: _ZTIN9grpc_core13ClientChannel16LoadBalancedCallE (Address: 0x6b648f1e30)
    - function: _ZN4absl12lts_2021032416strings_internal11BigUnsignedILi4EEC1Em (Address: 0x6b645ed4d4)
    - variable: envoy_config_route_v3_RouteAction_MaxStreamDuration_msginit (Address: 0x6b648fc8b0)
    - function: _ZNSt6__ndk114__split_bufferIPPN9grpc_core6Server8CallDataERNS_9allocatorIS5_EEE10push_frontERKS5_ (Address: 0x6b64454aa8)
    - variable: envoy_config_core_v3_ApiConfigSource_msginit (Address: 0x6b648fb830)
    - function: _ZNKSt6__ndk17codecvtIDsc9mbstate_tE11do_encodingEv (Address: 0x6b64727e98)
    - function: _ZNSt6__ndk113basic_istreamIcNS_11char_traitsIcEEErsEPFRNS_8ios_baseES5_E (Address: 0x6b646f33d4)
    - function: _ZN4absl12lts_2021032413base_internal12CallOnceImplIRPFvvEJEEEvPNSt6__ndk16atomicIjEENS1_14SchedulingModeEOT_DpOT0_ (Address: 0x6b645b38dc)
    - function: _Z25gpr_parse_nonnegative_intPKc (Address: 0x6b645b2d30)
    - function: _ZN9grpc_core6Server11ChannelData19ConnectivityWatcherD2Ev (Address: 0x6b64455c70)
    - function: _ZNKSt6__ndk112ctype_bynameIwE8do_widenEPKcS3_Pw (Address: 0x6b64726ac0)
    - variable: _ZTIPj (Address: 0x6b64915c50)
    - function: _ZN9grpc_core27TlsChannelSecurityConnector37ProcessServerAuthorizationCheckResultEP39grpc_tls_server_authorization_check_arg (Address: 0x6b645660bc)
    - variable: _ZTIo (Address: 0x6b64915e20)
    - function: _ZN4absl12lts_202103244CordC2ENS0_11string_viewE (Address: 0x6b645c5900)
    - function: _ZN4absl12lts_2021032415AsciiStrToUpperEPNSt6__ndk112basic_stringIcNS1_11char_traitsIcEENS1_9allocatorIcEEEE (Address: 0x6b645e6230)
    - variable: _ZTS22grpc_tls_error_details (Address: 0x6b647bf820)
    - function: _ZN9grpc_core9XdsClient12ChannelState17MaybeStartLrsCallEv (Address: 0x6b64509428)
    - function: _ZN4absl12lts_202103245Mutex20LockWhenWithDeadlineERKNS0_9ConditionENS0_4TimeE (Address: 0x6b645dc690)
    - variable: _ZN4absl12lts_2021032413base_internal8SpinLock13kWaitTimeMaskE (Address: 0x6b647e0574)
    - function: _Z33grpc_tcp_server_create_fd_handlerP15grpc_tcp_server (Address: 0x6b64533b44)
    - function: _ZNKSt6__ndk112ctype_bynameIwE9do_narrowEwc (Address: 0x6b64726b60)
    - function: grpcsharp_call_start_duplex_streaming (Address: 0x6b643e7c10)
    - variable: _ZTVN9grpc_core8internal17RetryGlobalConfigE (Address: 0x6b648f3008)
    - function: _ZN9grpc_callC2EPN9grpc_core5ArenaERK21grpc_call_create_args (Address: 0x6b64440f5c)
    - variable: _ZTIN9grpc_core13ClientChannel17SubchannelWrapper14WatcherWrapperE (Address: 0x6b648f22c0)
    - variable: _ZTIN9grpc_core13ClientChannel17SubchannelWrapperE (Address: 0x6b648f2750)
    - function: _ZNSt6__ndk17collateIwED2Ev (Address: 0x6b646fd438)
    - function: _ZN9grpc_core14SubchannelCall6CreateENS0_4ArgsEPP10grpc_error (Address: 0x6b6440ca04)
    - variable: _ZTIZN9grpc_core13ClientChannel24ConnectivityWatcherAdderC1EPS0_23grpc_connectivity_stateNSt6__ndk110unique_ptrINS_38AsyncConnectivityStateWatcherInterfaceENS_16OrphanableDeleteEEEEUlvE_ (Address: 0x6b648f2488)
    - function: grpc_slice_malloc (Address: 0x6b6443b804)
    - variable: _ZN9grpc_core25kRequestRingHashAttributeE (Address: 0x6b6491f540)
    - variable: envoy_admin_v3_ClustersConfigDump_StaticCluster_msginit (Address: 0x6b648fab30)
    - function: _ZN9grpc_core13StringMatcherC1ERKS0_ (Address: 0x6b64538444)
    - variable: _ZTIN9grpc_core13ClientChannel27ExternalConnectivityWatcherE (Address: 0x6b648f1e10)
    - function: _ZNSt6__ndk115basic_streambufIcNS_11char_traitsIcEEE6setbufEPcl (Address: 0x6b6458c040)
    - function: _ZNKSt6__ndk112basic_stringIwNS_11char_traitsIwEENS_9allocatorIwEEE4findEwm (Address: 0x6b64738adc)
    - function: grpc_server_create (Address: 0x6b64451c74)
    - function: _ZNSt6__ndk17promiseIvEC1Ev (Address: 0x6b647409f4)
    - function: grpc_channelz_get_channel (Address: 0x6b644277cc)
    - function: _ZNK9grpc_core8channelz10SocketNode8Security14MakeChannelArgEv (Address: 0x6b64421358)
    - function: upb_inttable_insert2 (Address: 0x6b645bd984)
    - function: _ZN4absl12lts_2021032417IsUnauthenticatedERKNS0_6StatusE (Address: 0x6b645c3510)
    - function: upb_msgdef_name (Address: 0x6b645b7838)
    - function: _ZN31grpc_composite_call_credentials13push_to_innerEN9grpc_core13RefCountedPtrI21grpc_call_credentialsEEb (Address: 0x6b64432dcc)
    - function: _ZN9grpc_core13StringMatcherC1EOS0_ (Address: 0x6b6453861c)
    - function: _Z31grpc_resolver_sockaddr_shutdownv (Address: 0x6b644afa34)
    - function: grpc_compression_options_disable_algorithm (Address: 0x6b645252c0)
    - variable: _ZTSNSt6__ndk116__narrow_to_utf8ILm32EEE (Address: 0x6b64804e50)
    - function: __cxa_guard_release (Address: 0x6b64741b20)
    - function: _ZNKSt6__ndk115basic_stringbufIcNS_11char_traitsIcEENS_9allocatorIcEEE3strEv (Address: 0x6b6458c6a0)
    - function: _ZN28grpc_alts_server_credentials25create_security_connectorEPK17grpc_channel_args (Address: 0x6b6455aa9c)
    - function: grpcsharp_ssl_server_credentials_create (Address: 0x6b643e8428)
    - function: _ZN3re23DFA9SearchFFTEPNS0_12SearchParamsE (Address: 0x6b6459c9f4)
    - variable: _ZNSt6__ndk17num_getIwNS_19istreambuf_iteratorIwNS_11char_traitsIwEEEEE2idE (Address: 0x6b64928c08)
    - function: _ZNSt6__ndk110__time_getC1ERKNS_12basic_stringIcNS_11char_traitsIcEENS_9allocatorIcEEEE (Address: 0x6b6472c560)
    - variable: _ZTVNSt6__ndk114codecvt_bynameIDsc9mbstate_tEE (Address: 0x6b64913938)
    - variable: _ZTSN9grpc_core10RefCountedINS_15XdsLocalityNameENS_19PolymorphicRefCountELNS_13UnrefBehaviorE0EEE (Address: 0x6b64788300)
    - function: _ZNK9grpc_core18ChildPolicyHandler4nameEv (Address: 0x6b643fbe64)
    - function: _ZN9grpc_core21XdsHttpFilterRegistry14PopulateSymtabEP10upb_symtab (Address: 0x6b64522a58)
    - variable: google_rpc_status_proto_upbdefinit (Address: 0x6b64921498)
    - variable: _ZTIN3re216RepetitionWalkerE (Address: 0x6b648ff480)
    - variable: grpc_lb_v1_FallbackResponse_msginit (Address: 0x6b647925c0)
    - function: _ZN3re23DFA22RunStateOnByteUnlockedEPNS0_5StateEi (Address: 0x6b6459b998)
    - function: _ZNSt6__ndk115basic_streambufIcNS_11char_traitsIcEEE6xsgetnEPcl (Address: 0x6b6458c1cc)
    - variable: cv_wakeup_fds_enabled (Address: 0x6b64924e20)
    - function: _ZN4absl12lts_2021032419IsResourceExhaustedERKNS0_6StatusE (Address: 0x6b645c34f0)
    - variable: _ZNSt6__ndk18ios_base5rightE (Address: 0x6b64803b1c)
    - function: _ZN3re23DFA18WorkqToCachedStateEPNS0_5WorkqES2_j (Address: 0x6b6459ab94)
    - function: _Z22grpc_cq_internal_unrefP21grpc_completion_queue (Address: 0x6b64449398)
    - variable: _ZTISt15underflow_error (Address: 0x6b64916700)
    - function: _ZN9grpc_core7ExecCtx10GlobalInitEv (Address: 0x6b6442be2c)
    - variable: _ZTSPw (Address: 0x6b64807134)
    - function: upb_status_vappenderrf (Address: 0x6b645c001c)
    - variable: envoy_extensions_filters_common_fault_v3_fault_proto_upbdefinit (Address: 0x6b64922198)
    - variable: _ZTSN9grpc_core8channelz10SocketNodeE (Address: 0x6b64778d20)
    - function: _ZN9grpc_core27LoadBalancingPolicyRegistry7Builder12InitRegistryEv (Address: 0x6b643fc3a0)
    - variable: _ZZN4absl12lts_2021032413base_internal12CallOnceImplIRFvPFvPvEEJRS5_EEEvPNSt6__ndk16atomicIjEENS1_14SchedulingModeEOT_DpOT0_E5trans (Address: 0x6b647e0644)
    - function: _ZNK4absl12lts_202103246Status10GetPayloadENS0_11string_viewE (Address: 0x6b645c1dd0)
    - variable: _ZNSt6__ndk114numeric_limitsIN4absl12lts_202103247uint128EE14min_exponent10E (Address: 0x6b647e06ac)
    - function: _ZN9grpc_core13RefCountedPtrINS_19LoadBalancingPolicyEED2Ev (Address: 0x6b6446f530)
    - function: _ZN9grpc_core6Server8CallData31StartTransportStreamOpBatchImplEP17grpc_call_elementP30grpc_transport_stream_op_batch (Address: 0x6b64451bec)
    - function: grpc_channel_register_call (Address: 0x6b64447614)
    - function: _ZN9grpc_core6Server11ChannelData13FinishDestroyEPvP10grpc_error (Address: 0x6b64451000)
    - function: _Z35grpc_lb_policy_round_robin_shutdownv (Address: 0x6b64482c44)
    - variable: _ZTS37grpc_google_refresh_token_credentials (Address: 0x6b6479d280)
    - function: _ZNSt6__ndk16__treeINS_12__value_typeINS_12basic_stringIcNS_11char_traitsIcEENS_9allocatorIcEEEEN9grpc_core30FileWatcherCertificateProvider11WatcherInfoEEENS_19__map_value_compareIS7_SB_NS_4lessIS7_EELb1EEENS5_ISB_EEE12__find_equalIS7_EERPNS_16__tree_node_baseIPvEERPNS_15__tree_end_nodeISM_EERKT_ (Address: 0x6b64549f44)
    - variable: udpa_type_v1_TypedStruct_msginit (Address: 0x6b648fd6b0)
    - variable: _ZTVNSt6__ndk110moneypunctIcLb1EEE (Address: 0x6b64913388)
    - function: _Z25gpr_timers_global_destroyv (Address: 0x6b645b60ac)
    - function: _ZN17grpc_event_engine12experimental21CreateResolvedAddressERK21grpc_resolved_address (Address: 0x6b6442bae0)
    - variable: envoy_config_accesslog_v3_StatusCodeFilter_msginit (Address: 0x6b648fe0f0)
    - function: _ZN4absl12lts_2021032416strings_internal11BigUnsignedILi4EEC1Ev (Address: 0x6b645ed4c8)
    - function: _ZN3re23RE215FindAndConsumeNEPNS_11StringPieceERKS0_PKPKNS0_3ArgEi (Address: 0x6b64588cbc)
    - function: _ZN9grpc_core19GetAbsoluteFilePathEPKcS1_Pc (Address: 0x6b6454c9a0)
    - function: _ZNSt6__ndk14pairIKNS0_INS_12basic_stringIcNS_11char_traitsIcEENS_9allocatorIcEEEES6_EEN9grpc_core14RegisteredCallEEC2EOSB_ (Address: 0x6b64448adc)
    - variable: _ZTINSt6__ndk18messagesIwEE (Address: 0x6b64915200)
    - function: _ZNK3re23RE211ReverseProgEv (Address: 0x6b645883c8)
    - function: _ZNSt6__ndk16__treeINS_12__value_typeIPN9grpc_core15XdsLocalityNameENS2_6XdsApi9EdsUpdate8Priority8LocalityEEENS_19__map_value_compareIS4_S9_NS3_4LessELb1EEENS_9allocatorIS9_EEE25__emplace_unique_key_argsIS4_JS4_S8_EEENS_4pairINS_15__tree_iteratorIS9_PNS_11__tree_nodeIS9_PvEElEEbEERKT_DpOT0_ (Address: 0x6b644a8114)
    - function: _ZNSt6__ndk111__money_putIwE13__gather_infoEbbRKNS_6localeERNS_10money_base7patternERwS8_RNS_12basic_stringIcNS_11char_traitsIcEENS_9allocatorIcEEEERNS9_IwNSA_IwEENSC_IwEEEESJ_Ri (Address: 0x6b6471890c)
    - variable: _ZTINSt6__ndk115__codecvt_utf16IDsLb1EEE (Address: 0x6b64914630)
    - function: _ZNK4absl12lts_2021032413time_internal4cctz12TimeZoneInfo6Header10DataLengthEm (Address: 0x6b645fab0c)
    - variable: _ZTIPf (Address: 0x6b64915ed0)
    - variable: envoy_config_route_v3_RouteMatch_TlsContextMatchOptions_msginit (Address: 0x6b648fc690)
    - function: _ZN4absl12lts_2021032417optional_internal13optional_dataINS0_13InlinedVectorIN9grpc_core14PemKeyCertPairELm1ENSt6__ndk19allocatorIS5_EEEELb0EEC2ERKSA_ (Address: 0x6b64507d4c)
    - function: _Z25gsec_aead_crypter_destroyP17gsec_aead_crypter (Address: 0x6b64577368)
    - function: _Z23grpc_attach_md_to_errorP10grpc_error11grpc_mdelem (Address: 0x6b64459570)
    - function: _ZN9grpc_core6ServerD1Ev (Address: 0x6b6444e034)
    - variable: envoy_config_cluster_v3_CircuitBreakers_msginit (Address: 0x6b648fe228)
    - variable: _ZTVNSt6__ndk113basic_istreamIcNS_11char_traitsIcEEEE (Address: 0x6b64912840)
    - variable: udpa_annotations_sensitive_proto_upbdefinit (Address: 0x6b64921578)
    - function: _ZN4absl12lts_2021032413cord_internallsERNSt6__ndk113basic_ostreamIcNS2_11char_traitsIcEEEERKNS1_11CordRepRingE (Address: 0x6b645cba90)
    - function: _ZN9grpc_core13ClientChannelD1Ev (Address: 0x6b643eb1b0)
    - function: _Z37grpc_completion_queue_create_internal23grpc_cq_completion_type20grpc_cq_polling_typeP29grpc_completion_queue_functor (Address: 0x6b64449400)
    - function: _ZN9grpc_core8Resolver6ResultD2Ev (Address: 0x6b643fe208)
    - function: _ZNKSt6__ndk15ctypeIcE8do_widenEc (Address: 0x6b64725c64)
    - variable: _ZTSNSt6__ndk114__num_put_baseE (Address: 0x6b64805c50)
    - function: _ZN9grpc_core6chttp225StreamFlowControlDisabled10MakeActionEv (Address: 0x6b644d08bc)
    - function: _Z31grpc_call_compression_for_levelP9grpc_call22grpc_compression_level (Address: 0x6b64442e88)
    - function: grpc_compression_algorithm_to_message_compression_algorithm (Address: 0x6b64525a38)
    - variable: _ZTSb (Address: 0x6b64807124)
    - function: _ZN9grpc_core14DynamicFilters4Call5UnrefERKNS_13DebugLocationEPKc (Address: 0x6b643f9aa4)
    - variable: _ZTISt10bad_typeid (Address: 0x6b649167c0)
    - function: _ZN9grpc_core6Server8CallData7PublishEmPNS0_13RequestedCallE (Address: 0x6b644517ac)
    - function: _Z27grpc_set_socket_nonblockingii (Address: 0x6b6442c3b4)
    - variable: _ZTSN9grpc_core6Server17ListenerInterfaceE (Address: 0x6b6478c010)
    - function: _ZNSt6__ndk16vectorINS0_IiNS_9allocatorIiEEEENS1_IS3_EEE24__emplace_back_slow_pathIJEEEvDpOT_ (Address: 0x6b645ad8b0)
    - function: _ZN4absl12lts_202103246Status10EqualsSlowERKS1_S3_ (Address: 0x6b645c2b20)
    - function: _ZNSt6__ndk16__treeINS_12__value_typeIN9grpc_core13RefCountedPtrINS2_15XdsLocalityNameEEENS2_23XdsClusterLocalityStats8SnapshotEEENS_19__map_value_compareIS5_S8_NS4_4LessELb1EEENS_9allocatorIS8_EEE25__emplace_unique_key_argsIS5_JRKNS_21piecewise_construct_tENS_5tupleIJRKS5_EEENSJ_IJEEEEEENS_4pairINS_15__tree_iteratorIS8_PNS_11__tree_nodeIS8_PvEElEEbEERKT_DpOT0_ (Address: 0x6b64520ab4)
    - function: _Z20grpc_stream_ref_initP20grpc_stream_refcountiPFvPvP10grpc_errorES1_ (Address: 0x6b6445d4e0)
    - variable: _ZNSt6__ndk110ctype_base5cntrlE (Address: 0x6b648044f8)
    - function: _ZNKSt6__ndk110moneypunctIwLb0EE16do_negative_signEv (Address: 0x6b64711048)
    - variable: _ZTSN9grpc_core20InternallyRefCountedINS_6ServerEEE (Address: 0x6b6477e070)
    - function: _ZNSt6__ndk115basic_streambufIwNS_11char_traitsIwEEE6snextcEv (Address: 0x6b646f280c)
    - function: _Z29grpc_time_averaged_stats_initP24grpc_time_averaged_statsddd (Address: 0x6b6455a1f0)
    - function: _Z19grpc_wakeup_fd_initP14grpc_wakeup_fd (Address: 0x6b64538014)
    - function: upb_msg_field_begin (Address: 0x6b645b7b70)
    - variable: _ZTSNSt6__ndk15ctypeIwEE (Address: 0x6b64804d70)
    - function: _ZN9grpc_core6XdsApiC2EPNS_9XdsClientEPNS_9TraceFlagEPKNS_12XdsBootstrap4NodeE (Address: 0x6b644ea54c)
    - function: _ZNKSt6__ndk17num_getIwNS_19istreambuf_iteratorIwNS_11char_traitsIwEEEEE6do_getES4_S4_RNS_8ios_baseERjRb (Address: 0x6b647010b8)
    - function: _Z31gsec_aead_crypter_decrypt_iovecP17gsec_aead_crypterPKhmPK5iovecmS5_mS3_PmPPc (Address: 0x6b645770a0)
    - function: _Z20gpr_parse_bool_valuePKcPb (Address: 0x6b645b3188)
    - function: _ZN4absl12lts_2021032415Utf8SafeCEscapeENS0_11string_viewE (Address: 0x6b645e76b8)
    - variable: grpc_posix_tcp_server_vtable (Address: 0x6b6491fd98)
    - function: grpc_raw_compressed_byte_buffer_create (Address: 0x6b6443ff88)
    - function: _ZNSt6__ndk112system_errorD2Ev (Address: 0x6b6473f150)
    - variable: _ZTSN9grpc_core6chttp228TransportFlowControlDisabledE (Address: 0x6b6478d750)
    - function: _ZdlPv (Address: 0x6b64744630)
    - function: _ZN4absl12lts_2021032420raw_logging_internal24RawLoggingFullySupportedEv (Address: 0x6b64600ee4)
    - function: _ZNSt6__ndk16__treeINS_12__value_typeIN4absl12lts_2021032411string_viewEPN9grpc_core17XdsHttpFilterImplEEENS_19__map_value_compareIS4_S8_NS_4lessIS4_EELb1EEENS_9allocatorIS8_EEE7destroyEPNS_11__tree_nodeIS8_PvEE (Address: 0x6b64522dfc)
    - function: _Z40grpc_chttp2_incoming_metadata_buffer_addP36grpc_chttp2_incoming_metadata_buffer11grpc_mdelem (Address: 0x6b644d9284)
    - function: _ZNSt11logic_errorC2ERKS_ (Address: 0x6b64731bf4)
    - variable: _ZTIN9grpc_core19LoadBalancingPolicy22TransientFailurePickerE (Address: 0x6b648f2aa0)
    - function: _ZN9grpc_core16ResolverRegistry24AddDefaultPrefixIfNeededEPKc (Address: 0x6b643ff818)
    - function: _Z23grpc_timer_manager_tickv (Address: 0x6b64537194)
    - function: upb_enumdef_ntoi (Address: 0x6b645b743c)
    - variable: _ZTIN9grpc_core15XdsLocalityNameE (Address: 0x6b648f7230)
    - function: _Z16grpc_iomgr_startv (Address: 0x6b6452c490)
    - variable: _ZTSSt11range_error (Address: 0x6b64807454)
    - variable: _ZNSt6__ndk114numeric_limitsIN4absl12lts_202103246int128EE8digits10E (Address: 0x6b647e06d8)
    - variable: google_protobuf_UInt32Value_msginit (Address: 0x6b64902200)
    - function: _ZN9grpc_core9XdsClient12ChannelState13RetryableCallINS1_12AdsCallStateEED2Ev (Address: 0x6b6451dbb4)
    - function: _ZNKSt6__ndk117moneypunct_bynameIcLb0EE11do_groupingEv (Address: 0x6b647117d8)
    - function: _ZN9grpc_core9XdsClient12ChannelState12LrsCallState8Reporter17OnNextReportTimerEPvP10grpc_error (Address: 0x6b64510e98)
    - function: _ZNSt6__ndk16__treeINS_12__value_typeINS_12basic_stringIcNS_11char_traitsIcEENS_9allocatorIcEEEEN9grpc_core6XdsApi15EdsResourceDataEEENS_19__map_value_compareIS7_SB_NS_4lessIS7_EELb1EEENS5_ISB_EEE12__find_equalIS7_EERPNS_16__tree_node_baseIPvEERPNS_15__tree_end_nodeISM_EERKT_ (Address: 0x6b644ffe54)
    - function: _ZNSt12domain_errorD0Ev (Address: 0x6b647448f0)
    - function: _ZNSt6__ndk13mapINS_12basic_stringIcNS_11char_traitsIcEENS_9allocatorIcEEEEN9grpc_core9XdsClient12ChannelState12AdsCallState17ResourceTypeStateENS_4lessIS6_EENS4_INS_4pairIKS6_SB_EEEEED2Ev (Address: 0x6b6450aa64)
    - function: _ZNKSt6__ndk16locale9use_facetERNS0_2idE (Address: 0x6b64724404)
    - function: _ZNSt6__ndk114error_categoryD0Ev (Address: 0x6b6473e3b4)
    - variable: _ZTINSt6__ndk115__codecvt_utf16IDiLb1EEE (Address: 0x6b64914730)
    - function: _Z33grpc_chttp2_hpack_compressor_initP28grpc_chttp2_hpack_compressor (Address: 0x6b644d38c8)
    - function: _ZN9grpc_core18ChildPolicyHandler12UpdateLockedENS_19LoadBalancingPolicy10UpdateArgsE (Address: 0x6b643fb594)
    - function: _ZN9grpc_core17HealthCheckClient9CallState10StartBatchEP30grpc_transport_stream_op_batch (Address: 0x6b64469a58)
    - variable: _ZTVNSt6__ndk17num_putIwNS_19ostreambuf_iteratorIwNS_11char_traitsIwEEEEEE (Address: 0x6b64912ee0)
    - variable: _ZTIN9grpc_core10RefCountedINS_29FakeResolverResponseGeneratorENS_19PolymorphicRefCountELNS_13UnrefBehaviorE0EEE (Address: 0x6b648f78c0)
    - function: _ZN9grpc_core8internal47alts_handshaker_client_check_fields_for_testingEP22alts_handshaker_clientPFv10tsi_resultPvPKhmP21tsi_handshaker_resultES4_bP10grpc_slice (Address: 0x6b64578d40)
    - variable: envoy_type_matcher_v3_StructMatcher_PathSegment_msginit (Address: 0x6b648fd490)
    - function: _ZN4absl12lts_202103245Mutex10ReaderLockEv (Address: 0x6b645dc558)
    - function: _ZN9grpc_core17HealthCheckClientC1ENSt6__ndk112basic_stringIcNS1_11char_traitsIcEENS1_9allocatorIcEEEENS_13RefCountedPtrINS_19ConnectedSubchannelEEEP16grpc_pollset_setNS8_INS_8channelz14SubchannelNodeEEENS8_INS_33ConnectivityStateWatcherInterfaceEEE (Address: 0x6b644682c8)
    - variable: _ZTIN9grpc_core26TlsServerSecurityConnectorE (Address: 0x6b648fde90)
    - function: _ZNSt6__ndk115basic_streambufIcNS_11char_traitsIcEEEC1ERKS3_ (Address: 0x6b646f2574)
    - function: _ZNSt6__ndk16vectorIN4absl12lts_2021032413time_internal4cctz14TransitionTypeENS_9allocatorIS5_EEE7emplaceIJEEENS_11__wrap_iterIPS5_EENSA_IPKS5_EEDpOT_ (Address: 0x6b645fade8)
    - function: _ZN9grpc_core29StaticDataCertificateProviderD0Ev (Address: 0x6b64546458)
    - function: upb_msg_clear (Address: 0x6b645c0f5c)
    - function: _ZN4absl12lts_2021032415OutOfRangeErrorENS0_11string_viewE (Address: 0x6b645c32cc)
    - function: _ZNKSt6__ndk15ctypeIcE10do_tolowerEPcPKc (Address: 0x6b64725b80)
    - function: _ZN3re23NFA12AddToThreadqEPNS_11SparseArrayIPNS0_6ThreadEEEiiRKNS_11StringPieceEPKcS3_ (Address: 0x6b645a09ec)
    - function: _ZN9grpc_core13ClientChannel7DestroyEP20grpc_channel_element (Address: 0x6b643e9d04)
    - function: _Z25grpc_socket_mutator_unrefP19grpc_socket_mutator (Address: 0x6b6452fa64)
    - function: _ZN9grpc_core37FileWatcherCertificateProviderFactory31CreateCertificateProviderConfigERKNS_4JsonEPP10grpc_error (Address: 0x6b644e27dc)
    - function: _ZNK9grpc_core9XdsClient12ChannelState12AdsCallState22IsCurrentCallOnChannelEv (Address: 0x6b6450f388)
    - variable: validate_MapRules_msginit (Address: 0x6b648fe888)
    - variable: _ZTSNSt6__ndk111__money_getIcEE (Address: 0x6b64806230)
    - function: _ZN3re24Prog14BuildEntireDFAENS0_9MatchKindERKNSt6__ndk18functionIFvPKibEEE (Address: 0x6b6459dfd0)
    - function: _ZN9grpc_core32InsecureChannelSecurityConnectorC2ENS_13RefCountedPtrI24grpc_channel_credentialsEENS1_I21grpc_call_credentialsEE (Address: 0x6b6453c0e8)
    - function: _ZNSt6__ndk16vectorIN4absl12lts_2021032411string_viewENS_9allocatorIS3_EEE24__emplace_back_slow_pathIJRKNS_12basic_stringIcNS_11char_traitsIcEENS4_IcEEEEEEEvDpOT_ (Address: 0x6b64575be0)
    - variable: google_protobuf_EnumDescriptorProto_EnumReservedRange_msginit (Address: 0x6b64902500)
    - function: gpr_once_init (Address: 0x6b645b387c)
    - variable: _ZTSN9grpc_core20InternallyRefCountedINS_9XdsClient12ChannelState12AdsCallState13ResourceStateEEE (Address: 0x6b64796550)
    - function: _ZN3re28Compiler9ByteRangeEiib (Address: 0x6b64595ebc)
    - function: _ZN9grpc_core9XdsClient12ChannelState12AdsCallState13ResourceStateC2ERKNSt6__ndk112basic_stringIcNS4_11char_traitsIcEENS4_9allocatorIcEEEESC_b (Address: 0x6b6451e438)
    - function: _ZNKSt6__ndk115__codecvt_utf16IDiLb1EE9do_lengthER9mbstate_tPKcS5_m (Address: 0x6b64729eec)
    - variable: _ZTSNSt6__ndk115basic_streambufIwNS_11char_traitsIwEEEE (Address: 0x6b64803c10)
    - variable: _ZTSN9grpc_core9XdsClient12ChannelState13RetryableCallINS1_12LrsCallStateEEE (Address: 0x6b64796380)
    - function: _ZN3re2lsERNSt6__ndk113basic_ostreamIcNS0_11char_traitsIcEEEERKNS_11StringPieceE (Address: 0x6b64594124)
    - function: _ZN9grpc_core8internal23ServerRetryThrottleDataD0Ev (Address: 0x6b64407f10)
    - function: _Z31grpc_security_handshaker_createP14tsi_handshakerP23grpc_security_connectorPK17grpc_channel_args (Address: 0x6b64439d30)
    - function: _Z29grpc_json_get_string_propertyRKN9grpc_core4JsonEPKcPP10grpc_error (Address: 0x6b6454fb48)
    - function: _ZN9grpc_core10Subchannel16HealthWatcherMap13HealthWatcherD0Ev (Address: 0x6b644113dc)
    - function: _ZNSt6__ndk115basic_streambufIcNS_11char_traitsIcEEE4setpEPcS4_ (Address: 0x6b646f2758)
    - function: _ZN9grpc_core22XdsCertificateProvider23ClusterCertificateState21UpdateRootCertWatcherERKNSt6__ndk112basic_stringIcNS2_11char_traitsIcEENS2_9allocatorIcEEEEP32grpc_tls_certificate_distributor (Address: 0x6b64505a74)
    - function: _ZNSt6__ndk19basic_iosIcNS_11char_traitsIcEEED1Ev (Address: 0x6b646f0ee0)
    - variable: _ZTSN9grpc_core32Chttp2SecureClientChannelFactoryE (Address: 0x6b64777f60)
    - function: _ZNSt6__ndk112basic_stringIwNS_11char_traitsIwEENS_9allocatorIwEEEC2ERKS5_ (Address: 0x6b64735f8c)
    - function: _ZN9grpc_core8Executor11RunClosuresEPKc17grpc_closure_list (Address: 0x6b6452b430)
    - function: _ZNSt6__ndk19to_stringEl (Address: 0x6b6473c5b4)
    - variable: _ZTVN9grpc_core29AwsExternalAccountCredentialsE (Address: 0x6b648fea30)
    - function: _ZNKSt6__ndk17collateIcE10do_compareEPKcS3_S3_S3_ (Address: 0x6b646fd274)
    - function: _ZNSt6__ndk113basic_ostreamIwNS_11char_traitsIwEEElsEPKv (Address: 0x6b646fbedc)
    - variable: _ZTSN9grpc_core20InternallyRefCountedINS_9XdsClient12ChannelStateEEE (Address: 0x6b64796220)
    - variable: _ZTINSt6__ndk110__function6__funcIZN9grpc_core38AsyncConnectivityStateWatcherInterface8NotifierC1ENS2_13RefCountedPtrIS3_EE23grpc_connectivity_stateRKN4absl12lts_202103246StatusERKNS_10shared_ptrINS2_14WorkSerializerEEEEUlvE_NS_9allocatorISI_EEFvvEEE (Address: 0x6b648f4870)
    - variable: grpc_trace_resolver_refcount (Address: 0x6b6491f029)
    - function: _ZNSt6__ndk16vectorIN4absl12lts_2021032419str_format_internal16ParsedFormatBase14ConversionItemENS_9allocatorIS5_EEE21__push_back_slow_pathIS5_EEvOT_ (Address: 0x6b645db714)
    - variable: envoy_config_route_v3_RateLimit_msginit (Address: 0x6b648fcaa0)
    - variable: _ZTSNSt6__ndk117__widen_from_utf8ILm32EEE (Address: 0x6b64804eb0)
    - function: _ZNSt9type_infoD2Ev (Address: 0x6b64744b74)
    - function: _ZNSt6__ndk19basic_iosIwNS_11char_traitsIwEEE7copyfmtERKS3_ (Address: 0x6b646f1d6c)
    - function: _ZN4absl12lts_2021032416TimeFromTimespecE8timespec (Address: 0x6b645e4fa8)
    - function: _ZN9grpc_core13ClientChannel4InitEP20grpc_channel_elementP25grpc_channel_element_args (Address: 0x6b643e9c4c)
    - function: _ZN4absl12lts_2021032413base_internal10AtomicHookIPFNS0_8optionalINSt6__ndk112basic_stringIcNS4_11char_traitsIcEENS4_9allocatorIcEEEEEENS0_11string_viewERKNS0_4CordEEE13DummyFunctionESC_SF_ (Address: 0x6b645c40cc)
    - variable: _ZTSN9grpc_core6chttp221StreamFlowControlBaseE (Address: 0x6b6478d380)
    - function: grpc_call_cancel (Address: 0x6b644418e4)
    - function: _ZNSt6__ndk16vectorIP12grpc_channelNS_9allocatorIS2_EEE21__push_back_slow_pathIS2_EEvOT_ (Address: 0x6b64455974)
    - function: _ZN3re24Prog9DeleteDFAEPNS_3DFAE (Address: 0x6b6459d0cc)
    - function: _ZN4absl12lts_2021032413base_internal8SpinLockC1ENS1_14SchedulingModeE (Address: 0x6b645f1218)
    - function: _ZNSt6__ndk117iostream_categoryEv (Address: 0x6b646fcdc4)
    - variable: _ZTINSt6__ndk110__function6__funcIZN9grpc_core13ClientChannel17SubchannelWrapper14WatcherWrapper25OnConnectivityStateChangeEvEUlvE_NS_9allocatorIS6_EEFvvEEE (Address: 0x6b648f23f0)
    - function: upb_strdup (Address: 0x6b645bca90)
    - function: _ZN9grpc_core4Fork7EnabledEv (Address: 0x6b645b49c0)
    - function: _ZN9grpc_core20DelegatingSubchannel28CancelConnectivityStateWatchEPNS_19SubchannelInterface33ConnectivityStateWatcherInterfaceE (Address: 0x6b6446fef8)
    - function: gprsharp_inf_future (Address: 0x6b643e76fc)
    - function: _Z15grpc_timer_initP10grpc_timerlP12grpc_closure (Address: 0x6b6442d5b4)
    - function: _ZNSt6__ndk115numpunct_bynameIcEC1EPKcm (Address: 0x6b6472aca4)
    - function: grpcsharp_request_call_context_deadline (Address: 0x6b643e72ec)
    - function: _ZNK4absl12lts_2021032411string_view13find_first_ofES1_m (Address: 0x6b645ebfa4)
    - function: _Z40tsi_create_ssl_client_handshaker_factoryPK25tsi_ssl_pem_key_cert_pairPKcS3_PS3_tPP33tsi_ssl_client_handshaker_factory (Address: 0x6b644628b8)
    - function: _ZN4absl12lts_2021032410IsInternalERKNS0_6StatusE (Address: 0x6b645c3450)
    - function: _ZN9grpc_core6chttp225StreamFlowControlDisabled8SentDataEl (Address: 0x6b644d08c8)
    - function: _Z20grpc_cq_internal_refP21grpc_completion_queue (Address: 0x6b64449384)
    - variable: _ZTIN9grpc_core8internal24ThreadInternalsInterfaceE (Address: 0x6b649022e8)
    - function: _ZN3re26Regexp10ParseState10DoCollapseENS_8RegexpOpE (Address: 0x6b645a62e0)
    - variable: grpc_trace_metadata (Address: 0x6b6491f1c8)
    - function: _Z14grpc_inet_ptoniPKcPv (Address: 0x6b6442d564)
    - function: gpr_inf_past (Address: 0x6b645b3b58)
    - variable: _ZTIN9grpc_core37FileWatcherCertificateProviderFactory6ConfigE (Address: 0x6b648f91a0)
    - function: _ZN3re218CaptureNamesWalkerD0Ev (Address: 0x6b645925e4)
    - variable: envoy_config_cluster_v3_Cluster_LbSubsetConfig_msginit (Address: 0x6b648fb208)
    - variable: envoy_config_route_v3_RouteMatch_msginit (Address: 0x6b648fc670)
    - function: _ZNSt16nested_exceptionC2Ev (Address: 0x6b646f03bc)
    - variable: _ZTVSt12domain_error (Address: 0x6b64916510)
    - function: _ZN3re26Regexp10ParseStateC2ENS0_10ParseFlagsERKNS_11StringPieceEPNS_12RegexpStatusE (Address: 0x6b645a3df0)
    - function: _ZNK9grpc_core6Server17GetChannelsLockedEv (Address: 0x6b6444fa70)
    - function: _ZN43grpc_service_account_jwt_access_credentials27cancel_get_request_metadataEP29grpc_credentials_mdelem_arrayP10grpc_error (Address: 0x6b6453e0dc)
    - function: _ZNK9grpc_core6XdsApi9EdsUpdate8ToStringEv (Address: 0x6b644ea1a4)
    - function: _ZNSt6__ndk16__treeINS_12__value_typeINS_12basic_stringIcNS_11char_traitsIcEENS_9allocatorIcEEEEN9grpc_core9XdsClient13EndpointStateEEENS_19__map_value_compareIS7_SB_NS_4lessIS7_EELb1EEENS5_ISB_EEE4findIS7_EENS_15__tree_iteratorISB_PNS_11__tree_nodeISB_PvEElEERKT_ (Address: 0x6b645200dc)
    - function: _ZNSt6__ndk112basic_stringIcNS_11char_traitsIcEENS_9allocatorIcEEE6__initEPKcm (Address: 0x6b64731f00)
    - function: _Z28grpc_lb_policy_priority_initv (Address: 0x6b6447785c)
    - variable: envoy_config_core_v3_TransportSocket_msginit (Address: 0x6b648fb7c8)
    - function: grpc_auth_context_set_peer_identity_property_name (Address: 0x6b64431e54)
    - variable: envoy_config_core_v3_address_proto_upbdefinit (Address: 0x6b64920168)
    - function: _ZN9grpc_core8internal41alts_handshaker_client_set_cb_for_testingEP22alts_handshaker_clientPFv10tsi_resultPvPKhmP21tsi_handshaker_resultE (Address: 0x6b64578f38)
    - function: _ZN9grpc_core13ClientChannel8CallData32ResumePendingBatchInCallCombinerEPvP10grpc_error (Address: 0x6b643f0a38)
    - function: _ZNSt6__ndk112system_errorC2ENS_10error_codeE (Address: 0x6b6473ec38)
    - function: _Z27grpc_auth_json_key_is_validPK18grpc_auth_json_key (Address: 0x6b6453c3d8)
    - variable: envoy_config_overload_v3_Trigger_msginit (Address: 0x6b648fc360)
    - variable: _ZN9grpc_core33grpc_xds_cluster_manager_lb_traceE (Address: 0x6b649249c8)
    - variable: _ZTVSt10bad_typeid (Address: 0x6b64916748)
    - function: _ZN9grpc_core14SubchannelCall3RefEv (Address: 0x6b6440cf4c)
    - function: _ZN9grpc_core6ServerD0Ev (Address: 0x6b6444e398)
    - function: upb_msgdef_field (Address: 0x6b645b7b20)
    - variable: _ZTSNSt6__ndk110__function6__funcIZN9grpc_core13ClientChannel17SubchannelWrapper14WatcherWrapper25OnConnectivityStateChangeEvEUlvE_NS_9allocatorIS6_EEFvvEEE (Address: 0x6b64773dc0)
    - function: _ZNSt6__ndk17promiseIvE24set_value_at_thread_exitEv (Address: 0x6b64740ef0)
    - function: _ZN20TlsServerCredentialsD2Ev (Address: 0x6b645632d0)
    - function: _ZN9grpc_core18HandshakerRegistry4InitEv (Address: 0x6b64524abc)
    - function: _ZNSt6__ndk13mapINS_12basic_stringIcNS_11char_traitsIcEENS_9allocatorIcEEEEN9grpc_core6XdsApi15EdsResourceDataENS_4lessIS6_EENS4_INS_4pairIKS6_S9_EEEEEixERSD_ (Address: 0x6b644ffbd0)
    - function: _ZN4absl12lts_202103245Mutex25ReaderLockWhenWithTimeoutERKNS0_9ConditionENS0_8DurationE (Address: 0x6b645dc898)
    - function: _ZN31grpc_composite_call_credentialsD0Ev (Address: 0x6b644339f4)
    - function: _ZNSt6__ndk15stoldERKNS_12basic_stringIcNS_11char_traitsIcEENS_9allocatorIcEEEEPm (Address: 0x6b6473be5c)
    - function: _Z31grpc_chttp2_add_incoming_goawayP21grpc_chttp2_transportjjRK10grpc_slice (Address: 0x6b644ca218)
    - function: _ZN9grpc_core6Server18RealRequestMatcher12MatchOrQueueEmPNS0_8CallDataE (Address: 0x6b64453b9c)
    - function: _ZNK9grpc_core32InsecureChannelSecurityConnector3cmpEPK23grpc_security_connector (Address: 0x6b6454c734)
    - function: _ZN4absl12lts_2021032413base_internal8SpinLock16EncodeWaitCyclesEll (Address: 0x6b645f1428)
    - function: _ZNSt6__ndk16vectorIN9grpc_core6XdsApi9LdsUpdate14FilterChainMap8SourceIpENS_9allocatorIS5_EEEC2ERKS8_ (Address: 0x6b6451a5f8)
    - function: _ZN4absl12lts_2021032413cord_internal11CordRepRing3NewEmm (Address: 0x6b645cc3d8)
    - variable: _ZTSNSt6__ndk18ios_base7failureE (Address: 0x6b64803b70)
    - function: _ZN4absl12lts_202103246Status11EmptyStringEv (Address: 0x6b645c2738)
    - variable: _ZTSPs (Address: 0x6b64807164)
    - function: _ZNSt6__ndk114__split_bufferINS_10unique_ptrIN9grpc_core20ProxyMapperInterfaceENS_14default_deleteIS3_EEEERNS_9allocatorIS6_EEE9push_backEOS6_ (Address: 0x6b643fde7c)
    - function: _ZN4absl12lts_2021032413InlinedVectorIN9grpc_core14PemKeyCertPairELm1ENSt6__ndk19allocatorIS3_EEED2Ev (Address: 0x6b64507a28)
    - function: _ZN21grpc_chttp2_transportD2Ev (Address: 0x6b644c7b7c)
    - function: _ZN3re23RE2C1ERKNS_11StringPieceERKNS0_7OptionsE (Address: 0x6b64587af0)
    - function: _ZN9grpc_core6ServerC2EPK17grpc_channel_args (Address: 0x6b6444dda4)
    - function: _ZN9grpc_core20GetAuthPropertyValueEP17grpc_auth_contextPKc (Address: 0x6b64563b54)
    - function: _ZN4absl12lts_2021032417internal_statusor12StatusOrDataIN9grpc_core13HeaderMatcherEED2Ev (Address: 0x6b644fb444)
    - variable: _ZNSt6__ndk114numeric_limitsIN4absl12lts_202103247uint128EE12max_exponentE (Address: 0x6b647e06b0)
    - function: _ZN28start_timer_after_init_stateD2Ev (Address: 0x6b64413090)
    - function: _ZNSt6__ndk117__assoc_sub_state9set_valueEv (Address: 0x6b6473fe58)
    - function: _Z21grpc_pollset_shutdownP12grpc_pollsetP12grpc_closure (Address: 0x6b6452cd9c)
    - function: _ZN9grpc_core31ModifyGrpclbBalancerChannelArgsEP17grpc_channel_args (Address: 0x6b644735cc)
    - function: _ZN9grpc_core4JsonaSEPKc (Address: 0x6b6448fd20)
    - function: _ZN9grpc_core29GetMaxRecvSizeFromChannelArgsEPK17grpc_channel_args (Address: 0x6b644c2e10)
    - function: _ZNK9grpc_core9XdsClient12ChannelState9ads_calldEv (Address: 0x6b645093f0)
    - function: _ZN3re28Compiler5SetupENS_6Regexp10ParseFlagsElNS_3RE26AnchorE (Address: 0x6b64597dbc)
    - function: _ZN4absl12lts_2021032416strings_internal11BigUnsignedILi4EE12AddWithCarryEij (Address: 0x6b645ee4e0)
    - function: _ZN9grpc_core12FakeResolverC1ENS_12ResolverArgsE (Address: 0x6b644a9ba4)
    - function: _ZN3re23DFAD2Ev (Address: 0x6b6459a5bc)
    - variable: _ZTINSt6__ndk112future_errorE (Address: 0x6b64915740)
    - function: _ZN3re26Regexp9HaveMatchEiNS0_10ParseFlagsE (Address: 0x6b6458f1ec)
    - function: gpr_mu_init (Address: 0x6b645b37a8)
    - function: _ZNKSt6__ndk112basic_stringIwNS_11char_traitsIwEENS_9allocatorIwEEE4findEPKwmm (Address: 0x6b64738920)
    - function: _ZNK9grpc_core21DefaultConfigSelector6EqualsEPKNS_14ConfigSelectorE (Address: 0x6b643f8d78)
    - function: _ZN9grpc_core4JsonC2ERKNSt6__ndk13mapINS1_12basic_stringIcNS1_11char_traitsIcEENS1_9allocatorIcEEEES0_NS1_4lessIS8_EENS6_INS1_4pairIKS8_S0_EEEEEE (Address: 0x6b6448ebc4)
    - variable: envoy_type_tracing_v3_CustomTag_Environment_msginit (Address: 0x6b648fd5c0)
    - function: _ZN4absl12lts_202103249ByAnyCharC1ENS0_11string_viewE (Address: 0x6b645eb954)
    - function: _Z27grpc_security_connector_cmpPK23grpc_security_connectorS1_ (Address: 0x6b644367a8)
    - variable: _ZTVN9grpc_core8internal23ServerRetryThrottleDataE (Address: 0x6b648f3090)
    - variable: envoy_type_matcher_v3_StructMatcher_msginit (Address: 0x6b648fd478)
    - variable: _ZTIN9grpc_core19ConnectivityWatcherE (Address: 0x6b648f8460)
    - function: _Z10grpc_htonst (Address: 0x6b6442d53c)
    - function: _Z41gpr_global_config_get_grpc_abort_on_leaksv (Address: 0x6b6452c290)
    - function: _Z31grpc_combiner_continue_exec_ctxv (Address: 0x6b6452a6a8)
    - variable: _ZN4absl12lts_2021032419str_format_internal28FormatConversionCharInternal1EE (Address: 0x6b647dae03)
    - variable: _ZTSNSt6__ndk115__codecvt_utf16IDiLb0EEE (Address: 0x6b64805030)
    - function: _ZNSt6__ndk17promiseIvE10get_futureEv (Address: 0x6b64740c78)
    - variable: _ZN9grpc_core29grpc_trace_lb_policy_refcountE (Address: 0x6b6491f028)
    - function: _ZNSt6__ndk16vectorIN9grpc_core13HeaderMatcherENS_9allocatorIS2_EEE10deallocateEv (Address: 0x6b644b85dc)
    - variable: _ZTIN10__cxxabiv119__pointer_type_infoE (Address: 0x6b64915830)
    - function: _ZN9grpc_core14DynamicFiltersD2Ev (Address: 0x6b643f9d9c)
    - function: _ZN4absl12lts_202103244Cord5ClearEv (Address: 0x6b645c5a00)
    - variable: _ZTSNSt6__ndk19basic_iosIwNS_11char_traitsIwEEEE (Address: 0x6b64803be0)
    - variable: envoy_extensions_filters_network_http_connection_manager_v3_ScopedRoutes_ScopeKeyBuilder_msginit (Address: 0x6b648fcf20)
    - variable: _ZTSN3re214CoalesceWalkerE (Address: 0x6b647cd890)
    - variable: _ZTI20TlsServerCredentials (Address: 0x6b648fdc50)
    - function: _ZN4absl12lts_2021032419str_format_internal17FormatConvertImplEsNS1_24FormatConversionSpecImplEPNS1_14FormatSinkImplE (Address: 0x6b645d0448)
    - function: _ZN4absl12lts_202103247CondVar9SignalAllEv (Address: 0x6b645df6f4)
    - function: _ZN9grpc_core27CertificateProviderRegistry32LookupCertificateProviderFactoryEN4absl12lts_2021032411string_viewE (Address: 0x6b644e0ef0)
    - function: _ZN4absl12lts_202103249ConditionC1EPFbPvES2_ (Address: 0x6b645df8f4)
    - variable: envoy_config_cluster_v3_CircuitBreakers_Thresholds_RetryBudget_msginit (Address: 0x6b648fe278)
    - function: _Z52grpc_iomgr_platform_add_closure_to_background_pollerP12grpc_closureP10grpc_error (Address: 0x6b6452ca3c)
    - function: _Z23grpc_set_pollset_vtableP19grpc_pollset_vtable (Address: 0x6b6452cd50)
    - function: _ZNSt6__ndk114codecvt_bynameIDic9mbstate_tED1Ev (Address: 0x6b64719b30)
    - function: _ZNSt6__ndk113basic_istreamIwNS_11char_traitsIwEEE8readsomeEPwl (Address: 0x6b646f8350)
    - function: _ZNSt6__ndk16locale5facetD2Ev (Address: 0x6b646fd24c)
    - function: _ZNKSt6__ndk17num_getIwNS_19istreambuf_iteratorIwNS_11char_traitsIwEEEEE15__do_get_signedIlEES4_S4_S4_RNS_8ios_baseERjRT_ (Address: 0x6b64701810)
    - function: _Z36tsi_zero_copy_grpc_protector_destroyP28tsi_zero_copy_grpc_protector (Address: 0x6b64465914)
    - function: _Z39grpc_resource_quota_get_memory_pressureP19grpc_resource_quota (Address: 0x6b6452de14)
    - function: grpc_byte_buffer_reader_next (Address: 0x6b6444047c)
    - function: _ZNSt6__ndk16__treeINS_12__value_typeIPN32grpc_tls_certificate_distributor31TlsCertificatesWatcherInterfaceENS2_11WatcherInfoEEENS_19__map_value_compareIS4_S6_NS_4lessIS4_EELb1EEENS_9allocatorIS6_EEE7destroyEPNS_11__tree_nodeIS6_PvEE (Address: 0x6b645083d0)
    - function: _ZN4absl12lts_2021032414CancelledErrorENS0_11string_viewE (Address: 0x6b645c3208)
    - function: _ZNKSt6__ndk120__time_get_c_storageIwE7__weeksEv (Address: 0x6b6472b6f4)
    - function: grpc_message_compression_algorithm_name (Address: 0x6b64525afc)
    - variable: _ZTIN9grpc_core10Subchannel16HealthWatcherMap13HealthWatcherE (Address: 0x6b648f32b0)
    - function: _ZN4absl12lts_2021032416strings_internal11BigUnsignedILi4EE8Digits10Ev (Address: 0x6b645ed99c)
    - variable: validate_Int32Rules_msginit (Address: 0x6b648fe6f8)
    - variable: _ZTSN3tsi16SslCachedSessionE (Address: 0x6b647c00e0)
    - function: grpc_channel_create_registered_call (Address: 0x6b64447ba4)
    - function: _ZN4absl12lts_2021032416strings_internal9JoinRangeINSt6__ndk111__wrap_iterIPKNS0_11string_viewEEEEENS3_12basic_stringIcNS3_11char_traitsIcEENS3_9allocatorIcEEEET_SF_S5_ (Address: 0x6b64575d3c)
    - function: _ZN9grpc_core3URIC2ERKS0_ (Address: 0x6b644607dc)
    - function: _ZN9grpc_core9XdsClient12ChannelStateC1ENS_17WeakRefCountedPtrIS0_EERKNS_12XdsBootstrap9XdsServerE (Address: 0x6b64508df8)
    - function: _ZNKSt6__ndk18time_getIwNS_19istreambuf_iteratorIwNS_11char_traitsIwEEEEE14do_get_weekdayES4_S4_RNS_8ios_baseERjP2tm (Address: 0x6b6470c1fc)
    - function: _Z18grpc_security_initv (Address: 0x6b6444d468)
    - variable: _ZTVNSt6__ndk114collate_bynameIwEE (Address: 0x6b64913a68)
    - function: _ZN4absl12lts_2021032420raw_logging_internal21RegisterLogPrefixHookEPFbNS0_11LogSeverityEPKciPPcPiE (Address: 0x6b64600f14)
    - function: _ZNSt6__ndk19__num_getIwE17__stage2_int_prepERNS_8ios_baseEPwRw (Address: 0x6b64705704)
    - variable: g_flow_control_enabled (Address: 0x6b6491f5b1)
    - variable: _ZTSPo (Address: 0x6b648071d0)
    - function: _ZN3re212StringPrintfEPKcz (Address: 0x6b645948f0)
    - function: _ZnamRKSt9nothrow_t (Address: 0x6b64744604)
    - function: _ZNKSt6__ndk19money_getIcNS_19istreambuf_iteratorIcNS_11char_traitsIcEEEEE6do_getES4_S4_bRNS_8ios_baseERjRNS_12basic_stringIcS3_NS_9allocatorIcEEEE (Address: 0x6b64714c0c)
    - variable: envoy_config_core_v3_SubstitutionFormatString_msginit (Address: 0x6b648fe2e0)
    - function: _ZNSt6__ndk16__treeINS_12__value_typeINS_12basic_stringIcNS_11char_traitsIcEENS_9allocatorIcEEEEN9grpc_core30FileWatcherCertificateProvider11WatcherInfoEEENS_19__map_value_compareIS7_SB_NS_4lessIS7_EELb1EEENS5_ISB_EEE7destroyEPNS_11__tree_nodeISB_PvEE (Address: 0x6b64548ca4)
    - variable: google_protobuf_GeneratedCodeInfo_msginit (Address: 0x6b649026f8)
    - variable: envoy_config_bootstrap_v3_ClusterManager_msginit (Address: 0x6b648faee0)
    - function: _ZNSt6__ndk16__treeINS_12__value_typeINS_12basic_stringIcNS_11char_traitsIcEENS_9allocatorIcEEEEN9grpc_core23XdsClusterLocalityStats13BackendMetricEEENS_19__map_value_compareIS7_SB_NS_4lessIS7_EELb1EEENS5_ISB_EEE7destroyEPNS_11__tree_nodeISB_PvEE (Address: 0x6b6451c870)
    - function: _ZN4absl12lts_2021032413base_internal23ThrowStdInvalidArgumentERKNSt6__ndk112basic_stringIcNS2_11char_traitsIcEENS2_9allocatorIcEEEE (Address: 0x6b645f0674)
    - function: _ZNSt15underflow_errorD2Ev (Address: 0x6b64744838)
    - function: _ZN27grpc_ssl_server_credentialsD0Ev (Address: 0x6b64435f54)
    - function: _ZN4absl12lts_2021032416strings_internal14CordTestAccess11LengthToTagEm (Address: 0x6b645c99e0)
    - function: _ZN4absl12lts_202103248DurationmIES1_ (Address: 0x6b645e1db0)
    - variable: _ZTVNSt6__ndk19basic_iosIcNS_11char_traitsIcEEEE (Address: 0x6b64912780)
    - function: _ZNSt6__ndk112basic_stringIwNS_11char_traitsIwEENS_9allocatorIwEEE7replaceEmmRKS5_mm (Address: 0x6b64738204)
    - function: _ZN30grpc_server_security_connectorD2Ev (Address: 0x6b64436678)
    - function: _Z17grpc_msg_compress34grpc_message_compression_algorithmP17grpc_slice_bufferS1_ (Address: 0x6b64525e80)
    - variable: _ZTSN9grpc_core23SubchannelPoolInterfaceE (Address: 0x6b647747b0)
    - function: _Z30grpc_chttp2_hpack_parser_parseP24grpc_chttp2_hpack_parserRK10grpc_slice (Address: 0x6b644d55a8)
    - function: _ZNSt6__ndk16__treeINS_12__value_typeINS_12basic_stringIcNS_11char_traitsIcEENS_9allocatorIcEEEEN9grpc_core6XdsApi9LdsUpdate14FilterChainMap8SourceIpEEENS_19__map_value_compareIS7_SD_NS_4lessIS7_EELb1EEENS5_ISD_EEE12__find_equalIS7_EERPNS_16__tree_node_baseIPvEERPNS_15__tree_end_nodeISO_EERKT_ (Address: 0x6b644fef14)
    - function: _ZNSt6__ndk13setIPN32grpc_tls_certificate_distributor31TlsCertificatesWatcherInterfaceENS_4lessIS3_EENS_9allocatorIS3_EEED2Ev (Address: 0x6b6450837c)
    - function: _ZNSt6__ndk110__function6__funcIN4absl12lts_2021032419functional_internal11FrontBinderIMN9grpc_core22XdsCertificateProviderEFvNS_12basic_stringIcNS_11char_traitsIcEENS_9allocatorIcEEEEbbEJPS7_EEENSB_ISH_EEFvSD_bbEE18destroy_deallocateEv (Address: 0x6b645084e0)
    - function: _ZN9grpc_core13ServiceConfig21ParseJsonMethodConfigEPK17grpc_channel_argsRKNS_4JsonE (Address: 0x6b6440a5b0)
    - function: _ZN9grpc_core18ChildPolicyHandler14ExitIdleLockedEv (Address: 0x6b643fbb24)
    - variable: grpc_combiner_trace (Address: 0x6b6491fcf8)
    - variable: _ZTSf (Address: 0x6b648071e8)
    - variable: _ZTSNSt6__ndk120__time_get_c_storageIcEE (Address: 0x6b64805d50)
    - function: _ZNK3re23RE218PossibleMatchRangeEPNSt6__ndk112basic_stringIcNS1_11char_traitsIcEENS1_9allocatorIcEEEES8_i (Address: 0x6b6458a29c)
    - function: grpcsharp_batch_context_recv_status_on_client_details (Address: 0x6b643e725c)
    - function: _ZN9grpc_core13ServerAddressC1EOS0_ (Address: 0x6b6440886c)
    - variable: _ZTVN3re217NumCapturesWalkerE (Address: 0x6b648ff198)
    - function: _ZN9grpc_core9XdsClient12ChannelState12LrsCallState25MaybeStartReportingLockedEv (Address: 0x6b64510684)
    - function: _Z15grpc_avl_remove8grpc_avlPvS0_ (Address: 0x6b644173f4)
    - function: _ZN9grpc_core27TlsChannelSecurityConnector33CreateTlsChannelSecurityConnectorENS_13RefCountedPtrI24grpc_channel_credentialsEENS1_I28grpc_tls_credentials_optionsEENS1_I21grpc_call_credentialsEEPKcS9_P21tsi_ssl_session_cache (Address: 0x6b64564b74)
    - function: grpcsharp_server_add_secure_http2_port (Address: 0x6b643e84f0)
    - function: _ZNSt6__ndk19money_getIwNS_19istreambuf_iteratorIwNS_11char_traitsIwEEEEE8__do_getERS4_S4_bRKNS_6localeEjRjRbRKNS_5ctypeIwEERNS_10unique_ptrIwPFvPvEEERPwSM_ (Address: 0x6b647157c4)
    - function: _ZN9grpc_core16HandshakeManager24CallNextHandshakerLockedEP10grpc_error (Address: 0x6b64524018)
    - function: _ZN9grpc_core17HealthCheckClient9CallState16OnByteStreamNextEPvP10grpc_error (Address: 0x6b6446a308)
    - function: _ZNSt6__ndk119__shared_weak_countD1Ev (Address: 0x6b64730f08)
    - function: _ZN4absl12lts_2021032417internal_statusor22ThrowBadStatusOrAccessENS0_6StatusE (Address: 0x6b645b1d28)
    - function: _ZNKSt13runtime_error4whatEv (Address: 0x6b647448e8)
    - function: _ZN9grpc_core13ClientChannel26ClientChannelControlHelper19RequestReresolutionEv (Address: 0x6b643f7950)
    - variable: google_protobuf_Timestamp_msginit (Address: 0x6b64902170)
    - variable: envoy_config_bootstrap_v3_Bootstrap_DynamicResources_msginit (Address: 0x6b648fae68)
    - function: _ZNKSt6__ndk18time_getIcNS_19istreambuf_iteratorIcNS_11char_traitsIcEEEEE18__get_day_year_numERiRS4_S4_RjRKNS_5ctypeIcEE (Address: 0x6b6470b1ac)
    - variable: _ZN9grpc_core13ClientChannel13kFilterVtableE (Address: 0x6b648f1d30)
    - function: _ZNSt6__ndk114__split_bufferIN9grpc_core6XdsApi5Route10HashPolicyERNS_9allocatorIS4_EEED2Ev (Address: 0x6b644fbb28)
    - variable: _ZTVN9grpc_core8internal24RetryServiceConfigParserE (Address: 0x6b648f2fc0)
    - function: _ZNSt6__ndk113basic_ostreamIcNS_11char_traitsIcEEE5flushEv (Address: 0x6b6458cec4)
    - variable: grpc_http_client_filter (Address: 0x6b648fa990)
    - function: _ZN3re23DFA9SearchFTFEPNS0_12SearchParamsE (Address: 0x6b6459ca04)
    - function: _ZN9grpc_core9XdsClient12ChannelState11StopLrsCallEv (Address: 0x6b64509658)
    - function: _ZNSt6__ndk17promiseIvEC2Ev (Address: 0x6b647409f4)
    - function: _ZN9grpc_core13HeaderMatcheraSEOS0_ (Address: 0x6b64539a3c)
    - function: _ZN9grpc_core9XdsClient12ChannelState12AdsCallStateD0Ev (Address: 0x6b6450abbc)
    - function: _ZNKSt6__ndk18numpunctIcE16do_thousands_sepEv (Address: 0x6b6472abf8)
    - function: _ZNSt6__ndk19to_stringEd (Address: 0x6b6473ce8c)
    - function: _ZNSt6__ndk16__treeINS_12__value_typeINS_12basic_stringIcNS_11char_traitsIcEENS_9allocatorIcEEEEN9grpc_core24CertificateProviderStore16PluginDefinitionEEENS_19__map_value_compareIS7_SB_NS_4lessIS7_EELb1EEENS5_ISB_EEE12__find_equalIS7_EERPNS_16__tree_node_baseIPvEENS_21__tree_const_iteratorISB_PNS_11__tree_nodeISB_SK_EElEERPNS_15__tree_end_nodeISM_EESN_RKT_ (Address: 0x6b6451f720)
    - function: _ZN24grpc_channel_credentials34duplicate_without_call_credentialsEv (Address: 0x6b644365f0)
    - function: _Z24alts_counter_get_counterP12alts_counter (Address: 0x6b6457c9f8)
    - function: __cxa_current_exception_type (Address: 0x6b64741578)
    - variable: _ZTIN9grpc_core19PolymorphicRefCountE (Address: 0x6b648f2218)
    - function: _ZN9grpc_core6chttp216FlowControlTrace6FinishEv (Address: 0x6b644d0a58)
    - function: _ZNK9grpc_core28ServerAddressWeightAttribute4CopyEv (Address: 0x6b644a30bc)
    - variable: _ZTISt16nested_exception (Address: 0x6b64912770)
    - function: inflateGetDictionary (Address: 0x6b645831cc)
    - function: _ZN9grpc_core13SubchannelKeyC2EOS0_ (Address: 0x6b64412980)
    - function: _Z37grpc_channel_stack_builder_set_targetP26grpc_channel_stack_builderPKc (Address: 0x6b64419934)
    - variable: _ZTV42grpc_tls_server_authorization_check_config (Address: 0x6b648fdb70)
    - function: _ZN4absl12lts_2021032413base_internal20ThrowStdRuntimeErrorEPKc (Address: 0x6b645f0a3c)
    - function: _ZN9grpc_core13ClientChannel8CallDataD2Ev (Address: 0x6b643f0054)
    - variable: _ZNSt6__ndk114numeric_limitsIN4absl12lts_202103247uint128EE8digits10E (Address: 0x6b647e069c)
    - function: _Z40gpr_global_config_get_grpc_poll_strategyv (Address: 0x6b64559774)
    - function: _ZNK4absl12lts_202103249Condition4EvalEv (Address: 0x6b645dca68)
    - function: _ZN3re24ProgC1Ev (Address: 0x6b645a9248)
    - variable: envoy_extensions_filters_network_http_connection_manager_v3_ScopedRds_msginit (Address: 0x6b648fcf98)
    - function: _ZTv0_n24_NSt6__ndk113basic_ostreamIcNS_11char_traitsIcEEED1Ev (Address: 0x6b6458bc98)
    - function: _Z69grpc_service_account_jwt_access_credentials_create_from_auth_json_key18grpc_auth_json_key12gpr_timespecNSt6__ndk112basic_stringIcNS1_11char_traitsIcEENS1_9allocatorIcEEEEb (Address: 0x6b6453e254)
    - variable: xds_core_v3_CollectionEntry_msginit (Address: 0x6b648fd6f0)
    - function: _ZNKSt6__ndk117moneypunct_bynameIwLb0EE16do_thousands_sepEv (Address: 0x6b647128f0)
    - function: _ZN4absl12lts_202103247CondVar6SignalEv (Address: 0x6b645df588)
    - function: grpc_ssl_server_credentials_create (Address: 0x6b644363c0)
    - variable: _ZNSt6__ndk16locale8messagesE (Address: 0x6b648044e0)
    - function: _ZN9grpc_core17HealthCheckClient9CallStateD1Ev (Address: 0x6b644694b8)
    - variable: _ZTINSt6__ndk110__function6__funcIZN9grpc_core13ClientChannel17SubchannelWrapper14WatcherWrapperD1EvEUlvE_NS_9allocatorIS6_EEFvvEEE (Address: 0x6b648f2370)
    - function: _Z40grpc_lb_policy_xds_cluster_impl_shutdownv (Address: 0x6b644906a8)
    - function: _ZN9grpc_core24ConnectivityStateTracker13RemoveWatcherEPNS_33ConnectivityStateWatcherInterfaceE (Address: 0x6b64456e6c)
    - function: _Z37grpc_resource_user_finish_reclamationP18grpc_resource_user (Address: 0x6b6452f1a0)
    - function: _Z38grpc_chttp2_list_add_stalled_by_streamP21grpc_chttp2_transportP18grpc_chttp2_stream (Address: 0x6b644db944)
    - function: _ZNKSt6__ndk115__codecvt_utf16IDiLb1EE16do_always_noconvEv (Address: 0x6b64729ee4)
    - function: _ZN9grpc_core16HandshakeManager20CallNextHandshakerFnEPvP10grpc_error (Address: 0x6b645244f0)
    - function: upb_fielddef_isseq (Address: 0x6b645b76f8)
    - variable: _ZTIN4absl12lts_2021032413time_internal4cctz10TimeZoneIfE (Address: 0x6b64902a58)
    - function: _Z51tsi_ssl_server_handshaker_factory_create_handshakerP33tsi_ssl_server_handshaker_factoryPP14tsi_handshaker (Address: 0x6b64462838)
    - function: _ZNK9grpc_core18ChildPolicyHandler25CreateLoadBalancingPolicyEPKcNS_19LoadBalancingPolicy4ArgsE (Address: 0x6b643fbc10)
    - function: _ZN9grpc_core23XdsClusterLocalityStatsD0Ev (Address: 0x6b6452263c)
    - function: _ZNSt6__ndk115numpunct_bynameIcEC2ERKNS_12basic_stringIcNS_11char_traitsIcEENS_9allocatorIcEEEEm (Address: 0x6b6472af18)
    - variable: _ZTSN9grpc_core20InternallyRefCountedINS_8ResolverEEE (Address: 0x6b64774fd0)
    - function: grpcsharp_metadata_array_add (Address: 0x6b643e6bdc)
    - function: _ZN9grpc_core10Subchannel33ConnectivityStateWatcherInterface26PopConnectivityStateChangeEv (Address: 0x6b6440df4c)
    - function: _ZNK9grpc_core13ClientChannel33GetConnectedSubchannelInDataPlaneEPNS_19SubchannelInterfaceE (Address: 0x6b643efa24)
    - function: _ZN9grpc_core14RegisteredCallC1ERKS0_ (Address: 0x6b64447318)
    - function: _ZN17grpc_auth_context15ensure_capacityEv (Address: 0x6b644322ac)
    - function: _Z24grpc_transport_op_stringP17grpc_transport_op (Address: 0x6b6445e7a8)
    - function: _ZN4absl12lts_202103245Mutex24EnableInvariantDebuggingEPFvPvES2_ (Address: 0x6b645dbef0)
    - function: _ZN9grpc_core14XdsCredentials25create_security_connectorENS_13RefCountedPtrI21grpc_call_credentialsEEPKcPK17grpc_channel_argsPPS6_ (Address: 0x6b6454a3ac)
    - function: upb_fielddef_hassubdef (Address: 0x6b645b7774)
    - function: _ZN9grpc_core17ExtractJsonStringINSt6__ndk16vectorIP10grpc_errorNS1_9allocatorIS4_EEEEEEbRKNS_4JsonERKNS1_12basic_stringIcNS1_11char_traitsIcEENS5_IcEEEEPSF_PT_ (Address: 0x6b644be1b4)
    - variable: _ZTIN9grpc_core9XdsClient12ChannelState12StateWatcherE (Address: 0x6b648f9710)
    - function: _ZN4absl12lts_202103246StrCatERKNS0_8AlphaNumES3_ (Address: 0x6b645ea4a8)
    - function: _ZNK4absl12lts_202103245Mutex16AssertReaderHeldEv (Address: 0x6b645dcd8c)
    - function: _ZNSt6__ndk117bad_function_callD0Ev (Address: 0x6b643f9460)
    - function: _ZN9grpc_core28UnixAbstractSockaddrPopulateEN4absl12lts_2021032411string_viewEP21grpc_resolved_address (Address: 0x6b64415414)
    - variable: _ZTIN9grpc_core18ChildPolicyHandler6HelperE (Address: 0x6b648f2c50)
    - function: _ZN17grpc_event_engine12experimental25DefaultEventEngineFactoryEv (Address: 0x6b64527d0c)
    - function: upb_inttable_iter_setdone (Address: 0x6b645be978)
    - function: _ZN4absl12lts_2021032417optional_internal13optional_dataINSt6__ndk112basic_stringIcNS3_11char_traitsIcEENS3_9allocatorIcEEEELb0EEaSEOSA_ (Address: 0x6b643f5244)
    - variable: _ZTIN9grpc_core15Chttp2ConnectorE (Address: 0x6b648f8610)
    - function: _ZN9grpc_core22MakeLameClientErrorArgEP10grpc_error (Address: 0x6b6444d46c)
    - function: _ZNSt6__ndk115recursive_mutexD1Ev (Address: 0x6b647312f8)
    - function: _ZN4absl12lts_20210324rmENS0_7uint128ES1_ (Address: 0x6b645f1ea4)
    - function: _ZN9grpc_core12FakeResolver11StartLockedEv (Address: 0x6b644aa158)
    - function: _ZN4absl12lts_2021032413time_internal4cctz14ParsePosixSpecERKNSt6__ndk112basic_stringIcNS3_11char_traitsIcEENS3_9allocatorIcEEEEPNS2_13PosixTimeZoneE (Address: 0x6b64600390)
    - function: _ZNKSt6__ndk17num_getIcNS_19istreambuf_iteratorIcNS_11char_traitsIcEEEEE6do_getES4_S4_RNS_8ios_baseERjRPv (Address: 0x6b647006fc)
    - function: _ZN3re23RE23Arg17parse_short_octalEPKcmPv (Address: 0x6b6458b4ac)
    - function: _Z17grpc_pollset_workP12grpc_pollsetPP19grpc_pollset_workerl (Address: 0x6b6452cdc4)
    - function: _ZN9grpc_core20GlobalSubchannelPool18RegisterSubchannelERKNS_13SubchannelKeyENS_13RefCountedPtrINS_10SubchannelEEE (Address: 0x6b643fa190)
    - variable: _ZN9grpc_core30kInsecureTransportSecurityTypeE (Address: 0x6b6479e070)
    - function: _ZNK9grpc_core6XdsApi9LdsUpdate14FilterChainMap9CidrRange8ToStringEv (Address: 0x6b644e728c)
    - function: _ZN12closure_impl15closure_wrapperEPvP10grpc_error (Address: 0x6b643f5e24)
    - function: _ZN4absl12lts_202103248DurationrMES1_ (Address: 0x6b645e2488)
    - function: _ZN27grpc_ssl_server_credentials25create_security_connectorEPK17grpc_channel_args (Address: 0x6b64435f78)
    - function: _ZN9grpc_core13PidController6UpdateEdd (Address: 0x6b64551198)
    - function: _Z39grpc_tsi_ssl_pem_key_cert_pairs_destroyP25tsi_ssl_pem_key_cert_pairm (Address: 0x6b64435670)
    - function: _ZNSt6__ndk16__treeINS_12__value_typeINS_12basic_stringIcNS_11char_traitsIcEENS_9allocatorIcEEEEN32grpc_tls_certificate_distributor15CertificateInfoEEENS_19__map_value_compareIS7_SA_NS_4lessIS7_EELb1EEENS5_ISA_EEE16__construct_nodeIJRKNS_21piecewise_construct_tENS_5tupleIJRKS7_EEENSL_IJEEEEEENS_10unique_ptrINS_11__tree_nodeISA_PvEENS_22__tree_node_destructorINS5_IST_EEEEEEDpOT_ (Address: 0x6b645454dc)
    - function: grpc_stream_compression_algorithm_parse (Address: 0x6b64525dec)
    - function: _ZNSt6__ndk16__treeINS_12__value_typeINS_12basic_stringIcNS_11char_traitsIcEENS_9allocatorIcEEEENS_6vectorIN9grpc_core13StringMatcherENS5_ISA_EEEEEENS_19__map_value_compareIS7_SD_NS_4lessIS7_EELb1EEENS5_ISD_EEE12__find_equalIS7_EERPNS_16__tree_node_baseIPvEERPNS_15__tree_end_nodeISO_EERKT_ (Address: 0x6b64508bd8)
    - function: _ZN4absl12lts_202103244CordaSENS0_11string_viewE (Address: 0x6b645c4688)
    - function: _ZNSt6__ndk16__treeINS_12__value_typeItN9grpc_core6XdsApi9LdsUpdate14FilterChainMap24FilterChainDataSharedPtrEEENS_19__map_value_compareItS7_NS_4lessItEELb1EEENS_9allocatorIS7_EEE12__find_equalItEERPNS_16__tree_node_baseIPvEENS_21__tree_const_iteratorIS7_PNS_11__tree_nodeIS7_SH_EElEERPNS_15__tree_end_nodeISJ_EESK_RKT_ (Address: 0x6b6451a8a4)
    - function: _ZN9grpc_core13SubchannelKeyC1ERKS0_ (Address: 0x6b64412914)
    - function: _ZNSt6__ndk113basic_ostreamIwNS_11char_traitsIwEEE3putEw (Address: 0x6b646fc310)
    - function: _ZNSt6__ndk115basic_streambufIwNS_11char_traitsIwEEE5sputnEPKwl (Address: 0x6b646f2968)
    - function: _ZN9grpc_core8internal31ClientChannelMethodParsedConfigD0Ev (Address: 0x6b64401180)
    - variable: envoy_admin_v3_RoutesConfigDump_DynamicRouteConfig_msginit (Address: 0x6b648fabe0)
    - function: _ZN20grpc_ssl_credentialsD2Ev (Address: 0x6b644357f0)
    - function: _ZN9grpc_core19ServiceConfigParser12ParsedConfigD2Ev (Address: 0x6b6440117c)
    - function: upb_status_vseterrf (Address: 0x6b645bffa4)
    - variable: _ZNSt6__ndk110moneypunctIcLb1EE4intlE (Address: 0x6b648055d9)
    - function: _Z51alts_grpc_record_protocol_max_unprotected_data_sizePK25alts_grpc_record_protocolm (Address: 0x6b6457b748)
    - function: _ZNSt6__ndk114__split_bufferIPPN3re23DFA5StateERNS_9allocatorIS5_EEE9push_backEOS5_ (Address: 0x6b645a0078)
    - function: _Z34alts_grpc_handshaker_client_createP19alts_tsi_handshakerP12grpc_channelPKcP16grpc_pollset_setP29grpc_alts_credentials_optionsRK10grpc_slicePFvPvP10grpc_errorEPFv10tsi_resultSC_PKhmP21tsi_handshaker_resultESC_P29alts_handshaker_client_vtablebm (Address: 0x6b645787a8)
    - function: _ZN4absl12lts_2021032413time_internal4cctz6detailmiENS3_10civil_timeINS3_10second_tagEEEl (Address: 0x6b645f6da0)
    - function: _ZN9grpc_core19LocalSubchannelPool18RegisterSubchannelERKNS_13SubchannelKeyENS_13RefCountedPtrINS_10SubchannelEEE (Address: 0x6b643fd514)
    - function: _ZNSt13runtime_erroraSERKS_ (Address: 0x6b64731dc0)
    - function: _ZN18grpc_chttp2_streamD2Ev (Address: 0x6b644c9940)
    - function: _ZN4absl12lts_2021032424synchronization_internal12PerThreadSem4TickEPNS0_13base_internal14ThreadIdentityE (Address: 0x6b645dfc88)
    - variable: _ZN4absl12lts_2021032412RFC3339_fullE (Address: 0x6b647dc2f8)
    - variable: _ZTS31grpc_composite_call_credentials (Address: 0x6b6477a4c0)
    - function: _ZNK4absl12lts_202103244Cord8EndsWithENS0_11string_viewE (Address: 0x6b645c7e00)
    - function: _ZN4absl12lts_2021032417BadStatusOrAccessD1Ev (Address: 0x6b645b1948)
    - variable: grpc_message_compress_filter (Address: 0x6b648f82c0)
    - function: _ZN3re214CoalesceWalker10ShortVisitEPNS_6RegexpES2_ (Address: 0x6b645ae3c0)
    - function: _Z36grpc_credentials_mdelem_array_appendP29grpc_credentials_mdelem_arrayS0_ (Address: 0x6b64539fac)
    - function: _Z29grpc_sockaddr_get_packed_hostPK21grpc_resolved_address (Address: 0x6b64416cbc)
    - variable: _ZN9grpc_core6chttp252g_test_only_transport_target_window_estimates_mockerE (Address: 0x6b64924ad0)
    - function: upb_ok (Address: 0x6b645bfe9c)
    - function: _Z29alts_crypter_process_in_placeP12alts_crypterPhmmPmPPc (Address: 0x6b6457ca3c)
    - function: _ZN9grpc_core9XdsClient12ChannelStateD2Ev (Address: 0x6b64509158)
    - variable: envoy_extensions_transport_sockets_tls_v3_CommonTlsContext_CertificateProviderInstance_msginit (Address: 0x6b648fd150)
    - variable: _ZNSt6__ndk18ios_base5fixedE (Address: 0x6b64803b08)
    - function: AbslInternalSpinLockWake_lts_20210324 (Address: 0x6b645f1bf8)
    - function: _ZN4absl12lts_2021032421RegisterCondVarTracerEPFvPKcPKvE (Address: 0x6b645db8d4)
    - variable: _ZTVSt9exception (Address: 0x6b649163d8)
    - function: _ZN9grpc_core23XdsClusterLocalityStats14AddCallStartedEv (Address: 0x6b6452274c)
    - function: _ZN4absl12lts_2021032410CordForest9CheckNodeEPNS0_13cord_internal7CordRepE (Address: 0x6b645c9f10)
    - function: _ZN9grpc_core21XdsHttpFilterRegistry14RegisterFilterENSt6__ndk110unique_ptrINS_17XdsHttpFilterImplENS1_14default_deleteIS3_EEEERKNS1_3setIN4absl12lts_2021032411string_viewENS1_4lessISA_EENS1_9allocatorISA_EEEE (Address: 0x6b645227b0)
    - variable: upb_utf8_offsets (Address: 0x6b647d7464)
    - function: _ZN3re24ProgD2Ev (Address: 0x6b645a92bc)
    - function: _Z22tsi_handshaker_destroyP14tsi_handshaker (Address: 0x6b644654ec)
    - function: _ZN4absl12lts_2021032416EqualsIgnoreCaseENS0_11string_viewES1_ (Address: 0x6b645e82fc)
    - variable: _ZTVN9grpc_core32FaultInjectionMethodParsedConfigE (Address: 0x6b648f8228)
    - variable: _ZTSN9grpc_core10RefCountedINS_8channelz8BaseNodeENS_19PolymorphicRefCountELNS_13UnrefBehaviorE0EEE (Address: 0x6b64778e00)
    - function: grpcsharp_call_recv_initial_metadata (Address: 0x6b643e7d10)
    - function: _ZNSt6__ndk112future_errorD1Ev (Address: 0x6b6473fe1c)
    - function: _ZNSt12out_of_rangeD0Ev (Address: 0x6b64744a04)
    - function: _ZN4absl12lts_202103244CordaSINSt6__ndk112basic_stringIcNS3_11char_traitsIcEENS3_9allocatorIcEEEELi0EEERS1_OT_ (Address: 0x6b645c45c8)
    - variable: _ZTINSt6__ndk19money_getIcNS_19istreambuf_iteratorIcNS_11char_traitsIcEEEEEE (Address: 0x6b64915080)
    - function: _ZN9grpc_core14MakeRefCountedINS_27TlsChannelSecurityConnectorEJNS_13RefCountedPtrI24grpc_channel_credentialsEENS2_I28grpc_tls_credentials_optionsEENS2_I21grpc_call_credentialsEERPKcSB_RP21tsi_ssl_session_cacheEEENS2_IT_EEDpOT0_ (Address: 0x6b64564c44)
    - variable: _ZN9grpc_core22grpc_lb_priority_traceE (Address: 0x6b64924930)
    - function: _ZNSt15underflow_errorD0Ev (Address: 0x6b64744b18)
    - function: gpr_time_similar (Address: 0x6b645b407c)
    - variable: _ZTSN26grpc_server_config_fetcher16WatcherInterfaceE (Address: 0x6b6478c040)
    - function: grpc_byte_buffer_reader_init (Address: 0x6b64440400)
    - function: _ZN4absl12lts_2021032419WebSafeBase64EscapeENS0_11string_viewE (Address: 0x6b645e7f40)
    - variable: _ZTVN9grpc_core19LoadBalancingPolicy11QueuePickerE (Address: 0x6b648f2a30)
    - function: _ZNSt6__ndk114__shared_count16__release_sharedEv (Address: 0x6b64730f2c)
    - function: _ZNKSt6__ndk17num_getIwNS_19istreambuf_iteratorIwNS_11char_traitsIwEEEEE6do_getES4_S4_RNS_8ios_baseERjRPv (Address: 0x6b64704374)
    - variable: _ZTINSt6__ndk120__shared_ptr_emplaceIN9grpc_core6XdsApi9LdsUpdate15FilterChainDataENS_9allocatorIS4_EEEE (Address: 0x6b648f9290)
    - function: _Z43grpc_certificate_provider_registry_shutdownv (Address: 0x6b644e1264)
    - function: _ZN4absl12lts_2021032419str_format_internal17FormatConvertImplEmNS1_24FormatConversionSpecImplEPNS1_14FormatSinkImplE (Address: 0x6b645d1040)
    - function: _ZN4absl12lts_202103244Cord9InlineRep10AssignSlowERKS2_ (Address: 0x6b645c5830)
    - variable: _ZTVN9grpc_core8internal31ClientChannelGlobalParsedConfigE (Address: 0x6b648f2da8)
    - variable: envoy_config_cluster_v3_Cluster_CommonLbConfig_ZoneAwareLbConfig_msginit (Address: 0x6b648fb308)
    - function: _ZN10LogMessageD2Ev (Address: 0x6b64588100)
    - function: _ZN9grpc_core9XdsClient6OrphanEv (Address: 0x6b645138cc)
    - variable: envoy_config_route_v3_RateLimit_Override_DynamicMetadata_msginit (Address: 0x6b648fcbd8)
    - function: _Z37grpc_compression_algorithm_from_sliceRK10grpc_slice (Address: 0x6b64525394)
    - function: _ZN9grpc_core6XdsApi14AdsParseResultD2Ev (Address: 0x6b644f34a0)
    - function: _Z47grpc_gcp_RpcProtocolVersions_assign_from_structP28grpc_gcp_RpcProtocolVersionsP9upb_arenaPK29_grpc_gcp_RpcProtocolVersions (Address: 0x6b645697c8)
    - variable: _ZTISt12domain_error (Address: 0x6b64916560)
    - function: _ZNSt6__ndk16__treeINS_12__value_typeINS_12basic_stringIcNS_11char_traitsIcEENS_9allocatorIcEEEENS_10unique_ptrIN9grpc_core9XdsClient12ChannelState12AdsCallState13ResourceStateENS9_16OrphanableDeleteEEEEENS_19__map_value_compareIS7_SG_NS_4lessIS7_EELb1EEENS5_ISG_EEE4findIS7_EENS_15__tree_iteratorISG_PNS_11__tree_nodeISG_PvEElEERKT_ (Address: 0x6b6451f03c)
    - variable: _ZTIN9grpc_core18XdsHttpFaultFilterE (Address: 0x6b648fd7d0)
    - function: _ZNKSt6__ndk18time_putIcNS_19ostreambuf_iteratorIcNS_11char_traitsIcEEEEE3putES4_RNS_8ios_baseEcPK2tmPKcSC_ (Address: 0x6b6470f95c)
    - function: _Z33grpc_message_size_filter_shutdownv (Address: 0x6b644c3484)
    - function: _ZN9grpc_core6XdsApi5RouteD2Ev (Address: 0x6b644b2068)
    - function: _ZNKSt6__ndk110moneypunctIwLb0EE16do_thousands_sepEv (Address: 0x6b6471101c)
    - function: _ZN4absl12lts_2021032416strings_internal14CordTestAccess19SizeofCordRepConcatEv (Address: 0x6b645c9b64)
    - function: grpc_resource_quota_unref (Address: 0x6b6452dc54)
    - function: _ZN3re28Compiler13FindByteRangeEii (Address: 0x6b64596a2c)
    - variable: _ZTSN9grpc_core13ClientChannel16LoadBalancedCall8MetadataE (Address: 0x6b647741b0)
    - function: _ZNSt6__ndk115__codecvt_utf16IDiLb1EED0Ev (Address: 0x6b6472f770)
    - function: _ZN9grpc_core13ClientChannel16LoadBalancedCall38YieldCallCombinerIfPendingBatchesFoundERKNS_23CallCombinerClosureListE (Address: 0x6b643f65a4)
    - function: _ZNSt6__ndk115basic_streambufIcNS_11char_traitsIcEEEC2Ev (Address: 0x6b646f2534)
    - variable: _ZTS30grpc_server_security_connector (Address: 0x6b6477afa0)
    - function: _ZN3re28Compiler10BeginRangeEv (Address: 0x6b645960d8)
    - function: _ZN9grpc_core27TlsChannelSecurityConnectorC2ENS_13RefCountedPtrI24grpc_channel_credentialsEENS1_I28grpc_tls_credentials_optionsEENS1_I21grpc_call_credentialsEEPKcS9_P21tsi_ssl_session_cache (Address: 0x6b64564e5c)
    - function: _ZN9grpc_core6Server11ChannelData19GetRegisteredMethodERK10grpc_sliceS4_b (Address: 0x6b64450b24)
    - function: _ZN18grpc_chttp2_stream6RefferC1EPS_ (Address: 0x6b644c94dc)
    - function: _ZN4absl12lts_202103247CondVarD1Ev (Address: 0x6b645df12c)
    - function: _ZN4absl12lts_2021032413cord_internal11CordRepRing10AppendLeafEPS2_PNS1_7CordRepEmm (Address: 0x6b645cd44c)
    - function: _Z26tsi_peer_property_destructP17tsi_peer_property (Address: 0x6b644655d4)
    - function: _ZN9grpc_core10Subchannel33ConnectivityStateWatcherInterfaceD0Ev (Address: 0x6b643f48f0)
    - function: _ZNSt6__ndk113basic_ostreamIwNS_11char_traitsIwEEElsEy (Address: 0x6b646fb764)
    - function: grpc_call_unref (Address: 0x6b644414d4)
    - function: _ZN9grpc_core13HeaderMatcherC1EOS0_ (Address: 0x6b645399b8)
    - function: _ZN9grpc_core6Server18RealRequestMatcher30RequestCallWithPossiblePublishEmPNS0_13RequestedCallE (Address: 0x6b64453ab4)
    - function: _ZNSt6__ndk113__vector_baseIN9grpc_core6XdsApi9LdsUpdate21HttpConnectionManager10HttpFilterENS_9allocatorIS5_EEED2Ev (Address: 0x6b644b2400)
    - variable: _ZN4absl12lts_2021032416numbers_internal8kHexCharE (Address: 0x6b647dd1c4)
    - function: _ZN9grpc_core9XdsClient12ChannelState12LrsCallState8ReporterD0Ev (Address: 0x6b645193e8)
    - function: _ZNSt6__ndk17codecvtIwc9mbstate_tEC2Em (Address: 0x6b64726d00)
    - variable: _ZTSN9grpc_core6ServerE (Address: 0x6b6477e050)
    - variable: _ZN9grpc_core30grpc_client_channel_call_traceE (Address: 0x6b64922b58)
    - function: _ZN4absl12lts_2021032419str_format_internal17FormatConvertImplERKNSt6__ndk112basic_stringIcNS2_11char_traitsIcEENS2_9allocatorIcEEEENS1_24FormatConversionSpecImplEPNS1_14FormatSinkImplE (Address: 0x6b645d23e8)
    - function: _ZN9grpc_core19XdsClientGlobalInitEv (Address: 0x6b645183c0)
    - function: _ZN4absl12lts_2021032416strings_internal6memspnEPKcmS3_ (Address: 0x6b645f0430)
    - variable: _ZTIFP17grpc_channel_argsS0_PP10grpc_errorE (Address: 0x6b648f34f8)
    - function: _ZNSt6__ndk113basic_ostreamIcNS_11char_traitsIcEEElsEPFRNS_9basic_iosIcS2_EES6_E (Address: 0x6b646f8f50)
    - function: _ZN9grpc_core15Chttp2Connector9ConnectedEPvP10grpc_error (Address: 0x6b644c3d70)
    - function: _Z15grpc_iomgr_initv (Address: 0x6b6452c2ac)
    - function: _upb_msg_addunknown (Address: 0x6b645bc24c)
    - function: _ZN4absl12lts_202103244Cord9InlineRep15GetAppendRegionEPPcPm (Address: 0x6b645c5538)
    - variable: envoy_config_core_v3_BindConfig_msginit (Address: 0x6b648fb500)
    - function: _ZNSt6__ndk18ios_base17register_callbackEPFvNS0_5eventERS0_iEi (Address: 0x6b646fd0d8)
    - function: _Z29grpc_resource_quota_peek_sizeP19grpc_resource_quota (Address: 0x6b6452e128)
    - function: _ZNSt6__ndk121__throw_runtime_errorEPKc (Address: 0x6b64714bbc)
    - function: _ZNKSt6__ndk110__function6__funcIZN9grpc_core13ClientChannel26ConnectivityWatcherRemoverC1EPS3_PNS2_38AsyncConnectivityStateWatcherInterfaceEEUlvE_NS_9allocatorIS8_EEFvvEE7__cloneEPNS0_6__baseISB_EE (Address: 0x6b643f59b0)
    - function: _ZNSt6__ndk16localeC1ERKS0_PKci (Address: 0x6b64723dbc)
    - function: _ZNSt6__ndk16localeaSERKS0_ (Address: 0x6b64723b50)
    - variable: _ZTIN9grpc_core18ChildPolicyHandlerE (Address: 0x6b648f2bf0)
    - variable: envoy_admin_v3_ScopedRoutesConfigDump_InlineScopedRouteConfigs_msginit (Address: 0x6b648fac30)
    - function: _ZN9grpc_core6Server29AllocatingRequestMatcherBatchD2Ev (Address: 0x6b644551b4)
    - variable: _ZTVN9grpc_core23MessageSizeParsedConfigE (Address: 0x6b648f8528)
    - variable: _ZTS43grpc_httpcli_ssl_channel_security_connector (Address: 0x6b647bd940)
    - function: _ZN23grpc_chttp2_data_parserD2Ev (Address: 0x6b644d2334)
    - function: fastdecode_err (Address: 0x6b645b60b8)
    - variable: _ZTIPDh (Address: 0x6b64915e80)
    - variable: _ZTIN9grpc_core6Server11ChannelData19ConnectivityWatcherE (Address: 0x6b648f4690)
    - function: _Z23grpc_timer_manager_initv (Address: 0x6b64537320)
    - function: _ZN9grpc_core19DefaultSslRootStore17InitRootStoreOnceEv (Address: 0x6b6443942c)
    - variable: envoy_extensions_transport_sockets_tls_v3_SdsSecretConfig_msginit (Address: 0x6b648fd020)
    - function: _ZN4absl12lts_202103247uint128C1Ee (Address: 0x6b645f1de8)
    - variable: _ZN9grpc_core18kRetryFilterVtableE (Address: 0x6b648f2e40)
    - function: _Z18grpc_mdelem_createRK10grpc_sliceS1_P16grpc_mdelem_data (Address: 0x6b64458260)
    - function: _ZN9grpc_core14DynamicFilters6CreateEPK17grpc_channel_argsNSt6__ndk16vectorIPK19grpc_channel_filterNS4_9allocatorIS8_EEEE (Address: 0x6b643f9ac4)
    - function: _ZN9grpc_core5Arena15CreateWithAllocEmm (Address: 0x6b645b474c)
    - function: _ZN9grpc_core6Server18QueueRequestedCallEmPNS0_13RequestedCallE (Address: 0x6b644504b4)
    - function: _ZNSt6__ndk16__treeINS_12__value_typeINS_12basic_stringIcNS_11char_traitsIcEENS_9allocatorIcEEEEmEENS_19__map_value_compareIS7_S8_NS_4lessIS7_EELb1EEENS5_IS8_EEE12__find_equalIS7_EERPNS_16__tree_node_baseIPvEERPNS_15__tree_end_nodeISJ_EERKT_ (Address: 0x6b6451c47c)
    - function: _ZN9grpc_core40TestOnlyXdsVerifySubjectAlternativeNamesEPKPKcmRKNSt6__ndk16vectorINS_13StringMatcherENS4_9allocatorIS6_EEEE (Address: 0x6b6454a2bc)
    - function: _ZNSt6__ndk112basic_stringIcNS_11char_traitsIcEENS_9allocatorIcEEE6insertEmRKS5_mm (Address: 0x6b64733664)
    - function: _ZN3re26Regexp10ParseState8IsMarkerENS_8RegexpOpE (Address: 0x6b645a4134)
    - variable: envoy_config_accesslog_v3_AccessLog_msginit (Address: 0x6b648fe038)
    - function: _ZN9grpc_core13SubchannelKeyC1EPK17grpc_channel_args (Address: 0x6b644128a8)
    - function: _ZNKSt6__ndk110__function6__funcIZN9grpc_core13ClientChannel17SubchannelWrapper14WatcherWrapper25OnConnectivityStateChangeEvEUlvE_NS_9allocatorIS6_EEFvvEE11target_typeEv (Address: 0x6b643f4bf0)
    - function: _ZNKSt6__ndk112ctype_bynameIcE10do_toupperEc (Address: 0x6b647260c8)
    - variable: _ZTVNSt6__ndk115__codecvt_utf16IwLb1EEE (Address: 0x6b649144c8)
    - variable: _ZTINSt6__ndk17codecvtIwc9mbstate_tEE (Address: 0x6b649142f0)
    - variable: envoy_config_cluster_v3_Filter_msginit (Address: 0x6b648fb440)
    - function: _ZN4absl12lts_2021032413cord_internal11CordRepRing10CreateSlowEPNS1_7CordRepEm (Address: 0x6b645ccb08)
    - function: _ZN3re28CompilerD0Ev (Address: 0x6b645959b4)
    - function: _Z21grpc_call_context_getP9grpc_call18grpc_context_index (Address: 0x6b64442e74)
    - variable: envoy_config_overload_v3_ScaleTimersOverloadActionConfig_ScaleTimer_msginit (Address: 0x6b648fc3a8)
    - variable: _ZTSN9grpc_core19SubchannelInterface33ConnectivityStateWatcherInterfaceE (Address: 0x6b64782c60)
    - function: _ZN9grpc_core6Server29AllocatingRequestMatcherBatch12MatchOrQueueEmPNS0_8CallDataE (Address: 0x6b64455254)
    - function: _ZNSt6__ndk16__treeINS_12__value_typeINS_12basic_stringIcNS_11char_traitsIcEENS_9allocatorIcEEEEN9grpc_core4JsonEEENS_19__map_value_compareIS7_SA_NS_4lessIS7_EELb1EEENS5_ISA_EEE15__emplace_multiIJRKNS_4pairIKS7_S9_EEEEENS_15__tree_iteratorISA_PNS_11__tree_nodeISA_PvEElEEDpOT_ (Address: 0x6b643f3b14)
    - function: _Z20grpc_mdelem_do_unref11grpc_mdelem (Address: 0x6b64459098)
    - variable: _ZTINSt6__ndk18time_getIcNS_19istreambuf_iteratorIcNS_11char_traitsIcEEEEEE (Address: 0x6b64914c90)
    - function: _ZN9grpc_core8channelz8BaseNodeD2Ev (Address: 0x6b6441c3dc)
    - function: _ZN18grpc_chttp2_streamC2EP21grpc_chttp2_transportP20grpc_stream_refcountPKvPN9grpc_core5ArenaE (Address: 0x6b644c950c)
    - function: _ZNKSt6__ndk110moneypunctIcLb1EE16do_negative_signEv (Address: 0x6b64710f08)
    - function: _ZN4absl12lts_2021032410ToTimespecENS0_4TimeE (Address: 0x6b645e4ec0)
    - function: _Z28grpc_sockaddr_make_wildcard4iP21grpc_resolved_address (Address: 0x6b64416350)
    - function: _ZN3re23RE2C2ERKNSt6__ndk112basic_stringIcNS1_11char_traitsIcEENS1_9allocatorIcEEEE (Address: 0x6b645878d8)
    - function: _ZNSt6__ndk113basic_ostreamIwNS_11char_traitsIwEEElsEe (Address: 0x6b646fbd04)
    - variable: envoy_config_core_v3_RuntimeDouble_msginit (Address: 0x6b648fb680)
    - function: _ZN22grpc_tls_error_detailsD0Ev (Address: 0x6b64567d14)
    - function: _ZN9grpc_core8channelz16ChannelzRegistry22InternalLogAllEntitiesEv (Address: 0x6b644265c8)
    - function: grpcsharp_channel_destroy (Address: 0x6b643e73ac)
    - function: _ZNKSt6__ndk112basic_stringIcNS_11char_traitsIcEENS_9allocatorIcEEE4findEcm (Address: 0x6b64734930)
    - function: _ZNSt6__ndk16__treeINS_12__value_typeINS_12basic_stringIcNS_11char_traitsIcEENS_9allocatorIcEEEEN9grpc_core9XdsClient13EndpointStateEEENS_19__map_value_compareIS7_SB_NS_4lessIS7_EELb1EEENS5_ISB_EEE5eraseENS_21__tree_const_iteratorISB_PNS_11__tree_nodeISB_PvEElEE (Address: 0x6b645201ec)
    - function: _Z16grpc_fd_shutdownP7grpc_fdP10grpc_error (Address: 0x6b64559ef8)
    - function: _ZN4absl12lts_202103245Mutex5TransEPKNS0_6MuHowSE (Address: 0x6b645debec)
    - variable: _ZTSN9grpc_core20XdsServerCredentialsE (Address: 0x6b6479dbc0)
    - function: _ZN9grpc_core9XdsClient29BuildLoadReportSnapshotLockedEbRKNSt6__ndk13setINS1_12basic_stringIcNS1_11char_traitsIcEENS1_9allocatorIcEEEENS1_4lessIS8_EENS6_IS8_EEEE (Address: 0x6b64511430)
    - function: _ZN9grpc_core17GrpcLbClientStats14AddCallStartedEv (Address: 0x6b64473ba0)
    - function: _ZNSt6__ndk114codecvt_bynameIwc9mbstate_tED0Ev (Address: 0x6b64719a84)
    - function: _ZN4absl12lts_2021032413GetStackTraceEPPvii (Address: 0x6b645e0084)
    - variable: grpc_allow_specialized_wakeup_fd (Address: 0x6b6491fe38)
    - function: _ZN9grpc_core13ClientChannel16LoadBalancedCall21LbQueuedCallCanceller12CancelLockedEPvP10grpc_error (Address: 0x6b643f6350)
    - function: _ZN9grpc_core9XdsClient12ChannelState12AdsCallState23ResourceNamesForRequestERKNSt6__ndk112basic_stringIcNS3_11char_traitsIcEENS3_9allocatorIcEEEE (Address: 0x6b6450b22c)
    - function: _ZN9grpc_core21SliceBufferByteStream4NextEmP12grpc_closure (Address: 0x6b644562a4)
    - variable: _ZTIN9grpc_core20InternallyRefCountedINS_9XdsClient12ChannelState13RetryableCallINS2_12AdsCallStateEEEEE (Address: 0x6b648f97b0)
    - function: _ZN9grpc_core29AwsExternalAccountCredentials29OnRetrieveSigningKeysInternalEP10grpc_error (Address: 0x6b64571aec)
    - function: _ZN4absl12lts_2021032423inlined_vector_internal7StorageIN9grpc_core13ServerAddressELm1ENSt6__ndk19allocatorIS4_EEE11EmplaceBackIJR21grpc_resolved_addressDnNS5_3mapIPKcNS5_10unique_ptrINS4_18AttributeInterfaceENS5_14default_deleteISG_EEEENS5_4lessISE_EENS6_INS5_4pairIKSE_SJ_EEEEEEEEERS4_DpOT_ (Address: 0x6b6446f204)
    - variable: _ZTSN9grpc_core8internal23ServerRetryThrottleDataE (Address: 0x6b64777030)
    - function: _ZN4absl12lts_2021032412IsOutOfRangeERKNS0_6StatusE (Address: 0x6b645c34b0)
    - variable: _ZTVNSt6__ndk115time_get_bynameIcNS_19istreambuf_iteratorIcNS_11char_traitsIcEEEEEE (Address: 0x6b64913098)
    - function: _ZN9grpc_core7ExecCtxD2Ev (Address: 0x6b643e8be0)
    - function: upb_fielddef_containingoneof (Address: 0x6b645b75dc)
    - function: _ZNSt6__ndk114__shared_countD1Ev (Address: 0x6b64730f08)
    - variable: _ZTIPb (Address: 0x6b649159d0)
    - function: _ZN9grpc_core6Server8CallData10KillZombieEv (Address: 0x6b6445168c)
    - variable: envoy_extensions_filters_http_router_v3_router_proto_upbdefinit (Address: 0x6b64920d28)
    - function: __cxa_call_unexpected (Address: 0x6b647424f8)
    - function: _ZN3re28CompilerC1Ev (Address: 0x6b645956cc)
    - variable: envoy_config_cluster_v3_TrackClusterStats_msginit (Address: 0x6b648fb420)
    - variable: envoy_extensions_filters_common_fault_v3_FaultRateLimit_HeaderLimit_msginit (Address: 0x6b647c7ea0)
    - function: _Z40grpc_chttp2_add_rst_stream_to_next_writeP21grpc_chttp2_transportjjP28grpc_transport_one_way_stats (Address: 0x6b644d34cc)
    - function: _ZN9grpc_core26ExternalAccountCredentials27OnImpersenateServiceAccountEPvP10grpc_error (Address: 0x6b6455e30c)
    - function: _Z33grpc_chttp2_goaway_parser_destroyP25grpc_chttp2_goaway_parser (Address: 0x6b644d2ee8)
    - variable: _ZTSN9grpc_core9XdsClient12ChannelState12StateWatcherE (Address: 0x6b64796340)
    - function: _ZN17grpc_auth_contextD2Ev (Address: 0x6b64432868)
    - variable: _ZNSt6__ndk114numeric_limitsIN4absl12lts_202103247uint128EE9is_iec559E (Address: 0x6b647e0694)
    - function: _ZNKSt6__ndk115__codecvt_utf16IDiLb0EE11do_encodingEv (Address: 0x6b64729be4)
    - function: _ZN4absl12lts_2021032416numbers_internal15FastIntToBufferEmPc (Address: 0x6b645e8a00)
    - variable: _ZTI29grpc_md_only_test_credentials (Address: 0x6b648f9d90)
    - function: _ZN4absl12lts_2021032413base_internal18ThrowStdOutOfRangeERKNSt6__ndk112basic_stringIcNS2_11char_traitsIcEENS2_9allocatorIcEEEE (Address: 0x6b645f08f0)
    - function: _ZNKSt6__ndk18numpunctIcE12do_falsenameEv (Address: 0x6b6472ac60)
    - variable: _ZTS24grpc_channel_credentials (Address: 0x6b6477a4f0)
    - variable: _ZTSN9grpc_core19LoadBalancingPolicy17MetadataInterfaceE (Address: 0x6b647741f0)
    - function: _ZNK9grpc_core6chttp224TransportFlowControlBase13target_windowEv (Address: 0x6b644d22fc)
    - function: _ZN9grpc_core22XdsCertificateProviderC1Ev (Address: 0x6b645064e0)
    - function: _ZdlPvmSt11align_val_t (Address: 0x6b64744768)
    - function: _Z19pollset_global_initv (Address: 0x6b64559f88)
    - function: _ZN9grpc_core9XdsClient17WatchEndpointDataEN4absl12lts_2021032411string_viewENSt6__ndk110unique_ptrINS0_24EndpointWatcherInterfaceENS4_14default_deleteIS6_EEEE (Address: 0x6b645151b0)
    - variable: _ZTV11ExecCtxNext (Address: 0x6b648f42c8)
    - function: _ZN3re26Regexp6WalkerIPS0_ED2Ev (Address: 0x6b645ae238)
    - variable: _ZTVN9grpc_core13ServiceConfigE (Address: 0x6b648f3120)
    - function: _ZN9grpc_core13RefCountedPtrINS_8channelz11ChannelNodeEED2Ev (Address: 0x6b6446d67c)
    - function: _ZN9grpc_core13RefCountedPtrINS_19ConnectedSubchannelEED2Ev (Address: 0x6b643eeb94)
    - function: grpc_channelz_get_servers (Address: 0x6b64426b18)
    - function: _ZNK9grpc_core6chttp220TransportFlowControl13target_windowEv (Address: 0x6b644d0a38)
    - variable: _ZNSt6__ndk114numeric_limitsIN4absl12lts_202103246int128EE9is_signedE (Address: 0x6b647e06bb)
    - function: _Z27grpc_channel_args_find_boolPK17grpc_channel_argsPKcb (Address: 0x6b64418b54)
    - function: _ZNKSt6__ndk115__codecvt_utf16IDiLb0EE16do_always_noconvEv (Address: 0x6b64729bec)
    - function: _ZN9grpc_core26ExternalAccountCredentials13ExchangeTokenEN4absl12lts_2021032411string_viewE (Address: 0x6b6455cab0)
    - function: _ZN3re26Regexp10ParseState16ParseCCCharacterEPNS_11StringPieceEPiRKS2_PNS_12RegexpStatusE (Address: 0x6b645a6e94)
    - function: _Z40grpc_lb_policy_xds_cluster_resolver_initv (Address: 0x6b644993d8)
    - function: _ZN4absl12lts_2021032419str_format_internal16ConvertFloatImplEdRKNS1_24FormatConversionSpecImplEPNS1_14FormatSinkImplE (Address: 0x6b645d605c)
    - function: _ZNSt6__ndk113basic_istreamIcNS_11char_traitsIcEEE4peekEv (Address: 0x6b646f5214)
    - function: _ZN9grpc_core27TlsChannelSecurityConnector33ServerAuthorizationCheckArgCreateEPv (Address: 0x6b64565608)
    - function: _ZN9grpc_core14DynamicFiltersD0Ev (Address: 0x6b643f9de4)
    - function: _ZN3re28Compiler10EmptyWidthENS_7EmptyOpE (Address: 0x6b64595f8c)
    - function: _Z25grpc_iomgr_abort_on_leaksv (Address: 0x6b6452c858)
    - function: _ZNSt6__ndk16__treeIN4absl12lts_2021032411string_viewENS_4lessIS3_EENS_9allocatorIS3_EEE12__find_equalIS3_EERPNS_16__tree_node_baseIPvEENS_21__tree_const_iteratorIS3_PNS_11__tree_nodeIS3_SB_EElEERPNS_15__tree_end_nodeISD_EESE_RKT_ (Address: 0x6b64523478)
    - variable: envoy_admin_v3_EndpointsConfigDump_msginit (Address: 0x6b648fad08)
    - function: grpc_max_auth_token_lifetime (Address: 0x6b6453c3cc)
    - function: _ZNSt6__ndk110__function6__funcIZN9grpc_core13ClientChannel17SubchannelWrapper14WatcherWrapper25OnConnectivityStateChangeEvEUlvE_NS_9allocatorIS6_EEFvvEE7destroyEv (Address: 0x6b643f4b70)
    - function: _ZNSt6__ndk113basic_istreamIcNS_11char_traitsIcEEE5tellgEv (Address: 0x6b646f58c0)
    - function: _ZN20grpc_ssl_credentials19set_min_tls_versionE16grpc_tls_version (Address: 0x6b64435b74)
    - variable: _ZTIN9grpc_core17XdsHttpFilterImplE (Address: 0x6b648f99e8)
    - variable: _ZTINSt6__ndk117moneypunct_bynameIcLb0EEE (Address: 0x6b64914ff0)
    - function: _ZNSt6__ndk114__split_bufferIPN9grpc_core10Subchannel33ConnectivityStateWatcherInterface23ConnectivityStateChangeENS_9allocatorIS5_EEE9push_backEOS5_ (Address: 0x6b64411cd0)
    - function: _ZNSt6__ndk16__treeINS_12__value_typeINS_4pairINS_12basic_stringIcNS_11char_traitsIcEENS_9allocatorIcEEEES8_EEN9grpc_core9XdsClient15LoadReportStateEEENS_19__map_value_compareIS9_SD_NS_4lessIS9_EELb1EEENS6_ISD_EEE4findIS9_EENS_15__tree_iteratorISD_PNS_11__tree_nodeISD_PvEElEERKT_ (Address: 0x6b6452066c)
    - function: _ZN21grpc_alts_credentialsD0Ev (Address: 0x6b6455a860)
    - function: _ZNSt6__ndk16__treeINS_12__value_typeIPKcN4absl12lts_2021032411string_viewEEENS_19__map_value_compareIS3_S7_NS_4lessIS3_EELb1EEENS_9allocatorIS7_EEE7destroyEPNS_11__tree_nodeIS7_PvEE (Address: 0x6b643f5dd8)
    - function: _ZN9grpc_core8internal44grpc_flush_cached_google_default_credentialsEv (Address: 0x6b6453b378)
    - function: _ZNSt6__ndk18numpunctIcEC1Em (Address: 0x6b6472aa84)
    - function: _ZN9grpc_core13RefCountedPtrINS_9XdsClientEED2Ev (Address: 0x6b644894bc)
    - function: _ZNKSt6__ndk120__codecvt_utf8_utf16IDsE16do_always_noconvEv (Address: 0x6b6472a838)
    - variable: _ZTSN9grpc_core10RefCountedI24grpc_channel_credentialsNS_19PolymorphicRefCountELNS_13UnrefBehaviorE0EEE (Address: 0x6b6477a510)
    - function: _Z38grpc_gcp_rpc_protocol_versions_set_minP29_grpc_gcp_RpcProtocolVersionsjj (Address: 0x6b645695c8)
    - function: _ZN3re23DFA18PossibleMatchRangeEPNSt6__ndk112basic_stringIcNS1_11char_traitsIcEENS1_9allocatorIcEEEES8_i (Address: 0x6b6459e004)
    - function: _ZNSt6__ndk111__money_putIwE8__formatEPwRS2_S3_jPKwS5_RKNS_5ctypeIwEEbRKNS_10money_base7patternEwwRKNS_12basic_stringIcNS_11char_traitsIcEENS_9allocatorIcEEEERKNSE_IwNSF_IwEENSH_IwEEEESQ_i (Address: 0x6b64718ce0)
    - variable: _ZTSNSt6__ndk113basic_istreamIcNS_11char_traitsIcEEEE (Address: 0x6b64803c50)
    - variable: grpc_call_error_trace (Address: 0x6b64923cc8)
    - function: _ZNKSt6__ndk115__codecvt_utf16IDsLb1EE10do_unshiftER9mbstate_tPcS4_RS4_ (Address: 0x6b64729924)
    - variable: _ZTINSt6__ndk18numpunctIwEE (Address: 0x6b649149d0)
    - function: _ZNKSt6__ndk112basic_stringIwNS_11char_traitsIwEENS_9allocatorIwEEE7compareEmmPKwm (Address: 0x6b64739cf0)
    - function: _Z28grpc_set_socket_with_mutatori13grpc_fd_usageP19grpc_socket_mutator (Address: 0x6b6442cfdc)
    - function: _ZN9grpc_core17HandshakerFactoryD2Ev (Address: 0x6b6443b62c)
    - function: _ZNSt6__ndk115basic_streambufIcNS_11char_traitsIcEEE10pubseekposENS_4fposI9mbstate_tEEj (Address: 0x6b646f238c)
    - function: _Z16grpc_slice_split10grpc_slicePKcP17grpc_slice_buffer (Address: 0x6b6443fa60)
    - variable: _ZNSt6__ndk114numeric_limitsIN4absl12lts_202103246int128EE13has_quiet_NaNE (Address: 0x6b647e06bf)
    - function: _ZN9grpc_core13ClientChannel8CallDataD1Ev (Address: 0x6b643f0054)
    - function: _Z33alts_grpc_record_protocol_destroyP25alts_grpc_record_protocol (Address: 0x6b6457b6e4)
    - function: _ZNSt6__ndk115basic_streambufIwNS_11char_traitsIwEEE6setbufEPwl (Address: 0x6b646f2ba8)
    - function: _ZN4absl12lts_2021032423inlined_vector_internal7StorageINSt6__ndk110unique_ptrIN9grpc_core15ResolverFactoryENS3_14default_deleteIS6_EEEELm10ENS3_9allocatorIS9_EEE15EmplaceBackSlowIJS9_EEERS9_DpOT_ (Address: 0x6b643ffa1c)
    - function: _ZN3re23RE29QuoteMetaERKNS_11StringPieceE (Address: 0x6b6458a194)
    - function: _ZN9grpc_core6ThreadC1EPKcPFvPvES3_PbRKNS0_7OptionsE (Address: 0x6b645b5c4c)
    - variable: grpc_health_v1_HealthCheckResponse_msginit (Address: 0x6b648f8f68)
    - variable: envoy_config_cluster_v3_ClusterCollection_msginit (Address: 0x6b648fb060)
    - function: _Z16grpc_call_createPK21grpc_call_create_argsPP9grpc_call (Address: 0x6b64440840)
    - function: upb_map_get (Address: 0x6b645c16cc)
    - function: inflateInit2_ (Address: 0x6b64581340)
    - function: _ZN9grpc_core6XdsApi5Route10HashPolicyaSEOS2_ (Address: 0x6b644e336c)
    - function: _ZNSt6__ndk16__treeIPN32grpc_tls_certificate_distributor31TlsCertificatesWatcherInterfaceENS_4lessIS3_EENS_9allocatorIS3_EEE7destroyEPNS_11__tree_nodeIS3_PvEE (Address: 0x6b64508384)
    - function: _Z33grpc_channel_credentials_from_argPK8grpc_arg (Address: 0x6b64434224)
    - function: grpc_channelz_get_top_channels (Address: 0x6b644268ac)
    - function: _Z24grpc_timer_heap_is_emptyP15grpc_timer_heap (Address: 0x6b6453716c)
    - function: _ZN9grpc_core14SubchannelCall25RecvTrailingMetadataReadyEPvP10grpc_error (Address: 0x6b6440cff4)
    - function: _Z47grpc_chttp2_list_remove_waiting_for_concurrencyP21grpc_chttp2_transportP18grpc_chttp2_stream (Address: 0x6b644db75c)
    - function: _Z10gpr_setenvPKcS0_ (Address: 0x6b645b200c)
    - function: upb_msgdef_iswrapper (Address: 0x6b645b7b5c)
    - function: _ZN9grpc_core8channelz10ServerNode10RenderJsonEv (Address: 0x6b6441fa6c)
    - function: _ZNKSt6__ndk110__function6__funcIN4absl12lts_2021032419functional_internal11FrontBinderIMN9grpc_core22XdsCertificateProviderEFvNS_12basic_stringIcNS_11char_traitsIcEENS_9allocatorIcEEEEbbEJPS7_EEENSB_ISH_EEFvSD_bbEE11target_typeEv (Address: 0x6b645085ac)
    - variable: _ZTVNSt6__ndk19money_getIcNS_19istreambuf_iteratorIcNS_11char_traitsIcEEEEEE (Address: 0x6b64913698)
    - variable: google_protobuf_EnumDescriptorProto_msginit (Address: 0x6b649024e8)
    - function: symtab_alloc (Address: 0x6b645b81ec)
    - function: _ZNSt6__ndk13mapINS_12basic_stringIcNS_11char_traitsIcEENS_9allocatorIcEEEENS_10unique_ptrIN9grpc_core9XdsClient12ChannelState12AdsCallState13ResourceStateENS8_16OrphanableDeleteEEENS_4lessIS6_EENS4_INS_4pairIKS6_SE_EEEEED2Ev (Address: 0x6b645197f0)
    - function: _ZN9grpc_core14MakeRefCountedINS_15XdsLocalityNameEJRA1_KcS4_S4_EEENS_13RefCountedPtrIT_EEDpOT0_ (Address: 0x6b644a7d80)
    - function: _ZNKSt6__ndk18time_getIwNS_19istreambuf_iteratorIwNS_11char_traitsIwEEEEE17__get_weekdaynameERiRS4_S4_RjRKNS_5ctypeIwEE (Address: 0x6b6470c360)
    - function: _ZN4absl12lts_202103249CUnescapeENS0_11string_viewEPNSt6__ndk112basic_stringIcNS2_11char_traitsIcEENS2_9allocatorIcEEEES9_ (Address: 0x6b645e63dc)
    - variable: _ZTIN9grpc_core20InternallyRefCountedINS_19LoadBalancingPolicyEEE (Address: 0x6b648f2b70)
    - function: _ZNSt6__ndk112basic_stringIwNS_11char_traitsIwEENS_9allocatorIwEEE6__initEPKwmm (Address: 0x6b6473a118)
    - function: _ZN9grpc_core6Server8CallDataC2EP17grpc_call_elementRK22grpc_call_element_argsNS_13RefCountedPtrIS0_EE (Address: 0x6b64451188)
    - function: _Znam (Address: 0x6b64744600)
    - function: _ZN9grpc_core6chttp225StreamFlowControlDisabled24IncomingByteStreamUpdateEmm (Address: 0x6b644d08e0)
    - function: _ZN9grpc_core13RefCountedPtrI28grpc_tls_credentials_optionsED2Ev (Address: 0x6b645656b8)
    - variable: grpc_generic_timer_vtable (Address: 0x6b6491fde8)
    - function: _ZSt18uncaught_exceptionv (Address: 0x6b646f0340)
    - function: _ZN9grpc_core10SubchannelD0Ev (Address: 0x6b6440f074)
    - function: _ZNK9grpc_core20XdsLocalityAttribute8ToStringEv (Address: 0x6b644a2ec4)
    - function: _ZNSt6__ndk112__hash_tableINS_17__hash_value_typeIPN3re23DFA5StateEiEENS_22__unordered_map_hasherIS5_S6_NS_4hashIS5_EELb1EEENS_21__unordered_map_equalIS5_S6_NS_8equal_toIS5_EELb1EEENS_9allocatorIS6_EEE6rehashEm (Address: 0x6b6459f468)
    - variable: _ZTINSt6__ndk114codecvt_bynameIDic9mbstate_tEE (Address: 0x6b649152e0)
    - function: _ZNSt6__ndk113basic_istreamIwNS_11char_traitsIwEEE7getlineEPwl (Address: 0x6b646f7ca8)
    - function: _ZNKSt6__ndk17codecvtIDic9mbstate_tE11do_encodingEv (Address: 0x6b647286d8)
    - variable: envoy_config_cluster_v3_UpstreamBindConfig_msginit (Address: 0x6b648fb3e8)
    - function: _ZN9grpc_core24Chttp2IncomingByteStream6OrphanEv (Address: 0x6b644cca5c)
    - variable: _ZNSt6__ndk110adopt_lockE (Address: 0x6b648065c0)
    - variable: _ZTIN9grpc_core8channelz14SubchannelNodeE (Address: 0x6b648f4a30)
    - function: _Z22alts_get_output_bufferP17alts_frame_reader (Address: 0x6b64578378)
    - function: _ZN9grpc_core8internal31ClientChannelGlobalParsedConfigD0Ev (Address: 0x6b644010f0)
    - function: _ZNSt15underflow_errorC2ERKS_ (Address: 0x6b645f0ee4)
    - function: _ZNKSt6__ndk115__codecvt_utf16IDsLb0EE5do_inER9mbstate_tPKcS5_RS5_PDsS7_RS7_ (Address: 0x6b647296ac)
    - variable: _ZN9grpc_core4Fork15exec_ctx_state_E (Address: 0x6b64925218)
    - function: _ZN9grpc_core13ClientChannel27ExternalConnectivityWatcherC2EPS0_19grpc_polling_entityP23grpc_connectivity_stateP12grpc_closureS7_ (Address: 0x6b643e9d94)
    - function: _ZN4absl12lts_2021032422ResourceExhaustedErrorENS0_11string_viewE (Address: 0x6b645c3304)
    - variable: grpc_gcp_NextHandshakeMessageReq_msginit (Address: 0x6b648fece8)
    - variable: _ZN4absl12lts_2021032419str_format_internal31FormatConversionCharSetInternal1fE (Address: 0x6b647dae50)
    - variable: envoy_config_route_v3_WeightedCluster_ClusterWeight_msginit (Address: 0x6b648fc5f8)
    - variable: _ZNSt6__ndk16locale3allE (Address: 0x6b648044e4)
    - variable: envoy_admin_v3_BootstrapConfigDump_msginit (Address: 0x6b648faa40)
    - function: _ZN9grpc_core22XdsCertificateProviderD2Ev (Address: 0x6b645069a8)
    - variable: _ZTIN9grpc_core9XdsClient23ClusterWatcherInterfaceE (Address: 0x6b648f6618)
    - function: _ZN4absl12lts_202103244Cord15ForEachChunkAuxEPNS0_13cord_internal7CordRepENS0_11FunctionRefIFvNS0_11string_viewEEEE (Address: 0x6b645c9250)
    - function: _ZN9grpc_core22XdsCertificateProvider21ProvidesIdentityCertsERKNSt6__ndk112basic_stringIcNS1_11char_traitsIcEENS1_9allocatorIcEEEE (Address: 0x6b64506dfc)
    - variable: _ZTSNSt6__ndk112system_errorE (Address: 0x6b648067f0)
    - function: _ZN4absl12lts_2021032410FormatTimeENS0_4TimeENS0_8TimeZoneE (Address: 0x6b645e42b4)
    - variable: envoy_config_bootstrap_v3_Bootstrap_CertificateProviderInstancesEntry_msginit (Address: 0x6b648fae88)
    - function: _ZN3re29PatchList5DerefEPNS_4Prog4InstES0_ (Address: 0x6b645955d4)
    - function: _ZNSt6__ndk18ios_base7failureD0Ev (Address: 0x6b646fceb4)
    - variable: _ZTINSt6__ndk18messagesIcEE (Address: 0x6b649151c0)
    - function: _ZNKSt6__ndk114collate_bynameIcE12do_transformEPKcS3_ (Address: 0x6b64724c24)
    - function: _ZN9grpc_core35SecurityRegisterHandshakerFactoriesEv (Address: 0x6b64439c30)
    - function: _ZN9grpc_core6ServerC1EPK17grpc_channel_args (Address: 0x6b6444dda4)
    - function: _ZN4absl12lts_2021032418debugging_internal25RemoveAllSymbolDecoratorsEv (Address: 0x6b645e0208)
    - function: _Z26grpc_transport_init_streamP14grpc_transportP11grpc_streamP20grpc_stream_refcountPKvPN9grpc_core5ArenaE (Address: 0x6b6445d5ec)
    - function: _ZN18grpc_chttp2_streamC1EP21grpc_chttp2_transportP20grpc_stream_refcountPKvPN9grpc_core5ArenaE (Address: 0x6b644c950c)
    - variable: _ZTSN9grpc_core29FakeResolverResponseGeneratorE (Address: 0x6b64788820)
    - variable: _ZTSN9grpc_core9XdsClient23ClusterWatcherInterfaceE (Address: 0x6b64785b20)
    - function: _ZN9grpc_core24Chttp2IncomingByteStream8ShutdownEP10grpc_error (Address: 0x6b644cd298)
    - function: _ZN27grpc_ssl_server_credentialsC1ERK35grpc_ssl_server_credentials_options (Address: 0x6b64435d7c)
    - function: _ZNSt13runtime_errorC2ERKS_ (Address: 0x6b64731d90)
    - function: _ZNKSt6__ndk17codecvtIcc9mbstate_tE5do_inERS1_PKcS5_RS5_PcS7_RS7_ (Address: 0x6b64726cbc)
    - function: _ZNSt6__ndk113basic_istreamIcNS_11char_traitsIcEEE4swapERS3_ (Address: 0x6b646f3128)
    - function: _ZNSt6__ndk114__split_bufferIPN3re29WalkStateIiEENS_9allocatorIS4_EEE9push_backEOS4_ (Address: 0x6b645934a8)
    - function: _Z25grpc_error_to_absl_statusP10grpc_error (Address: 0x6b6445789c)
    - variable: _ZTIN9grpc_core9XdsClient12ChannelState12AdsCallStateE (Address: 0x6b648f95e0)
    - function: _ZN3re23RE2C2EPKc (Address: 0x6b6458719c)
    - function: _Z15grpc_stats_initv (Address: 0x6b645271cc)
    - function: _ZN9grpc_core6chttp220TransportFlowControl12SmoothLogBdpEd (Address: 0x6b644d1970)
    - function: _ZNKSt6__ndk112ctype_bynameIwE10do_tolowerEPwPKw (Address: 0x6b64726a08)
    - function: _ZN4absl12lts_2021032423inlined_vector_internal7StorageIN9grpc_core14PemKeyCertPairELm1ENSt6__ndk19allocatorIS4_EEE11EmplaceBackIJRPKcSC_EEERS4_DpOT_ (Address: 0x6b64545c4c)
    - function: _ZNK9grpc_core22XdsCertificateProvider11distributorEv (Address: 0x6b64507538)
    - function: _Z32grpc_http2_status_to_grpc_statusi (Address: 0x6b6445d0c4)
    - function: _Z24grpc_jwt_encode_and_signPK18grpc_auth_json_keyPKc12gpr_timespecS3_b (Address: 0x6b6453ca50)
    - function: _ZN9grpc_core6chttp225StreamFlowControlDisabled15MaybeSendUpdateEv (Address: 0x6b644d08d4)
    - variable: grpc_plugin_credentials_trace (Address: 0x6b64922cc0)
    - function: _ZN3re26Regexp19RemoveLeadingRegexpEPS0_ (Address: 0x6b645a51ec)
    - variable: _ZNSt6__ndk114numeric_limitsIN4absl12lts_202103246int128EE10has_denormE (Address: 0x6b647e06c4)
    - function: upb_fielddef_defaultdouble (Address: 0x6b645b763c)
    - variable: _ZTI29grpc_tls_certificate_provider (Address: 0x6b648f9130)
    - function: _ZN3re23RE2C2ERKNS_11StringPieceERKNS0_7OptionsE (Address: 0x6b64587af0)
    - function: _ZNSt6__ndk112basic_stringIcNS_11char_traitsIcEENS_9allocatorIcEEE7replaceEmmRKS5_mm (Address: 0x6b64733ec8)
    - variable: grpc_lb_v1_InitialLoadBalanceResponse_msginit (Address: 0x6b648f9038)
    - variable: envoy_config_cluster_v3_Cluster_PreconnectPolicy_msginit (Address: 0x6b648fb368)
    - function: _ZNKSt6__ndk110moneypunctIcLb1EE16do_positive_signEv (Address: 0x6b64710efc)
    - variable: envoy_config_core_v3_RemoteDataSource_msginit (Address: 0x6b648fb780)
    - function: _ZNK9grpc_core6XdsApi9CdsUpdateeqERKS1_ (Address: 0x6b6450e36c)
    - variable: xds_core_v3_authority_proto_upbdefinit (Address: 0x6b64921740)
    - function: _ZN9grpc_core26TlsServerSecurityConnector32CreateTlsServerSecurityConnectorENS_13RefCountedPtrI23grpc_server_credentialsEENS1_I28grpc_tls_credentials_optionsEE (Address: 0x6b64566e14)
    - variable: _ZTINSt6__ndk115numpunct_bynameIcEE (Address: 0x6b649149f0)
    - variable: envoy_config_route_v3_route_components_proto_upbdefinit (Address: 0x6b64920c78)
    - function: _ZN27grpc_ssl_server_credentialsC2ERK35grpc_ssl_server_credentials_options (Address: 0x6b64435d7c)
    - function: _ZNSt6__ndk115basic_streambufIwNS_11char_traitsIwEEE9underflowEv (Address: 0x6b646f2c90)
    - variable: grpc_client_auth_filter (Address: 0x6b648fa5e8)
    - variable: grpc_bdp_estimator_trace (Address: 0x6b64924e78)
    - variable: _ZTSSt9bad_alloc (Address: 0x6b64807398)
    - variable: _ZTSPKb (Address: 0x6b6480712c)
    - function: _ZN4absl12lts_2021032418StatusCodeToStringENS0_10StatusCodeE (Address: 0x6b645c19cc)
    - function: grpc_server_credentials_release (Address: 0x6b64434354)
    - function: __cxa_pure_virtual (Address: 0x6b647429cc)
    - function: _ZNSt6__ndk113__vector_baseIN9grpc_core6XdsApi5Route10HashPolicyENS_9allocatorIS4_EEED2Ev (Address: 0x6b644b2144)
    - function: _ZN9grpc_core8internal23ServerRetryThrottleDataD2Ev (Address: 0x6b64407ecc)
    - function: _Z37grpc_auth_json_key_create_from_stringPKc (Address: 0x6b6453c6c8)
    - function: _ZNSt6__ndk116generic_categoryEv (Address: 0x6b6473e5e8)
    - function: _ZN4absl12lts_2021032413cord_internal11CordRepRing7AddRingILNS2_7AddModeE0EEEPS2_S5_S5_mm (Address: 0x6b645cd578)
    - variable: _ZTSSt16bad_array_length (Address: 0x6b64807380)
    - variable: envoy_config_overload_v3_OverloadAction_msginit (Address: 0x6b648fc3d0)
    - variable: _ZNSt6__ndk16locale4noneE (Address: 0x6b648044c8)
    - function: _ZN9grpc_core27TlsChannelSecurityConnectorD1Ev (Address: 0x6b645656e8)
    - function: grpc_ssl_server_credentials_create_with_options (Address: 0x6b644364d0)
    - function: _ZNSt6__ndk112basic_stringIcNS_11char_traitsIcEENS_9allocatorIcEEE6insertIPKcEENS_9enable_ifIXaasr21__is_forward_iteratorIT_EE5valuesr38__libcpp_string_gets_noexcept_iteratorISA_EE5valueENS_11__wrap_iterIPcEEE4typeENSB_IS8_EESA_SA_ (Address: 0x6b647338d4)
    - variable: _ZTSPKf (Address: 0x6b648071f0)
    - function: _ZNSt6__ndk16__treeINS_12__value_typeINS_12basic_stringIcNS_11char_traitsIcEENS_9allocatorIcEEEES7_EENS_19__map_value_compareIS7_S8_NS_4lessIS7_EELb1EEENS5_IS8_EEE7destroyEPNS_11__tree_nodeIS8_PvEE (Address: 0x6b6451bb98)
    - function: grpc_slice_sub_no_ref (Address: 0x6b6443c2ec)
    - function: _Z32grpc_compression_algorithm_slice26grpc_compression_algorithm (Address: 0x6b645252f0)
    - function: _ZNSt6__ndk14stoiERKNS_12basic_stringIwNS_11char_traitsIwEENS_9allocatorIwEEEEPmi (Address: 0x6b6473a4d4)
    - variable: _ZNSt6__ndk18ios_base9boolalphaE (Address: 0x6b64803b00)
    - function: _ZN4absl12lts_202103244Cord12RemoveSuffixEm (Address: 0x6b645c68ac)
    - variable: _ZTINSt6__ndk110__function6__baseIFvNS_12basic_stringIcNS_11char_traitsIcEENS_9allocatorIcEEEEbbEEE (Address: 0x6b648f9480)
    - variable: _ZTVN4absl12lts_2021032413time_internal4cctz12TimeZoneInfoE (Address: 0x6b64902a70)
    - variable: _ZTVN9grpc_core24CertificateProviderStore26CertificateProviderWrapperE (Address: 0x6b648f90e0)
    - variable: _ZTSN9grpc_core15Chttp2ConnectorE (Address: 0x6b6478baf0)
    - function: _Z46gpr_global_config_set_grpc_enable_fork_supportb (Address: 0x6b645b4858)
    - function: _Z40tsi_handshaker_get_bytes_to_send_to_peerP14tsi_handshakerPhPm (Address: 0x6b64465208)
    - function: _ZN9grpc_core13ClientChannel8CallData19AsyncResolutionDoneEP17grpc_call_elementP10grpc_error (Address: 0x6b643edca0)
    - function: _ZNK4absl12lts_202103244Cord8EndsWithERKS1_ (Address: 0x6b645c7f3c)
    - function: _ZN9grpc_core9XdsClient12ChannelState12AdsCallState21AcceptLdsUpdateLockedENSt6__ndk112basic_stringIcNS3_11char_traitsIcEENS3_9allocatorIcEEEElNS3_3mapIS9_NS_6XdsApi15LdsResourceDataENS3_4lessIS9_EENS7_INS3_4pairIKS9_SC_EEEEEE (Address: 0x6b6450b834)
    - function: _ZN3re217NumCapturesWalker8PreVisitEPNS_6RegexpEiPb (Address: 0x6b64591d6c)
    - function: _ZNKSt6__ndk17codecvtIDic9mbstate_tE9do_lengthERS1_PKcS5_m (Address: 0x6b647286e8)
    - function: _ZN4absl12lts_202103248StatusOrINSt6__ndk112basic_stringIcNS2_11char_traitsIcEENS2_9allocatorIcEEEEEC2Ev (Address: 0x6b6445fd9c)
    - variable: _ZTVN9grpc_core32Chttp2SecureClientChannelFactoryE (Address: 0x6b648f3438)
    - function: _ZN9grpc_core15Chttp2Connector17OnReceiveSettingsEPvP10grpc_error (Address: 0x6b644c46c8)
    - variable: _ZTVNSt6__ndk18messagesIcEE (Address: 0x6b64913778)
    - variable: envoy_type_matcher_v3_value_proto_upbdefinit (Address: 0x6b64922060)
    - function: inflateUndermine (Address: 0x6b6458389c)
    - function: _ZN9grpc_core14MakeRefCountedINS_8channelz14SubchannelNodeEJPKcRmEEENS_13RefCountedPtrIT_EEDpOT0_ (Address: 0x6b6440ebfc)
    - function: _ZN9grpc_core9XdsClient12ResetBackoffEv (Address: 0x6b645173b0)
    - function: _ZNSt13bad_exceptionD0Ev (Address: 0x6b647444f4)
    - function: _ZN9grpc_core9XdsClient12ChannelState12LrsCallState22OnStatusReceivedLockedEP10grpc_error (Address: 0x6b64512c00)
    - function: grpcsharp_auth_property_iterator_next (Address: 0x6b643e8610)
    - function: _Z29grpc_stats_inc_tcp_write_sizei (Address: 0x6b64527c90)
    - variable: _ZTVNSt6__ndk18numpunctIcEE (Address: 0x6b64913c60)
    - function: _ZNKSt6__ndk114error_category10equivalentERKNS_10error_codeEi (Address: 0x6b6473e410)
    - function: _Z44grpc_channel_stack_builder_set_resource_userP26grpc_channel_stack_builderP18grpc_resource_user (Address: 0x6b64419bac)
    - function: _ZNK9grpc_core30FileWatcherCertificateProvider11distributorEv (Address: 0x6b64548b60)
    - function: _ZN9grpc_core6chttp217StreamFlowControl10MakeActionEv (Address: 0x6b644d2084)
    - function: _ZNSt6__ndk16__treeINS_12__value_typeINS_12basic_stringIcNS_11char_traitsIcEENS_9allocatorIcEEEEN9grpc_core6XdsApi15LdsResourceDataEEENS_19__map_value_compareIS7_SB_NS_4lessIS7_EELb1EEENS5_ISB_EEE4findIS7_EENS_15__tree_iteratorISB_PNS_11__tree_nodeISB_PvEElEERKT_ (Address: 0x6b644f5be4)
    - function: __cxa_get_globals_fast (Address: 0x6b647419b4)
    - variable: _ZTV27grpc_ssl_server_credentials (Address: 0x6b648f3bc8)
    - function: _ZN4absl12lts_202103248DurationmLEl (Address: 0x6b645e1e38)
    - function: _ZN4absl12lts_202103244Cord10GetFlatAuxEPNS0_13cord_internal7CordRepEPNS0_11string_viewE (Address: 0x6b645c84dc)
    - function: _ZN9grpc_core13RefCountedPtrINS_8channelz10SocketNodeEED2Ev (Address: 0x6b644c807c)
    - function: _ZNKSt6__ndk16__treeINS_12__value_typeINS_12basic_stringIcNS_11char_traitsIcEENS_9allocatorIcEEEEN9grpc_core13RefCountedPtrINS8_19LoadBalancingPolicy6ConfigEEEEENS_19__map_value_compareIS7_SD_NS_4lessIS7_EELb1EEENS5_ISD_EEE4findIS7_EENS_21__tree_const_iteratorISD_PNS_11__tree_nodeISD_PvEElEERKT_ (Address: 0x6b64497d04)
    - function: _ZN4absl12lts_2021032421PermissionDeniedErrorENS0_11string_viewE (Address: 0x6b645c32e8)
    - function: _ZN4absl12lts_2021032416strings_internal6memdupEPKcm (Address: 0x6b645f03a4)
    - function: _Z25grpc_channel_args_comparePK17grpc_channel_argsS1_ (Address: 0x6b64418684)
    - variable: _ZNSt6__ndk110ctype_base5printE (Address: 0x6b648044f0)
    - function: _ZN9grpc_core20DelegatingSubchannel12ResetBackoffEv (Address: 0x6b6446ff18)
    - function: _ZN4absl12lts_2021032410FormatTimeENS0_4TimeE (Address: 0x6b645e42dc)
    - variable: _ZTV43grpc_service_account_jwt_access_credentials (Address: 0x6b648f9f40)
    - function: _ZN4absl12lts_202103245MutexD1Ev (Address: 0x6b645db9e0)
    - variable: _ZTIN9grpc_core6Server28AllocatingRequestMatcherBaseE (Address: 0x6b648f4560)
    - function: _ZN9grpc_core9XdsClient12ChannelState13RetryableCallINS1_12LrsCallStateEED2Ev (Address: 0x6b6451d760)
    - variable: _ZTVN3tsi18SslSessionLRUCacheE (Address: 0x6b648fa850)
    - function: _Z36grpc_call_failed_before_recv_messagePK9grpc_call (Address: 0x6b64442ea0)
    - variable: envoy_extensions_transport_sockets_tls_v3_GenericSecret_msginit (Address: 0x6b648fd000)
    - function: _ZN4absl12lts_2021032413cord_internal7CordRep7DestroyEPS2_ (Address: 0x6b645cb894)
    - function: _ZNSt6__ndk120__shared_ptr_emplaceIN9grpc_core6XdsApi9LdsUpdate15FilterChainDataENS_9allocatorIS4_EEED2Ev (Address: 0x6b644fd224)
    - function: _ZN3re26utflenEPKc (Address: 0x6b64594494)
    - variable: _ZTIN9grpc_core31InsecureServerSecurityConnectorE (Address: 0x6b648fa5d0)
    - function: _ZN4absl12lts_202103245Mutex3FerEPNS0_13base_internal14PerThreadSynchE (Address: 0x6b645debf8)
    - function: _Z15grpc_parse_ipv6RKN9grpc_core3URIEP21grpc_resolved_address (Address: 0x6b64415d88)
    - function: _Z32gpr_global_config_get_grpc_tracev (Address: 0x6b644292a8)
    - function: _Z23grpc_chttp2_begin_writeP21grpc_chttp2_transport (Address: 0x6b644dbf5c)
    - variable: _ZTV37grpc_oauth2_token_fetcher_credentials (Address: 0x6b648f9fa0)
    - variable: _ZTIPKg (Address: 0x6b64915fe0)
    - variable: google_protobuf_BytesValue_msginit (Address: 0x6b64902248)
    - function: _ZN9grpc_core8internal49alts_handshaker_client_get_handshaker_for_testingEP22alts_handshaker_client (Address: 0x6b64578efc)
    - function: _ZNSt6__ndk16vectorIN9grpc_core3URI10QueryParamENS_9allocatorIS3_EEE21__push_back_slow_pathIS3_EEvOT_ (Address: 0x6b644610e4)
    - function: _ZN3re23DFA9SearchTFFEPNS0_12SearchParamsE (Address: 0x6b6459ca24)
    - variable: _ZN4absl12lts_2021032419str_format_internal31FormatConversionCharSetInternal1aE (Address: 0x6b647dae80)
    - function: _Z26grpc_chttp2_stream_map_addP22grpc_chttp2_stream_mapjPv (Address: 0x6b644dbb88)
    - variable: envoy_config_core_v3_GrpcService_GoogleGrpc_ChannelArgs_Value_msginit (Address: 0x6b648fbad8)
    - variable: _ZNSt6__ndk17codecvtIcc9mbstate_tE2idE (Address: 0x6b64928d88)
    - function: _ZN9grpc_core16InternedMetadataD2Ev (Address: 0x6b64457e40)
    - function: _Z28grpc_slice_from_moved_bufferNSt6__ndk110unique_ptrIcN9grpc_core17DefaultDeleteCharEEEm (Address: 0x6b6443bfd8)
    - variable: _ZTIN10__cxxabiv121__vmi_class_type_infoE (Address: 0x6b649162a0)
    - function: _ZN27grpc_ssl_server_credentials19set_min_tls_versionE16grpc_tls_version (Address: 0x6b64436138)
    - variable: _ZTIN9grpc_core20ProxyMapperInterfaceE (Address: 0x6b648f4be8)
    - variable: _ZTVN9grpc_core34Chttp2InsecureClientChannelFactoryE (Address: 0x6b648f33e0)
    - function: _Z30grpc_channel_stack_type_string23grpc_channel_stack_type (Address: 0x6b64448fd8)
    - function: _ZNSt6__ndk16__treeINS_12__value_typeINS_12basic_stringIcNS_11char_traitsIcEENS_9allocatorIcEEEENS_10unique_ptrIN9grpc_core9XdsClient12ChannelState12AdsCallState13ResourceStateENS9_16OrphanableDeleteEEEEENS_19__map_value_compareIS7_SG_NS_4lessIS7_EELb1EEENS5_ISG_EEE12__find_equalIS7_EERPNS_16__tree_node_baseIPvEERPNS_15__tree_end_nodeISR_EERKT_ (Address: 0x6b6451e320)
    - function: _Z41grpc_chttp2_list_pop_stalled_by_transportP21grpc_chttp2_transportPP18grpc_chttp2_stream (Address: 0x6b644db854)
    - function: deflateResetKeep (Address: 0x6b6457d9b8)
    - function: _Z43grpc_lb_policy_xds_cluster_manager_shutdownv (Address: 0x6b64495a8c)
    - function: _ZN4absl12lts_2021032417BadStatusOrAccessC2ENS0_6StatusE (Address: 0x6b645b1924)
    - function: _ZNSt6__ndk16__treeINS_12__value_typeINS_12basic_stringIcNS_11char_traitsIcEENS_9allocatorIcEEEENS_6vectorIN9grpc_core13StringMatcherENS5_ISA_EEEEEENS_19__map_value_compareIS7_SD_NS_4lessIS7_EELb1EEENS5_ISD_EEE5eraseENS_21__tree_const_iteratorISD_PNS_11__tree_nodeISD_PvEElEE (Address: 0x6b64508ac0)
    - function: _ZNK4absl12lts_2021032413cord_internal11CordRepRing8FindSlowEjm (Address: 0x6b645ce664)
    - function: _ZN9grpc_core4JsonC2EPKcb (Address: 0x6b6441beb0)
    - function: _Z28grpc_metadata_batch_is_emptyP19grpc_metadata_batch (Address: 0x6b6445a01c)
    - function: _ZN9grpc_core21SliceBufferByteStreamC2EP17grpc_slice_bufferj (Address: 0x6b644561e4)
    - variable: envoy_config_core_v3_RetryPolicy_msginit (Address: 0x6b648fb758)
    - function: _Z41grpc_chttp2_hpack_parser_set_has_priorityP24grpc_chttp2_hpack_parser (Address: 0x6b644d5470)
    - function: grpc_slice_is_equivalent (Address: 0x6b6443cb50)
    - function: _ZNSt6__ndk112basic_stringIwNS_11char_traitsIwEENS_9allocatorIwEEE6assignEPKw (Address: 0x6b64736634)
    - function: _ZN3re28Compiler16AddRuneRangeUTF8Eiib (Address: 0x6b64596c54)
    - function: _ZN4absl12lts_2021032413cord_internal11CordRepRing13AddDataOffsetEjm (Address: 0x6b645cc098)
    - variable: grpc_timer_trace (Address: 0x6b64924d40)
    - variable: _ZTVNSt6__ndk17codecvtIDsc9mbstate_tEE (Address: 0x6b64913f48)
    - function: _ZN4absl12lts_2021032413base_internal8SpinLockC2ENS1_14SchedulingModeE (Address: 0x6b645f1218)
    - function: inflate (Address: 0x6b645815f4)
    - function: _ZNSt6__ndk16futureIvED1Ev (Address: 0x6b64740930)
    - function: _ZN9grpc_core6chttp224TransportFlowControlBaseD2Ev (Address: 0x6b644d22b4)
    - variable: envoy_config_accesslog_v3_MetadataFilter_msginit (Address: 0x6b648fe1e8)
    - function: _ZN9grpc_core29UrlExternalAccountCredentialsD0Ev (Address: 0x6b64561d7c)
    - function: _Z25gpr_parse_bytes_to_uint32PKcmPj (Address: 0x6b645b2b00)
    - function: _ZN3re28Compiler18AddRuneRangeLatin1Eiib (Address: 0x6b64596fe8)
    - function: _ZN4absl12lts_2021032423inlined_vector_internal17ConstructElementsINSt6__ndk19allocatorIN9grpc_core13ServerAddressEEEPS6_NS1_20IteratorValueAdapterIS7_PKS6_EEmEEvPT_T0_PT1_T2_ (Address: 0x6b643fb3b0)
    - function: _Z20grpc_channel_next_opP20grpc_channel_elementP17grpc_transport_op (Address: 0x6b644198ec)
    - function: _Z23grpc_socket_factory_refP19grpc_socket_factory (Address: 0x6b6452f81c)
    - variable: _ZTSN10__cxxabiv116__enum_type_infoE (Address: 0x6b64807270)
    - function: upb_strtable_lookup2 (Address: 0x6b645bd42c)
    - function: _ZN9grpc_core13TraceFlagList3SetEPKcb (Address: 0x6b644292cc)
    - function: _ZN9grpc_core13ClientChannel22StartTransportOpLockedEP17grpc_transport_op (Address: 0x6b643ef5f8)
    - variable: _ZTVSt16invalid_argument (Address: 0x6b64916578)
    - function: _Z39grpc_polling_entity_create_from_pollsetP12grpc_pollset (Address: 0x6b6442c134)
    - function: _ZNK4absl12lts_202103245Mutex13AssertNotHeldEv (Address: 0x6b645dc42c)
    - function: _ZN4absl12lts_2021032423inlined_vector_internal7StorageINSt6__ndk110unique_ptrIN9grpc_core17HandshakerFactoryENS3_14default_deleteIS6_EEEELm2ENS3_9allocatorIS9_EEE15DestroyContentsEv (Address: 0x6b64524e4c)
    - variable: envoy_config_core_v3_TypedExtensionConfig_msginit (Address: 0x6b648fb8f0)
    - variable: _ZTIN9grpc_core12FakeResolverE (Address: 0x6b648f74a0)
    - function: _ZNSt6__ndk114__num_put_base12__format_intEPcPKcbj (Address: 0x6b64705d60)
    - function: grpc_compression_algorithm_is_message (Address: 0x6b64525048)
    - function: _ZNSt6__ndk118condition_variable10notify_allEv (Address: 0x6b6473f9ec)
    - function: _ZNKSt6__ndk15ctypeIcE9do_narrowEPKcS3_cPc (Address: 0x6b64725d08)
    - function: _ZN9grpc_core10Subchannel28CancelConnectivityStateWatchERKN4absl12lts_202103248optionalINSt6__ndk112basic_stringIcNS4_11char_traitsIcEENS4_9allocatorIcEEEEEEPNS0_33ConnectivityStateWatcherInterfaceE (Address: 0x6b6440facc)
    - function: upb_fielddef_enumsubdef (Address: 0x6b645b7698)
    - function: grpcsharp_version_string (Address: 0x6b643e888c)
    - function: _ZNSt6__ndk16__treeINS_12__value_typeINS_12basic_stringIcNS_11char_traitsIcEENS_9allocatorIcEEEEN9grpc_core9XdsClient13ListenerStateEEENS_19__map_value_compareIS7_SB_NS_4lessIS7_EELb1EEENS5_ISB_EEE16__construct_nodeIJRKNS_21piecewise_construct_tENS_5tupleIJRKS7_EEENSM_IJEEEEEENS_10unique_ptrINS_11__tree_nodeISB_PvEENS_22__tree_node_destructorINS5_ISU_EEEEEEDpOT_ (Address: 0x6b6451cbf0)
    - function: _ZN3re26Regexp8SimplifyEv (Address: 0x6b645adf30)
    - variable: _ZTSNSt6__ndk110__function6__baseIFvN4absl12lts_2021032411string_viewERKNS3_4CordEEEE (Address: 0x6b647da600)
    - variable: _ZTSNSt6__ndk18time_getIcNS_19istreambuf_iteratorIcNS_11char_traitsIcEEEEEE (Address: 0x6b64805ce0)
    - variable: google_protobuf_Int32Value_msginit (Address: 0x6b649021e8)
    - function: _ZNSt6__ndk15mutexD2Ev (Address: 0x6b647311c0)
    - variable: _ZTVN3re214SimplifyWalkerE (Address: 0x6b648ffb58)
    - function: upb_msgdef_fieldcount (Address: 0x6b645b7b00)
    - variable: google_protobuf_UninterpretedOption_NamePart_msginit (Address: 0x6b649026a0)
    - variable: _ZTSN9grpc_core10RefCountedINS_17GrpcLbClientStatsENS_19PolymorphicRefCountELNS_13UnrefBehaviorE0EEE (Address: 0x6b64782080)
    - variable: _ZN4absl12lts_2021032411kuint128maxE (Address: 0x6b647e0670)
    - variable: _ZTSn (Address: 0x6b648071c0)
    - variable: google_protobuf_Duration_msginit (Address: 0x6b649020d0)
    - function: _ZN4absl12lts_2021032413base_internal13LowLevelAlloc5ArenaC1Ej (Address: 0x6b645e03c8)
    - function: _ZNSt6__ndk16__treeINS_12__value_typeIlN9grpc_core13RefCountedPtrINS2_8channelz10SocketNodeEEEEENS_19__map_value_compareIlS7_NS_4lessIlEELb1EEENS_9allocatorIS7_EEE14__erase_uniqueIlEEmRKT_ (Address: 0x6b64424e60)
    - variable: _ZTISt12length_error (Address: 0x6b649165e0)
    - function: grpc_resource_quota_create (Address: 0x6b6452d554)
    - function: _ZN9grpc_core21XdsHttpFilterRegistry16GetFilterForTypeEN4absl12lts_2021032411string_viewE (Address: 0x6b645229e4)
    - function: _Z18tsi_construct_peermP8tsi_peer (Address: 0x6b644657a0)
    - variable: _ZTSNSt6__ndk110moneypunctIwLb1EEE (Address: 0x6b64806100)
    - function: _ZN9grpc_core37FileWatcherCertificateProviderFactory25CreateCertificateProviderENS_13RefCountedPtrINS_26CertificateProviderFactory6ConfigEEE (Address: 0x6b644e2838)
    - function: _ZNSt6__ndk114__split_bufferIPN3re29WalkStateIPNS1_6RegexpEEENS_9allocatorIS6_EEE9push_backEOS6_ (Address: 0x6b645b03f8)
    - function: _ZN4absl12lts_2021032412FDivDurationENS0_8DurationES1_ (Address: 0x6b645e24d0)
    - variable: _ZTIN9grpc_core13ClientChannel21ResolverResultHandlerE (Address: 0x6b648f2850)
    - variable: _ZTSN9grpc_core8internal17RetryMethodConfigE (Address: 0x6b64777000)
    - function: _Z24grpc_ssl_check_peer_nameN4absl12lts_2021032411string_viewEPK8tsi_peer (Address: 0x6b644380b0)
    - function: _ZNSt6__ndk13mapINS_12basic_stringIcNS_11char_traitsIcEENS_9allocatorIcEEEENS_6vectorIS6_NS4_IS6_EEEENS_4lessIS6_EENS4_INS_4pairIKS6_S9_EEEEEixERSD_ (Address: 0x6b644b9710)
    - function: _ZNSt6__ndk112basic_stringIcNS_11char_traitsIcEENS_9allocatorIcEEE6appendEPKcm (Address: 0x6b643f6f88)
    - function: _ZNK4absl12lts_202103244Cord15CompareSlowPathENS0_11string_viewEmm (Address: 0x6b645caca8)
    - function: _ZN9grpc_core6XdsApi9LdsUpdate21HttpConnectionManageraSEOS2_ (Address: 0x6b644b4e90)
    - function: _ZN9grpc_core9XdsClient20WatchRouteConfigDataEN4absl12lts_2021032411string_viewENSt6__ndk110unique_ptrINS0_27RouteConfigWatcherInterfaceENS4_14default_deleteIS6_EEEE (Address: 0x6b645141bc)
    - function: _ZNKSt6__ndk112basic_stringIcNS_11char_traitsIcEENS_9allocatorIcEEE2atEm (Address: 0x6b64732f30)
    - function: _Z47grpc_chttp2_hpack_compressor_set_max_table_sizeP28grpc_chttp2_hpack_compressorj (Address: 0x6b644d39cc)
    - function: _ZN4absl12lts_2021032418Utf8SafeCHexEscapeENS0_11string_viewE (Address: 0x6b645e76c4)
    - function: _Z21grpc_error_std_stringP10grpc_error (Address: 0x6b6442b17c)
    - variable: envoy_config_endpoint_v3_LbEndpoint_msginit (Address: 0x6b648fbea8)
    - function: _ZNSt6__ndk113basic_istreamIwNS_11char_traitsIwEEE5ungetEv (Address: 0x6b646f85ec)
    - variable: gpr_now_impl (Address: 0x6b649222f8)
    - function: _ZN9grpc_core24Chttp2IncomingByteStream4PullEP10grpc_slice (Address: 0x6b644ccd6c)
    - variable: _ZTSNSt6__ndk17codecvtIwc9mbstate_tEE (Address: 0x6b64804f00)
    - function: _ZN3re24Prog9IsOnePassEv (Address: 0x6b645a3124)
    - function: _ZN9grpc_core9XdsClient11GetOrCreateEPK17grpc_channel_argsPP10grpc_error (Address: 0x6b64518434)
    - variable: envoy_config_listener_v3_ListenerFilter_msginit (Address: 0x6b648fc1b8)
    - function: _ZN9grpc_core8internal27UnsetGlobalXdsClientForTestEv (Address: 0x6b64518f18)
    - function: _ZNSt6__ndk115basic_streambufIcNS_11char_traitsIcEEE9pubsetbufEPcl (Address: 0x6b646f2374)
    - function: _Z46grpc_gcp_rpc_protocol_versions_assign_from_upbP29_grpc_gcp_RpcProtocolVersionsPK28grpc_gcp_RpcProtocolVersions (Address: 0x6b64569a80)
    - function: _ZN9grpc_core13ClientChannel8CallData38YieldCallCombinerIfPendingBatchesFoundERKNS_23CallCombinerClosureListE (Address: 0x6b643f5dc8)
    - function: upb_fielddef_isextension (Address: 0x6b645b7568)
    - function: _Z47gpr_global_config_set_grpc_system_ssl_roots_dirPKc (Address: 0x6b6454c988)
    - function: _ZNSt6__ndk16vectorIN9grpc_core6XdsApi5Route13ClusterWeightENS_9allocatorIS4_EEEC2ERKS7_ (Address: 0x6b6451b590)
    - variable: tsi_tracing_enabled (Address: 0x6b649248b8)
    - function: _ZNKSt6__ndk18time_putIwNS_19ostreambuf_iteratorIwNS_11char_traitsIwEEEEE3putES4_RNS_8ios_baseEwPK2tmPKwSC_ (Address: 0x6b647102e4)
    - function: _ZNSt6__ndk16__treeINS_12__value_typeINS_12basic_stringIcNS_11char_traitsIcEENS_9allocatorIcEEEENS_10unique_ptrIN9grpc_core10Subchannel16HealthWatcherMap13HealthWatcherENS9_16OrphanableDeleteEEEEENS_19__map_value_compareIS7_SF_NS_4lessIS7_EELb1EEENS5_ISF_EEE4findIS7_EENS_15__tree_iteratorISF_PNS_11__tree_nodeISF_PvEElEERKT_ (Address: 0x6b64410f8c)
    - function: _ZNKSt6__ndk17codecvtIcc9mbstate_tE6do_outERS1_PKcS5_RS5_PcS7_RS7_ (Address: 0x6b64726cac)
    - function: _ZN14TlsCredentialsD2Ev (Address: 0x6b64562e9c)
    - variable: _ZTSNSt6__ndk18ios_baseE (Address: 0x6b64803b90)
    - function: _ZN9grpc_core8channelz10SocketNodeC2ENSt6__ndk112basic_stringIcNS2_11char_traitsIcEENS2_9allocatorIcEEEES8_S8_NS_13RefCountedPtrINS1_8SecurityEEE (Address: 0x6b644213d4)
    - function: _ZN9grpc_core8internal32ClientChannelServiceConfigParser11ParserIndexEv (Address: 0x6b643ffb7c)
    - function: _ZN9grpc_core13ClientChannel16LoadBalancedCall38MaybeRemoveCallFromLbQueuedCallsLockedEv (Address: 0x6b643f2704)
    - function: _ZNSt6__ndk16vectorIPN3re26RegexpENS_9allocatorIS3_EEE21__push_back_slow_pathIRKS3_EEvOT_ (Address: 0x6b645928ac)
    - function: _ZN9grpc_core13ClientChannel32DestroyResolverAndLbPolicyLockedEv (Address: 0x6b643eb788)
    - function: _ZNSt6__ndk13mapINS_12basic_stringIcNS_11char_traitsIcEENS_9allocatorIcEEEEmNS_4lessIS6_EENS4_INS_4pairIKS6_mEEEEEixERSA_ (Address: 0x6b6451c314)
    - function: _ZN3re26Regexp10ParseState12ParseCCRangeEPNS_11StringPieceEPNS_9RuneRangeERKS2_PNS_12RegexpStatusE (Address: 0x6b645a7454)
    - function: _Z24grpc_resource_user_allocP18grpc_resource_usermP12grpc_closure (Address: 0x6b6452ef80)
    - function: _ZN9grpc_core14RegisteredCallD2Ev (Address: 0x6b6444754c)
    - function: _Z28grpc_chttp2_huffman_compressRK10grpc_slice (Address: 0x6b645558a4)
    - function: _ZNSt6__ndk17promiseIvED1Ev (Address: 0x6b64740a40)
    - function: _ZN4absl12lts_202103248DurationmLEd (Address: 0x6b645e1ff0)
    - variable: _ZTSPc (Address: 0x6b64807140)
    - variable: _ZN4absl12lts_2021032419str_format_internal31FormatConversionCharSetInternal9kFloatingE (Address: 0x6b647daeb0)
    - function: _ZN9grpc_core10Subchannel16AttemptToConnectEv (Address: 0x6b6440fc0c)
    - function: _ZN9grpc_core13ServerAddress18AttributeInterfaceD2Ev (Address: 0x6b644a30b4)
    - function: _ZN4absl12lts_2021032413base_internal8SpinLock16DecodeWaitCyclesEj (Address: 0x6b645f14b4)
    - function: _Z15grpc_cq_pollsetP21grpc_completion_queue (Address: 0x6b64449bf4)
    - function: _ZN37grpc_oauth2_token_fetcher_credentialsD0Ev (Address: 0x6b6453ee68)
    - function: _ZN3re23RE2C1ERKNSt6__ndk112basic_stringIcNS1_11char_traitsIcEENS1_9allocatorIcEEEE (Address: 0x6b645878d8)
    - variable: _ZN9grpc_core20GlobalSubchannelPool9instance_E (Address: 0x6b64922b88)
    - function: _ZN4absl12lts_202103248AlphaNumC1ENS0_3DecE (Address: 0x6b645ea3b4)
    - function: _ZN3re28CompilerD2Ev (Address: 0x6b64595934)
    - function: _Z36grpc_permissive_percent_decode_sliceRK10grpc_slice (Address: 0x6b64550ba8)
    - variable: _ZTINSt6__ndk110__function6__baseIFvN4absl12lts_2021032411string_viewERKNS3_4CordEEEE (Address: 0x6b649027b8)
    - function: _Z25grpc_set_socket_dualstacki (Address: 0x6b6452ad98)
    - function: _ZNK9grpc_core18XdsHttpFaultFilter14channel_filterEv (Address: 0x6b64558bb0)
    - variable: _ZTSN9grpc_core29AwsExternalAccountCredentialsE (Address: 0x6b647c6690)
    - function: _ZNSt6__ndk112__deque_baseIN9grpc_core10Subchannel33ConnectivityStateWatcherInterface23ConnectivityStateChangeENS_9allocatorIS4_EEE5clearEv (Address: 0x6b643f48f4)
    - function: inflateSync (Address: 0x6b64583400)
    - variable: envoy_extensions_transport_sockets_tls_v3_UpstreamTlsContext_msginit (Address: 0x6b648fd080)
    - function: _ZN23grpc_plugin_credentialsD1Ev (Address: 0x6b64434824)
    - function: _Z39grpc_chttp2_maybe_complete_recv_messageP21grpc_chttp2_transportP18grpc_chttp2_stream (Address: 0x6b644caf58)
    - variable: _ZTTNSt6__ndk114basic_iostreamIcNS_11char_traitsIcEEEE (Address: 0x6b64912a40)
    - variable: _ZN4absl12lts_2021032419str_format_internal5kTagsE (Address: 0x6b647db1fc)
    - function: _ZN9grpc_core30FileWatcherCertificateProvider11ForceUpdateEv (Address: 0x6b64546988)
    - function: _ZN4absl12lts_2021032424synchronization_internal6WaiterD1Ev (Address: 0x6b645dfd68)
    - function: _ZNSt6__ndk114__codecvt_utf8IDsED0Ev (Address: 0x6b6472f674)
    - function: _ZN4absl12lts_202103244Cord15DestroyCordSlowEv (Address: 0x6b645c59d0)
    - function: gpr_time_from_millis (Address: 0x6b645b3c98)
    - function: _ZN4absl12lts_2021032419str_format_internal8SnprintFEPcmNS1_21UntypedFormatSpecImplENS0_4SpanIKNS1_13FormatArgImplEEE (Address: 0x6b645d3d1c)
    - function: _Z44tsi_construct_allocated_string_peer_propertyPKcmP17tsi_peer_property (Address: 0x6b64465688)
    - function: _ZNSt6__ndk112basic_stringIwNS_11char_traitsIwEENS_9allocatorIwEEEC1ERKS5_RKS4_ (Address: 0x6b647360c4)
    - variable: _ZN9grpc_core24grpc_lb_pick_first_traceE (Address: 0x6b64924918)
    - function: _ZN9grpc_core27MovedCppStringSliceRefCount7DestroyEPv (Address: 0x6b6443cff4)
    - variable: grpc_gcp_StartServerHandshakeReq_HandshakeParametersEntry_msginit (Address: 0x6b648fecd0)
    - function: _ZN9grpc_core15Chttp2Connector15OnHandshakeDoneEPvP10grpc_error (Address: 0x6b644c43b8)
    - function: _Z32grpc_auth_metadata_context_buildPKcRK10grpc_sliceS3_P17grpc_auth_contextP26grpc_auth_metadata_context (Address: 0x6b6454d258)
    - function: _ZN4absl12lts_2021032413base_internal26ClearCurrentThreadIdentityEv (Address: 0x6b645f19f4)
    - function: _ZN4absl12lts_2021032413InlinedVectorINSt6__ndk110unique_ptrINS1_INS3_IN9grpc_core19ServiceConfigParser12ParsedConfigENS2_14default_deleteIS6_EEEELm4ENS2_9allocatorIS9_EEEENS7_ISC_EEEELm32ENSA_ISE_EEED2Ev (Address: 0x6b6440a3a8)
    - function: grpc_compression_algorithm_name (Address: 0x6b64525150)
    - function: _ZNSt6__ndk115__thread_struct27__make_ready_at_thread_exitEPNS_17__assoc_sub_stateE (Address: 0x6b6473f724)
    - function: _ZN9grpc_core12CallCombiner6CancelEP10grpc_error (Address: 0x6b64429ad8)
    - function: _ZN9grpc_core19DefaultSslRootStore12GetRootStoreEv (Address: 0x6b64439028)
    - variable: _ZTSN9grpc_core10RefCountedINS_23XdsClusterLocalityStatsENS_19PolymorphicRefCountELNS_13UnrefBehaviorE0EEE (Address: 0x6b64796820)
    - variable: google_protobuf_DescriptorProto_msginit (Address: 0x6b64902420)
    - function: grpc_google_compute_engine_credentials_create (Address: 0x6b6453fb9c)
    - function: _ZN9grpc_core27TlsChannelSecurityConnector28ServerAuthorizationCheckDoneEP39grpc_tls_server_authorization_check_arg (Address: 0x6b64566c38)
    - variable: _ZTIN9grpc_core9XdsClient24ListenerWatcherInterfaceE (Address: 0x6b648f80b8)
    - variable: envoy_service_discovery_v3_DeltaDiscoveryRequest_InitialResourceVersionsEntry_msginit (Address: 0x6b648fd220)
    - function: _ZNKSt6__ndk110moneypunctIwLb1EE13do_pos_formatEv (Address: 0x6b64711200)
    - function: _Z41grpc_chttp2_list_add_stalled_by_transportP21grpc_chttp2_transportP18grpc_chttp2_stream (Address: 0x6b644db764)
    - variable: _ZTCNSt6__ndk119basic_ostringstreamIcNS_11char_traitsIcEENS_9allocatorIcEEEE0_NS_13basic_ostreamIcS2_EE (Address: 0x6b648fef40)
    - function: _ZN4absl12lts_2021032420DurationFromTimespecE8timespec (Address: 0x6b645e2b00)
    - variable: _ZTSN9grpc_core20GlobalSubchannelPoolE (Address: 0x6b64774780)
    - variable: envoy_config_cluster_v3_Cluster_msginit (Address: 0x6b648fb178)
    - function: grpcsharp_call_send_close_from_client (Address: 0x6b643e7e78)
    - function: _Z26grpc_socket_factory_socketP19grpc_socket_factoryiii (Address: 0x6b6452f7c8)
    - function: _ZNSt6__ndk110__function6__funcIZN9grpc_core13ClientChannel17SubchannelWrapper14WatcherWrapper25OnConnectivityStateChangeEvEUlvE_NS_9allocatorIS6_EEFvvEED0Ev (Address: 0x6b643f4b14)
    - function: upb_mapiter_key (Address: 0x6b645c1950)
    - variable: _ZTSv (Address: 0x6b64807108)
    - variable: _ZTIPKc (Address: 0x6b64915a90)
    - function: _Z27grpc_chttp2_stream_map_findP22grpc_chttp2_stream_mapj (Address: 0x6b644dbd00)
    - variable: _ZTVNSt6__ndk115__codecvt_utf16IDsLb0EEE (Address: 0x6b64914548)
    - function: _ZN9grpc_core8internal24RetryServiceConfigParser20ParsePerMethodParamsEPK17grpc_channel_argsRKNS_4JsonEPP10grpc_error (Address: 0x6b644072e4)
    - variable: _ZTIN3re217NumCapturesWalkerE (Address: 0x6b648ff1f0)
    - variable: envoy_extensions_clusters_aggregate_v3_cluster_proto_upbdefinit (Address: 0x6b64920cc8)
    - function: _ZN3re26Regexp12NewCharClassEPNS_9CharClassENS0_10ParseFlagsE (Address: 0x6b6458facc)
    - function: _ZN4absl12lts_202103245Mutex17AwaitWithDeadlineERKNS0_9ConditionENS0_4TimeE (Address: 0x6b645dccb0)
    - variable: grpc_stats_histogram_doc (Address: 0x6b6491fc90)
    - function: _Z43grpc_channel_stack_builder_add_filter_afterP35grpc_channel_stack_builder_iteratorPK19grpc_channel_filterPFvP18grpc_channel_stackP20grpc_channel_elementPvES8_ (Address: 0x6b64419e30)
    - function: _ZNKSt6__ndk110error_code7messageEv (Address: 0x6b6473e814)
    - function: _Z20grpc_timer_heap_initP15grpc_timer_heap (Address: 0x6b64536ef0)
    - variable: envoy_admin_v3_RoutesConfigDump_msginit (Address: 0x6b648fab88)
    - function: _ZNKSt6__ndk112ctype_bynameIwE5do_isEPKwS3_Pm (Address: 0x6b647265c4)
    - function: _ZNK9grpc_core29StaticDataCertificateProvider11distributorEv (Address: 0x6b64548b34)
    - function: _ZNSt6__ndk115basic_streambufIcNS_11char_traitsIcEEE7pubsyncEv (Address: 0x6b646f2398)
    - variable: _ZTIN9grpc_core20GlobalSubchannelPoolE (Address: 0x6b648f2980)
    - variable: _ZNSt6__ndk114numeric_limitsIN4absl12lts_202103246int128EE6digitsE (Address: 0x6b647e06d4)
    - function: _ZN9grpc_core8channelz11ChannelNode15AddChildChannelEl (Address: 0x6b6441e690)
    - function: grpcsharp_metadata_array_count (Address: 0x6b643e6ccc)
    - function: upb_msg_whichoneof (Address: 0x6b645c07f8)
    - function: grpc_slice_buffer_tiny_add (Address: 0x6b6443d3e8)
    - function: _ZNSt6__ndk16vectorIPcNS_9allocatorIS1_EEE24__emplace_back_slow_pathIJRS1_EEEvDpOT_ (Address: 0x6b64567d54)
    - function: _Z14grpc_load_filePKciP10grpc_slice (Address: 0x6b6452caf0)
    - function: _ZN4absl12lts_2021032423inlined_vector_internal7StorageIN9grpc_core13ServerAddressELm1ENSt6__ndk19allocatorIS4_EEE15EmplaceBackSlowIJR21grpc_resolved_addressDnEEERS4_DpOT_ (Address: 0x6b644b02b0)
    - variable: _ZTINSt6__ndk19__num_getIcEE (Address: 0x6b64914aa0)
    - function: _Z38grpc_stats_inc_tcp_read_offer_iov_sizei (Address: 0x6b64527ca0)
    - variable: _ZTVN9grpc_core31InsecureServerSecurityConnectorE (Address: 0x6b648fa588)
    - variable: envoy_config_route_v3_CorsPolicy_msginit (Address: 0x6b648fc6c0)
    - function: _ZN9grpc_core14RegisteredCallC1EPKcS2_ (Address: 0x6b6444708c)
    - function: _Z36grpc_chttp2_list_add_writable_streamP21grpc_chttp2_transportP18grpc_chttp2_stream (Address: 0x6b644db0bc)
    - function: _Z39grpc_resource_user_slice_allocator_initP34grpc_resource_user_slice_allocatorP18grpc_resource_userPFvPvP10grpc_errorES3_ (Address: 0x6b6452f238)
    - variable: _ZTSZN9grpc_core13ClientChannel17SubchannelWrapper14WatcherWrapperD1EvEUlvE_ (Address: 0x6b64773d70)
    - variable: _ZTIf (Address: 0x6b64915ec0)
    - variable: envoy_extensions_filters_network_http_connection_manager_v3_ResponseMapper_msginit (Address: 0x6b648fce88)
    - variable: _ZTSNSt6__ndk110__function6__funcIZN9grpc_core13ClientChannel24ConnectivityWatcherAdderC1EPS3_23grpc_connectivity_stateNS_10unique_ptrINS2_38AsyncConnectivityStateWatcherInterfaceENS2_16OrphanableDeleteEEEEUlvE_NS_9allocatorISB_EEFvvEEE (Address: 0x6b64773ed0)
    - function: _ZNSt6__ndk16__treeINS_12__value_typeINS_12basic_stringIcNS_11char_traitsIcEENS_9allocatorIcEEEEN9grpc_core24CertificateProviderStore16PluginDefinitionEEENS_19__map_value_compareIS7_SB_NS_4lessIS7_EELb1EEENS5_ISB_EEE16__construct_nodeIJNS_4pairIKS7_SA_EEEEENS_10unique_ptrINS_11__tree_nodeISB_PvEENS_22__tree_node_destructorINS5_ISP_EEEEEEDpOT_ (Address: 0x6b64505394)
    - function: _Z29grpc_resolver_dns_native_initv (Address: 0x6b644a86a0)
    - variable: _ZTINSt6__ndk18time_putIcNS_19ostreambuf_iteratorIcNS_11char_traitsIcEEEEEE (Address: 0x6b64914e20)
    - function: _ZN9grpc_core4Json5ParseEN4absl12lts_2021032411string_viewEPP10grpc_error (Address: 0x6b6442de40)
    - function: _ZNSt6__ndk112__hash_tableINS_17__hash_value_typeImiEENS_22__unordered_map_hasherImS2_NS_4hashImEELb1EEENS_21__unordered_map_equalImS2_NS_8equal_toImEELb1EEENS_9allocatorIS2_EEE8__rehashEm (Address: 0x6b64598e04)
    - function: _ZNK29grpc_tls_certificate_provider18interested_partiesEv (Address: 0x6b64507530)
    - function: _ZNSt6__ndk113basic_istreamIcNS_11char_traitsIcEEErsERs (Address: 0x6b646f3780)
    - variable: _ZTSN10__cxxabiv121__vmi_class_type_infoE (Address: 0x6b648072d0)
    - function: _ZN9grpc_core26ExternalAccountCredentials6CreateERKNS_4JsonENSt6__ndk16vectorINS4_12basic_stringIcNS4_11char_traitsIcEENS4_9allocatorIcEEEENS9_ISB_EEEEPP10grpc_error (Address: 0x6b6455b100)
    - function: _ZN9grpc_core8channelz10SocketNode8Security18GetFromChannelArgsEPK17grpc_channel_args (Address: 0x6b64421374)
    - function: _ZNK43grpc_httpcli_ssl_channel_security_connector3cmpEPK23grpc_security_connector (Address: 0x6b64559628)
    - function: _ZN9grpc_core6XdsApi5RouteC2ERKS1_ (Address: 0x6b6451b1fc)
    - function: _Z23grpc_channel_stack_initiPFvPvP10grpc_errorES_PPK19grpc_channel_filtermPK17grpc_channel_argsP14grpc_transportPKcP18grpc_channel_stack (Address: 0x6b64419454)
    - function: _ZN9grpc_core14PemKeyCertPairaSEOS0_ (Address: 0x6b645458f0)
    - function: _ZNSt6__ndk112basic_stringIcNS_11char_traitsIcEENS_9allocatorIcEEE5eraseEmm (Address: 0x6b64733cac)
    - function: grpc_call_auth_context (Address: 0x6b64431a90)
    - function: _ZN9grpc_core13ClientChannel16LoadBalancedCall13AsyncPickDoneEP10grpc_error (Address: 0x6b643ef24c)
    - function: _ZN9grpc_core8channelz14SubchannelNode10RenderJsonEv (Address: 0x6b6446676c)
    - function: _Z30alts_grpc_record_protocol_initP25alts_grpc_record_protocolP17gsec_aead_cryptermbbb (Address: 0x6b6457b498)
    - function: _Z29grpc_chttp2_stream_map_deleteP22grpc_chttp2_stream_mapj (Address: 0x6b644dbc9c)
    - function: _ZN9grpc_core25grpc_executor_global_initEv (Address: 0x6b6452c174)
    - function: _ZNSt6__ndk17promiseIvE28set_exception_at_thread_exitESt13exception_ptr (Address: 0x6b64740fa4)
    - function: _ZN4absl12lts_2021032418debugging_internal18GetFileMappingHintEPPKvS4_PmPPKc (Address: 0x6b645e0218)
    - variable: _ZN4absl12lts_2021032419str_format_internal28FormatConversionCharInternal1sE (Address: 0x6b647dadf9)
    - variable: envoy_config_cluster_v3_Cluster_TransportSocketMatch_msginit (Address: 0x6b648fb1a0)
    - function: _Z39grpc_cycle_counter_to_millis_round_downd (Address: 0x6b6442bd28)
    - function: _ZNSt6__ndk114collate_bynameIcED0Ev (Address: 0x6b64724944)
    - variable: _ZTI30grpc_server_security_connector (Address: 0x6b648f3d40)
    - function: _ZN3re23RE23Arg18parse_ushort_octalEPKcmPv (Address: 0x6b6458b68c)
    - function: _Z19grpc_tcp_posix_initv (Address: 0x6b64531c30)
    - variable: _ZTSN9grpc_core18XdsHttpFaultFilterE (Address: 0x6b647bd870)
    - function: _ZN9grpc_core16InternedMetadataC1ERK10grpc_sliceS3_jPS0_PKNS0_8NoRefKeyE (Address: 0x6b64457de8)
    - variable: _ZTIPKx (Address: 0x6b64915d60)
    - function: deflateSetHeader (Address: 0x6b6457dac0)
    - function: _ZN9grpc_core37FileWatcherCertificateProviderFactory6ConfigD0Ev (Address: 0x6b644e2d80)
    - variable: _ZTVN9grpc_core8channelz14SubchannelNodeE (Address: 0x6b648f4a00)
    - function: _ZNSt6__ndk114__split_bufferIPPKN4absl12lts_2021032413time_internal4cctz9time_zone4ImplERNS_9allocatorIS9_EEE10push_frontERKS9_ (Address: 0x6b645f9b40)
    - function: _ZNSt6__ndk115basic_streambufIwNS_11char_traitsIwEEE8pubimbueERKNS_6localeE (Address: 0x6b646f20a0)
    - function: _ZNSt6__ndk114__split_bufferIN9grpc_core13HeaderMatcherERNS_9allocatorIS2_EEED2Ev (Address: 0x6b644fb654)
    - function: _ZN9grpc_core19ProxyMapperRegistry10MapAddressERK21grpc_resolved_addressPK17grpc_channel_argsPPS1_PPS4_ (Address: 0x6b643fdddc)
    - variable: _ZN4absl12lts_2021032419str_format_internal31FormatConversionCharSetInternal8kNumericE (Address: 0x6b647daeb8)
    - function: _Z37grpc_channel_credentials_find_in_argsPK17grpc_channel_args (Address: 0x6b64434290)
    - function: _ZNSt6__ndk16vectorIP12grpc_pollsetNS_9allocatorIS2_EEE21__push_back_slow_pathIS2_EEvOT_ (Address: 0x6b6445351c)
    - function: _ZNSt6__ndk16__treeINS_12__value_typeINS_12basic_stringIcNS_11char_traitsIcEENS_9allocatorIcEEEEN9grpc_core24CertificateProviderStore16PluginDefinitionEEENS_19__map_value_compareIS7_SB_NS_4lessIS7_EELb1EEENS5_ISB_EEE16__construct_nodeIJRKNS_4pairIKS7_SA_EEEEENS_10unique_ptrINS_11__tree_nodeISB_PvEENS_22__tree_node_destructorINS5_ISR_EEEEEEDpOT_ (Address: 0x6b6451f9e8)
    - function: _ZN4absl12lts_2021032414ToInt64MinutesENS0_8DurationE (Address: 0x6b645e2de4)
    - function: _ZN9grpc_core8channelz16ListenSocketNodeD2Ev (Address: 0x6b644246a4)
    - function: gpr_zalloc (Address: 0x6b645b1d90)
    - function: _Z20grpc_error_add_childP10grpc_errorS0_ (Address: 0x6b6442a9f4)
    - function: _Z19grpc_call_get_arenaP9grpc_call (Address: 0x6b644420a4)
    - function: _ZN3re26Regexp10NewLiteralEiNS0_10ParseFlagsE (Address: 0x6b6458f83c)
    - function: grpc_compression_options_enable_algorithm (Address: 0x6b645252a8)
    - function: _ZNSt6__ndk16vectorIN9grpc_core6XdsApi9RdsUpdate11VirtualHostENS_9allocatorIS4_EEE24__emplace_back_slow_pathIJEEEvDpOT_ (Address: 0x6b644fab4c)
    - function: _Z32grpc_set_socket_tcp_user_timeoutiPK17grpc_channel_argsb (Address: 0x6b6442ccb0)
    - function: _Z25alts_destroy_frame_writerP17alts_frame_writer (Address: 0x6b64578150)
    - function: _ZNSt6__ndk114codecvt_bynameIcc9mbstate_tED1Ev (Address: 0x6b6471986c)
    - function: upb_msg_set (Address: 0x6b645c0ddc)
    - function: _ZNSt6__ndk14stodERKNS_12basic_stringIcNS_11char_traitsIcEENS_9allocatorIcEEEEPm (Address: 0x6b6473ba84)
    - function: _ZN9grpc_core33FaultInjectionServiceConfigParser20ParsePerMethodParamsEPK17grpc_channel_argsRKNS_4JsonEPP10grpc_error (Address: 0x6b644bceac)
    - function: _ZNSt6__ndk114__split_bufferIPN3re29WalkStateIPNS1_6RegexpEEENS_9allocatorIS6_EEE10push_frontEOS6_ (Address: 0x6b645b05fc)
    - function: _ZN4absl12lts_2021032416strings_internal17FindSubstitutionsISt16initializer_listINSt6__ndk14pairINS0_11string_viewES6_EEEEENS4_6vectorINS1_18ViableSubstitutionENS4_9allocatorISA_EEEES6_RKT_ (Address: 0x6b645eb2bc)
    - function: _ZN9grpc_core19ConnectedSubchannel4PingEP12grpc_closureS2_ (Address: 0x6b6440c9a0)
    - variable: _ZTSN9grpc_core19XdsClusterDropStatsE (Address: 0x6b64796750)
    - function: _ZN9grpc_core8channelz8BaseNode16RenderJsonStringEv (Address: 0x6b6441c448)
    - variable: _ZTSN4absl12lts_2021032413time_internal4cctz12TimeZoneLibCE (Address: 0x6b647e1190)
    - function: _ZN37grpc_google_refresh_token_credentialsD1Ev (Address: 0x6b6453fcb4)
    - function: _ZN4absl12lts_2021032419str_format_internal17FormatConvertImplEhNS1_24FormatConversionSpecImplEPNS1_14FormatSinkImplE (Address: 0x6b645d0204)
    - function: upb_inttable_insertptr2 (Address: 0x6b645be014)
    - function: _ZN9grpc_core10Subchannel16HealthWatcherMap13HealthWatcher6OrphanEv (Address: 0x6b64411228)
    - function: _ZN9grpc_core10SubchannelC1ENS_13SubchannelKeyENSt6__ndk110unique_ptrINS_19SubchannelConnectorENS_16OrphanableDeleteEEEPK17grpc_channel_args (Address: 0x6b6440e190)
    - function: _ZN9grpc_core16HandshakeManager3AddENS_13RefCountedPtrINS_10HandshakerEEE (Address: 0x6b64523cd4)
    - function: _ZNSt6__ndk16futureIvEC1EPNS_17__assoc_sub_stateE (Address: 0x6b64740844)
    - function: _Z44grpc_stream_compression_algorithm_from_sliceRK10grpc_slice (Address: 0x6b64525954)
    - function: _ZN4absl12lts_2021032423inlined_vector_internal7StorageIN9grpc_core13ServerAddressELm1ENSt6__ndk19allocatorIS4_EEE11EmplaceBackIJPA128_cRjDnEEERS4_DpOT_ (Address: 0x6b644a98bc)
    - function: __cxa_allocate_exception (Address: 0x6b64741218)
    - function: upb_strtable_begin (Address: 0x6b645bcf4c)
    - variable: _ZN4absl12lts_2021032413base_internal8SpinLock20kSpinLockCooperativeE (Address: 0x6b647e0568)
    - function: _ZNKSt6__ndk18time_getIcNS_19istreambuf_iteratorIcNS_11char_traitsIcEEEEE11do_get_yearES4_S4_RNS_8ios_baseERjP2tm (Address: 0x6b6470a934)
    - function: _ZNK3re23RE27DoMatchERKNS_11StringPieceENS0_6AnchorEPmPKPKNS0_3ArgEi (Address: 0x6b64588a08)
    - function: _ZN9grpc_core13ClientChannel22CheckConnectivityStateEb (Address: 0x6b643efab8)
    - function: _ZNSt6__ndk16vectorIhNS_9allocatorIhEEE6insertENS_11__wrap_iterIPKhEEmRS5_ (Address: 0x6b645a3b9c)
    - variable: _ZTVNSt6__ndk115time_get_bynameIwNS_19istreambuf_iteratorIwNS_11char_traitsIwEEEEEE (Address: 0x6b64913178)
    - function: _ZNSt6__ndk117__assoc_sub_state13set_exceptionESt13exception_ptr (Address: 0x6b64740188)
    - function: _ZNSt6__ndk115basic_streambufIcNS_11char_traitsIcEEE8overflowEi (Address: 0x6b6458c698)
    - function: _ZN4absl12lts_2021032416strings_internal14CordTestAccess22SizeofCordRepSubstringEv (Address: 0x6b645c9b74)
    - function: _ZN9grpc_core29AwsExternalAccountCredentials16OnRetrieveRegionEPvP10grpc_error (Address: 0x6b645717b8)
    - function: grpc_slice_from_static_string (Address: 0x6b6443baf8)
    - function: _Z38tsi_handshaker_result_get_unused_bytesPK21tsi_handshaker_resultPPKhPm (Address: 0x6b64465578)
    - function: _ZN4absl12lts_2021032411UnparseFlagENS0_4TimeE (Address: 0x6b645e484c)
    - variable: _ZTINSt6__ndk19__num_putIwEE (Address: 0x6b64914c00)
    - function: _ZNKSt6__ndk117moneypunct_bynameIcLb0EE14do_frac_digitsEv (Address: 0x6b64711808)
    - variable: envoy_type_matcher_v3_ValueMatcher_msginit (Address: 0x6b648fd4c8)
    - function: _ZNKSt6__ndk18ios_base6getlocEv (Address: 0x6b646f1644)
    - function: _Z16gpr_string_splitPKcS0_PPPcPm (Address: 0x6b645b2ff8)
    - function: grpcsharp_shutdown (Address: 0x6b643e7310)
    - function: _ZN9grpc_core23XdsClientGlobalShutdownEv (Address: 0x6b645183e4)
    - function: _ZN4absl12lts_2021032413base_internal23ThrowStdInvalidArgumentEPKc (Address: 0x6b645f06fc)
    - function: grpcsharp_override_default_ssl_roots (Address: 0x6b643e82cc)
    - variable: _ZN3re216unicode_casefoldE (Address: 0x6b647cda88)
    - variable: envoy_config_endpoint_v3_load_report_proto_upbdefinit (Address: 0x6b64921ce8)
    - variable: _ZNSt6__ndk114numeric_limitsIN4absl12lts_202103247uint128EE8is_exactE (Address: 0x6b647e0683)
    - function: _ZN9grpc_core6XdsApi9LdsUpdateC2EOS1_ (Address: 0x6b644b2a30)
    - function: _ZN9grpc_core8Resolver6ResultaSEOS1_ (Address: 0x6b643fe5a4)
    - variable: udpa_annotations_VersioningAnnotation_msginit (Address: 0x6b648fe5e8)
    - function: adler32_z (Address: 0x6b645866dc)
    - function: _Z23grpc_call_stack_destroyP15grpc_call_stackPK20grpc_call_final_infoP12grpc_closure (Address: 0x6b64419828)
    - variable: _ZTSN3re26Regexp6WalkerIPS0_EE (Address: 0x6b647cd8d0)
    - variable: _ZTINSt6__ndk18time_putIwNS_19ostreambuf_iteratorIwNS_11char_traitsIwEEEEEE (Address: 0x6b64914e60)
    - function: _Z30grpc_slice_maybe_static_intern10grpc_slicePb (Address: 0x6b6443ec6c)
    - function: _ZN9grpc_core20GlobalSubchannelPool8ShutdownEv (Address: 0x6b643fa010)
    - function: _ZN4absl12lts_2021032416strings_internal11BigUnsignedILi4EEC1ENS0_11string_viewE (Address: 0x6b645ed4fc)
    - function: grpcsharp_test_callback (Address: 0x6b643e8890)
    - function: grpcsharp_metadata_array_destroy_metadata_including_entries (Address: 0x6b643e6970)
    - function: _ZN9grpc_core21TcpZerocopySendRecord24UpdateOffsetForBytesSentEmm (Address: 0x6b645309f0)
    - function: _ZN4absl12lts_2021032419str_format_internal14FormatSinkImpl15PutPaddedStringENS0_11string_viewEiib (Address: 0x6b645d44f0)
    - variable: _ZTSNSt6__ndk118__time_get_storageIcEE (Address: 0x6b64805e50)
    - function: _ZNSt6__ndk111timed_mutex6unlockEv (Address: 0x6b64731500)
    - function: _ZNSt6__ndk16vectorIPN3re26RegexpENS_9allocatorIS3_EEE8__appendEm (Address: 0x6b645929f0)
    - function: _ZNKSt6__ndk120__codecvt_utf8_utf16IDiE11do_encodingEv (Address: 0x6b6472a9ac)
    - function: _ZN9grpc_core13ClientChannel20CreateResolverLockedEv (Address: 0x6b643ee870)
    - function: _ZNKSt6__ndk18time_getIcNS_19istreambuf_iteratorIcNS_11char_traitsIcEEEEE6do_getES4_S4_RNS_8ios_baseERjP2tmcc (Address: 0x6b6470aabc)
    - function: _ZN9grpc_core19LoadBalancingPolicy22TransientFailurePicker4PickENS0_8PickArgsE (Address: 0x6b643fad50)
    - function: _ZNKSt6__ndk18time_getIwNS_19istreambuf_iteratorIwNS_11char_traitsIwEEEEE13__get_12_hourERiRS4_S4_RjRKNS_5ctypeIwEE (Address: 0x6b6470ce44)
    - function: _ZN9grpc_core6chttp220TransportFlowControl12DeltaUrgencyEl22grpc_chttp2_setting_id (Address: 0x6b644d19f4)
    - variable: _ZTVNSt6__ndk117bad_function_callE (Address: 0x6b648f2888)
    - function: _Z40grpc_chttp2_initiate_write_reason_string33grpc_chttp2_initiate_write_reason (Address: 0x6b644c9fac)
    - function: _ZN9grpc_core20DelegatingSubchannel22WatchConnectivityStateE23grpc_connectivity_stateNSt6__ndk110unique_ptrINS_19SubchannelInterface33ConnectivityStateWatcherInterfaceENS2_14default_deleteIS5_EEEE (Address: 0x6b6446fe5c)
    - function: grpc_call_credentials_release (Address: 0x6b64434070)
    - variable: grpc_server_deadline_filter (Address: 0x6b648f3388)
    - variable: _ZTVNSt6__ndk117__widen_from_utf8ILm32EEE (Address: 0x6b64914208)
    - function: _ZNSt6__ndk113basic_istreamIcNS_11char_traitsIcEEErsEPFRNS_9basic_iosIcS2_EES6_E (Address: 0x6b646f33a4)
    - function: _ZdlPvSt11align_val_t (Address: 0x6b64744758)
    - function: _ZN3re217NumCapturesWalker10ShortVisitEPNS_6RegexpEi (Address: 0x6b64591d9c)
    - function: _ZN4absl12lts_2021032413base_internal19ThrowStdDomainErrorERKNSt6__ndk112basic_stringIcNS2_11char_traitsIcEENS2_9allocatorIcEEEE (Address: 0x6b645f0748)
    - function: _ZN9grpc_core15GlobalConfigEnv7GetNameEv (Address: 0x6b645b4d8c)
    - function: _ZNK9grpc_core37FileWatcherCertificateProviderFactory4nameEv (Address: 0x6b644e27d0)
    - variable: grpc_posix_resolver_vtable (Address: 0x6b6491fd80)
    - function: _ZN9grpc_core9XdsClient12ChannelState6OrphanEv (Address: 0x6b645092d4)
    - function: _ZN3re29CharClass3NewEi (Address: 0x6b64591a94)
    - function: log2ceil (Address: 0x6b645bca58)
    - function: _ZNSt6__ndk19__num_getIwE19__stage2_float_loopEwRbRcPcRS4_wwRKNS_12basic_stringIcNS_11char_traitsIcEENS_9allocatorIcEEEEPjRSE_RjPw (Address: 0x6b647052f4)
    - function: _ZNSt6__ndk112basic_stringIcNS_11char_traitsIcEENS_9allocatorIcEEE6insertEmmc (Address: 0x6b645f2640)
    - function: zlibCompileFlags (Address: 0x6b645866ac)
    - function: _ZNSt6__ndk16__treeINS_12__value_typeINS_4pairINS_12basic_stringIcNS_11char_traitsIcEENS_9allocatorIcEEEES8_EEN9grpc_core14RegisteredCallEEENS_19__map_value_compareIS9_SC_NS_4lessIS9_EELb1EEENS6_ISC_EEE25__emplace_unique_key_argsIS9_JNS2_IKS9_SB_EEEEENS2_INS_15__tree_iteratorISC_PNS_11__tree_nodeISC_PvEElEEbEERKT_DpOT0_ (Address: 0x6b64448790)
    - function: gpr_set_log_function (Address: 0x6b645b23a4)
    - function: _ZN3re222MaybeParsePerlCCEscapeEPNS_11StringPieceENS_6Regexp10ParseFlagsE (Address: 0x6b645a6744)
    - function: _ZNSt6__ndk114basic_iostreamIcNS_11char_traitsIcEEE4swapERS3_ (Address: 0x6b646fcccc)
    - function: _Z46gpr_global_config_get_grpc_enable_fork_supportv (Address: 0x6b645b484c)
    - function: _Z41grpc_ssl_server_security_connector_createN9grpc_core13RefCountedPtrI23grpc_server_credentialsEE (Address: 0x6b64436fb8)
    - function: _ZNK4absl12lts_2021032411string_view4findES1_m (Address: 0x6b645ebd1c)
    - variable: envoy_config_core_v3_RuntimeFractionalPercent_msginit (Address: 0x6b648fb7e8)
    - variable: _ZTSN9grpc_core8internal32ClientChannelServiceConfigParserE (Address: 0x6b64775400)
    - variable: _ZNSt6__ndk16chrono12system_clock9is_steadyE (Address: 0x6b6480389e)
    - function: _ZN9grpc_core10Subchannel30GetUriFromSubchannelAddressArgEPK17grpc_channel_args (Address: 0x6b6440ff54)
    - function: _ZNSt6__ndk17__sort4IRPFbRKN3re211SparseArrayIiE10IndexValueES6_EPS4_EEjT0_SB_SB_SB_T_ (Address: 0x6b645ad11c)
    - function: _ZNKSt6__ndk15ctypeIwE11do_scan_notEmPKwS3_ (Address: 0x6b647254ac)
    - function: _ZN9grpc_core17WeakRefCountedPtrINS_9XdsClientEED2Ev (Address: 0x6b64509128)
    - function: _ZN3re23DFA10ResetCacheEPNS0_8RWLockerE (Address: 0x6b6459bea8)
    - function: grpcsharp_server_destroy (Address: 0x6b643e8264)
    - function: AbslInternalSleepFor_lts_20210324 (Address: 0x6b645e1870)
    - function: _ZNKSt6__ndk17num_getIcNS_19istreambuf_iteratorIcNS_11char_traitsIcEEEEE6do_getES4_S4_RNS_8ios_baseERjRb (Address: 0x6b646fd5c4)
    - function: grpc_compression_bitset_to_message_bitset (Address: 0x6b64525a5c)
    - function: _ZN4absl12lts_2021032419str_format_internal17FormatConvertImplEdNS1_24FormatConversionSpecImplEPNS1_14FormatSinkImplE (Address: 0x6b645d1fc4)
    - function: _ZNKSt6__ndk112basic_stringIwNS_11char_traitsIwEENS_9allocatorIwEEE5rfindEPKwmm (Address: 0x6b64738da4)
    - function: upb_symtab_addfile (Address: 0x6b645b8358)
    - variable: _ZTSNSt6__ndk110__function6__funcIPFP17grpc_channel_argsS3_PP10grpc_errorENS_9allocatorIS8_EES7_EE (Address: 0x6b64778020)
    - function: _ZNSt6__ndk112ctype_bynameIcED1Ev (Address: 0x6b6472e9f8)
    - function: _Z32grpc_resolve_unix_domain_addressPKcPP23grpc_resolved_addresses (Address: 0x6b6442d680)
    - variable: _ZTIN9grpc_core9XdsClient12ChannelState13RetryableCallINS1_12AdsCallStateEEE (Address: 0x6b648f97d0)
    - variable: _ZN4absl12lts_2021032414ascii_internal8kToUpperE (Address: 0x6b647dc6f0)
    - function: crc32 (Address: 0x6b64586ea8)
    - function: _ZNSt6__ndk15stoulERKNS_12basic_stringIcNS_11char_traitsIcEENS_9allocatorIcEEEEPmi (Address: 0x6b6473ab04)
    - function: _ZNSt6__ndk113basic_istreamIwNS_11char_traitsIwEEErsERt (Address: 0x6b646f6820)
    - function: _ZN3re28Compiler8PreVisitEPNS_6RegexpENS_4FragEPb (Address: 0x6b64597504)
    - variable: _ZTIN9grpc_core6XdsApi9EdsUpdate10DropConfigE (Address: 0x6b648f69e0)
    - function: upb_status_clear (Address: 0x6b645bfe8c)
    - function: _Z37grpc_call_test_only_get_message_flagsP9grpc_call (Address: 0x6b6444208c)
    - function: grpc_slice_buffer_destroy (Address: 0x6b6443d15c)
    - function: grpc_completion_queue_create_for_callback (Address: 0x6b6444c47c)
    - variable: envoy_config_core_v3_HttpUri_msginit (Address: 0x6b648fbc58)
    - variable: _ZTVNSt6__ndk115basic_streambufIwNS_11char_traitsIwEEEE (Address: 0x6b649127c0)
    - function: _ZNSt6__ndk16localeC2ERKS0_ (Address: 0x6b64723b04)
    - function: _ZN9grpc_core16HandshakeManager11DoHandshakeEP13grpc_endpointPK17grpc_channel_argslP24grpc_tcp_server_acceptorPFvPvP10grpc_errorES8_ (Address: 0x6b64524660)
    - function: _ZNKSt6__ndk17codecvtIwc9mbstate_tE6do_outERS1_PKwS5_RS5_PcS7_RS7_ (Address: 0x6b64726ddc)
    - variable: _ZTS27grpc_ssl_server_credentials (Address: 0x6b6477ae40)
    - function: _ZN9grpc_core30FileWatcherCertificateProviderC1ENSt6__ndk112basic_stringIcNS1_11char_traitsIcEENS1_9allocatorIcEEEES7_S7_j (Address: 0x6b6454647c)
    - function: _ZNKSt6__ndk17num_getIwNS_19istreambuf_iteratorIwNS_11char_traitsIwEEEEE6do_getES4_S4_RNS_8ios_baseERjS8_ (Address: 0x6b647026a0)
    - variable: _ZN4absl12lts_2021032419str_format_internal31FormatConversionCharSetInternal1gE (Address: 0x6b647dae70)
    - function: _ZNSt6__ndk115basic_streambufIwNS_11char_traitsIwEEEC1ERKS3_ (Address: 0x6b646f29b4)
    - function: _ZN4absl12lts_2021032412ToUnixMicrosENS0_4TimeE (Address: 0x6b645e4d38)
    - function: _ZN3re28Compiler18AddSuffixRecursiveEii (Address: 0x6b6459671c)
    - function: _ZN37grpc_oauth2_token_fetcher_credentials27cancel_get_request_metadataEP29grpc_credentials_mdelem_arrayP10grpc_error (Address: 0x6b6453f9e0)
    - variable: _ZNSt6__ndk114numeric_limitsIN4absl12lts_202103246int128EE9is_iec559E (Address: 0x6b647e06d0)
    - variable: _ZTVN9grpc_core18ChildPolicyHandlerE (Address: 0x6b648f2b90)
    - function: _ZN9grpc_core6Server8CallData15InitCallElementEP17grpc_call_elementPK22grpc_call_element_args (Address: 0x6b6444dc08)
    - variable: _ZN4absl12lts_2021032419str_format_internal28FormatConversionCharInternal1cE (Address: 0x6b647dadf8)
    - variable: envoy_config_metrics_v3_DogStatsdSink_msginit (Address: 0x6b648fc2d0)
    - function: _ZN4absl12lts_202103246Status15PrepareToModifyEv (Address: 0x6b645c2200)
    - function: _ZNK9grpc_core11FilterChain16FilterChainMatch8ToStringEv (Address: 0x6b644e73c4)
    - function: _Z23grpc_resource_user_freeP18grpc_resource_userm (Address: 0x6b6452eff0)
    - function: grpcsharp_native_callback_dispatcher_init (Address: 0x6b643e828c)
    - function: _ZN3re23RE2D1Ev (Address: 0x6b64588448)
    - function: _ZN9grpc_core8channelz10SocketNode10RenderJsonEv (Address: 0x6b64421610)
    - function: _ZN4absl12lts_2021032416numbers_internal15FastIntToBufferEjPc (Address: 0x6b645e8810)
    - function: _ZNSt6__ndk16__treeINS_12__value_typeINS_12basic_stringIcNS_11char_traitsIcEENS_9allocatorIcEEEEN9grpc_core4JsonEEENS_19__map_value_compareIS7_SA_NS_4lessIS7_EELb1EEENS5_ISA_EEE12__find_equalIS7_EERPNS_16__tree_node_baseIPvEENS_21__tree_const_iteratorISA_PNS_11__tree_nodeISA_SJ_EElEERPNS_15__tree_end_nodeISL_EESM_RKT_ (Address: 0x6b643f2da4)
    - function: _ZN9grpc_core6XdsApi9LdsUpdate14FilterChainMap8SourceIpC2ERKS3_ (Address: 0x6b6451a6fc)
    - function: _ZN9grpc_core13RefCountedPtrIN26grpc_server_config_fetcher17ConnectionManagerEED2Ev (Address: 0x6b644c57ec)
    - function: _ZN9grpc_core28GoogleCloud2ProdResolverInitEv (Address: 0x6b644abc08)
    - function: _ZN9grpc_core29UrlExternalAccountCredentialsD2Ev (Address: 0x6b64561cdc)
    - function: _ZN9grpc_core19LoadBalancingPolicy10UpdateArgsaSERKS1_ (Address: 0x6b643fab2c)
    - function: _ZN9grpc_core13ServiceConfigC1EPK17grpc_channel_argsNSt6__ndk112basic_stringIcNS4_11char_traitsIcEENS4_9allocatorIcEEEENS_4JsonEPP10grpc_error (Address: 0x6b64409c10)
    - function: upb_fielddef_number (Address: 0x6b645b7374)
    - function: _ZN4absl12lts_2021032419ToChronoNanosecondsENS0_8DurationE (Address: 0x6b645e3134)
    - function: grpc_server_credentials_set_auth_metadata_processor (Address: 0x6b64434574)
    - function: _Z29grpc_chttp2_ping_parser_parsePvP21grpc_chttp2_transportP18grpc_chttp2_streamRK10grpc_slicei (Address: 0x6b64556630)
    - function: _Z32grpc_channel_init_register_stage23grpc_channel_stack_typeiPFbP26grpc_channel_stack_builderPvES2_ (Address: 0x6b64448c78)
    - function: _ZNSt6__ndk16vectorIP12grpc_channelNS_9allocatorIS2_EEE7reserveEm (Address: 0x6b6444fb70)
    - function: _ZN9grpc_core19ProxyMapperRegistry7MapNameEPKcPK17grpc_channel_argsPPcPPS3_ (Address: 0x6b643fdd3c)
    - function: _ZNKSt6__ndk17num_getIwNS_19istreambuf_iteratorIwNS_11char_traitsIwEEEEE23__do_get_floating_pointIeEES4_S4_S4_RNS_8ios_baseERjRT_ (Address: 0x6b64703eb8)
    - function: _Z22alts_counter_incrementP12alts_counterPbPPc (Address: 0x6b6457c904)
    - function: _Z39grpc_stream_compression_context_destroyP31grpc_stream_compression_context (Address: 0x6b64526720)
    - function: _ZN4absl12lts_202103249StrAppendEPNSt6__ndk112basic_stringIcNS1_11char_traitsIcEENS1_9allocatorIcEEEERKNS0_8AlphaNumESB_ (Address: 0x6b645eaa80)
    - function: _Z21grpc_parse_user_agent11grpc_mdelem (Address: 0x6b644c3a60)
    - function: _Z32grpc_chttp2_mark_stream_writableP21grpc_chttp2_transportP18grpc_chttp2_stream (Address: 0x6b644ca1d4)
    - variable: _ZTV29grpc_access_token_credentials (Address: 0x6b648fa030)
    - variable: _ZN4absl12lts_2021032412RFC1123_fullE (Address: 0x6b647dc328)
    - function: _Z32grpc_httpcli_format_post_requestPK20grpc_httpcli_requestPKcm (Address: 0x6b64528690)
    - function: _ZNKSt6__ndk17num_getIcNS_19istreambuf_iteratorIcNS_11char_traitsIcEEEEE17__do_get_unsignedImEES4_S4_S4_RNS_8ios_baseERjRT_ (Address: 0x6b646fefd8)
    - function: _Z38tsi_handshaker_process_bytes_from_peerP14tsi_handshakerPKhPm (Address: 0x6b64465264)
    - function: _ZNSt6__ndk112ctype_bynameIcEC2ERKNS_12basic_stringIcNS_11char_traitsIcEENS_9allocatorIcEEEEm (Address: 0x6b64725f48)
    - function: _ZN3re23DFA10StateSaverC1EPS0_PNS0_5StateE (Address: 0x6b6459bfd0)
    - function: _ZNSt11range_errorD0Ev (Address: 0x6b64744a60)
    - function: _ZNSt6__ndk16vectorIPN4absl12lts_2021032413cord_internal7CordRepENS_9allocatorIS5_EEE21__push_back_slow_pathIRKS5_EEvOT_ (Address: 0x6b645ca49c)
    - function: _ZNSt6__ndk17codecvtIwc9mbstate_tEC1Em (Address: 0x6b64726d00)
    - function: _ZN3re23RE23Arg10parse_uintEPKcmPv (Address: 0x6b6458b964)
    - function: _Z18grpc_avl_maybe_get8grpc_avlPvPS0_S0_ (Address: 0x6b644170b8)
    - variable: _ZTVN9grpc_core29UrlExternalAccountCredentialsE (Address: 0x6b648fdb00)
    - function: _ZN9grpc_core29AwsExternalAccountCredentials21OnRetrieveSigningKeysEPvP10grpc_error (Address: 0x6b64571ab8)
    - function: _ZN4absl12lts_2021032413time_internal4cctz17FixedOffsetToAbbrERKNSt6__ndk16chrono8durationIlNS3_5ratioILl1ELl1EEEEE (Address: 0x6b645f7870)
    - function: _ZNSt6__ndk113basic_istreamIcNS_11char_traitsIcEEErsERb (Address: 0x6b646f363c)
    - function: _ZN4absl12lts_20210324lsERNSt6__ndk113basic_ostreamIcNS1_11char_traitsIcEEEENS0_6int128E (Address: 0x6b645f2800)
    - function: _Z26alts_get_output_bytes_readP17alts_frame_reader (Address: 0x6b64578370)
    - function: _Z24grpc_call_internal_unrefP9grpc_call (Address: 0x6b644414a0)
    - function: deflateEnd (Address: 0x6b6457d100)
    - variable: envoy_type_matcher_v3_RegexMatchAndSubstitute_msginit (Address: 0x6b648fd410)
    - variable: _ZN9grpc_core17grpc_lb_glb_traceE (Address: 0x6b64924900)
    - function: _ZN4absl12lts_2021032419str_format_internal13FormatArgImpl8DispatchIdEEbNS2_4DataENS1_24FormatConversionSpecImplEPv (Address: 0x6b645d1f34)
    - function: _ZN9grpc_core15Chttp2ConnectorD1Ev (Address: 0x6b644c3fa4)
    - function: _ZNSt6__ndk110__function6__funcIZN9grpc_core38AsyncConnectivityStateWatcherInterface8NotifierC1ENS2_13RefCountedPtrIS3_EE23grpc_connectivity_stateRKN4absl12lts_202103246StatusERKNS_10shared_ptrINS2_14WorkSerializerEEEEUlvE_NS_9allocatorISI_EEFvvEE18destroy_deallocateEv (Address: 0x6b64457494)
    - variable: _ZTIN9grpc_core21DefaultConfigSelectorE (Address: 0x6b648f27f0)
    - function: _ZN9grpc_core15XdsLocalityName21AsHumanReadableStringEv (Address: 0x6b644a2764)
    - function: _ZN3re28fullruneEPKci (Address: 0x6b64594440)
    - function: _ZN43grpc_httpcli_ssl_channel_security_connector15add_handshakersEPK17grpc_channel_argsP16grpc_pollset_setPN9grpc_core16HandshakeManagerE (Address: 0x6b64559654)
    - function: __cxa_increment_exception_refcount (Address: 0x6b647416b8)
    - function: _ZN9grpc_core21SliceBufferByteStream4PullEP10grpc_slice (Address: 0x6b644562ac)
    - function: upb_fielddef_defaultuint32 (Address: 0x6b645b7624)
    - function: _ZNSt6__ndk15dequeIN3re29WalkStateIiEENS_9allocatorIS3_EEE19__add_back_capacityEv (Address: 0x6b64592f78)
    - function: _ZN9grpc_core16AwsRequestSigner23GetSignedRequestHeadersEv (Address: 0x6b64573020)
    - function: _ZNSt6__ndk18ios_base5iwordEi (Address: 0x6b646fcef4)
    - function: _ZN9grpc_core22XdsCertificateProvider32UpdateRootCertNameAndDistributorERKNSt6__ndk112basic_stringIcNS1_11char_traitsIcEENS1_9allocatorIcEEEEN4absl12lts_2021032411string_viewENS_13RefCountedPtrI32grpc_tls_certificate_distributorEE (Address: 0x6b64506b88)
    - variable: _ZTIN9grpc_core19ServiceConfigParser12ParsedConfigE (Address: 0x6b648f2dc8)
    - function: _ZNK9grpc_core37FileWatcherCertificateProviderFactory6Config4nameEv (Address: 0x6b644e1eb8)
    - variable: _ZTVNSt6__ndk110moneypunctIwLb1EEE (Address: 0x6b64913468)
    - function: _Z22grpc_set_socket_sndbufii (Address: 0x6b6442c5c8)
    - function: _ZN9grpc_core29FakeResolverResponseGenerator25UnsetReresolutionResponseEv (Address: 0x6b644aab98)
    - function: _ZNSt6__ndk113basic_istreamIcNS_11char_traitsIcEEE6ignoreEli (Address: 0x6b646f5054)
    - function: _ZN9grpc_core14DynamicFilters4Call17IncrementRefCountERKNS_13DebugLocationEPKc (Address: 0x6b643f9a6c)
    - function: _Z37grpc_client_authority_filter_shutdownv (Address: 0x6b644beecc)
    - function: _ZN4absl12lts_2021032411make_uniqueIN9grpc_core6Server34AllocatingRequestMatcherRegisteredEJPS3_RP21grpc_completion_queueRPNS3_16RegisteredMethodENSt6__ndk18functionIFNS3_24RegisteredCallAllocationEvEEEEEENS0_15memory_internal16MakeUniqueResultIT_E6scalarEDpOT0_ (Address: 0x6b6444f0b0)
    - variable: grpc_health_v1_HealthCheckRequest_msginit (Address: 0x6b648f8f50)
    - function: _ZNKSt6__ndk18time_getIcNS_19istreambuf_iteratorIcNS_11char_traitsIcEEEEE11do_get_dateES4_S4_RNS_8ios_baseERjP2tm (Address: 0x6b6470a48c)
    - function: _Z48grpc_get_well_known_google_credentials_file_pathv (Address: 0x6b6453b564)
    - function: _ZNK4absl12lts_2021032416strings_internal11BigUnsignedILi84EE7GetWordEi (Address: 0x6b645ef590)
    - variable: envoy_config_core_v3_BackoffStrategy_msginit (Address: 0x6b648fe298)
    - function: _ZNKSt6__ndk117moneypunct_bynameIwLb1EE16do_negative_signEv (Address: 0x6b64713434)
    - variable: envoy_config_route_v3_RouteAction_HashPolicy_FilterState_msginit (Address: 0x6b648fc848)
    - function: _Z16grpc_kick_pollerv (Address: 0x6b6453763c)
    - function: grpc_slice_str_cmp (Address: 0x6b6443cadc)
    - function: _ZN9grpc_core21SliceBufferByteStreamC1EP17grpc_slice_bufferj (Address: 0x6b644561e4)
    - function: _ZNSt6__ndk115basic_streambufIcNS_11char_traitsIcEEE9pbackfailEi (Address: 0x6b6458c690)
    - function: _ZNSt6__ndk16__treeINS_12__value_typeINS_12basic_stringIcNS_11char_traitsIcEENS_9allocatorIcEEEES7_EENS_19__map_value_compareIS7_S8_NS_4lessIS7_EELb1EEENS5_IS8_EEE12__find_equalIS7_EERPNS_16__tree_node_baseIPvEENS_21__tree_const_iteratorIS8_PNS_11__tree_nodeIS8_SH_EElEERPNS_15__tree_end_nodeISJ_EESK_RKT_ (Address: 0x6b6457534c)
    - function: grpcsharp_request_call_context_reset (Address: 0x6b643e703c)
    - function: _ZNSt6__ndk113basic_istreamIwNS_11char_traitsIwEEErsERx (Address: 0x6b646f6ebc)
    - function: _Z29grpc_blocking_resolve_addressPKcS0_PP23grpc_resolved_addresses (Address: 0x6b6452ce50)
    - function: upb_oneofdef_numfields (Address: 0x6b645b7cb8)
    - function: _ZN4absl12lts_202103248AlphaNumC2ENS0_3HexE (Address: 0x6b645ea2e4)
    - function: _ZN9grpc_core19ConnectivityWatcherD2Ev (Address: 0x6b644c2668)
    - function: _ZNSt6__ndk113basic_istreamIcNS_11char_traitsIcEEE8readsomeEPcl (Address: 0x6b646f5414)
    - function: grpc_slice_rchr (Address: 0x6b6443cc50)
    - function: field_rank (Address: 0x6b645b7358)
    - variable: _ZTIPKs (Address: 0x6b64915b80)
    - function: _ZN3re26Regexp10ParseState9PushCaretEv (Address: 0x6b645a44bc)
    - function: _ZN4absl12lts_2021032416strings_internal11BigUnsignedILi84EEC1Em (Address: 0x6b645ee6f8)
    - function: _ZN3re23DFA8RWLockerD2Ev (Address: 0x6b6459be70)
    - function: grpcsharp_init (Address: 0x6b643e730c)
    - function: _Z18grpc_has_wakeup_fdv (Address: 0x6b64538004)
    - variable: _ZTSN9grpc_core8channelz8BaseNodeE (Address: 0x6b64778d50)
    - function: _ZN9grpc_core23SubchannelPoolInterface32GetSubchannelPoolFromChannelArgsEPK17grpc_channel_args (Address: 0x6b644129dc)
    - function: _Z25grpc_check_security_level19grpc_security_levelS_ (Address: 0x6b64437fac)
    - function: _ZN9grpc_core19ServiceConfigParser6Parser17ParseGlobalParamsEPK17grpc_channel_argsRKNS_4JsonEPP10grpc_error (Address: 0x6b644be1ac)
    - function: _Z37grpc_chttp2_is_alpn_version_supportedPKcm (Address: 0x6b644c3b1c)
    - function: _Z28grpc_channel_arg_get_integerPK8grpc_arg20grpc_integer_options (Address: 0x6b64418818)
    - function: _Z25gpr_should_log_stacktrace16gpr_log_severity (Address: 0x6b645b212c)
    - function: _ZNSt6__ndk113basic_istreamIcNS_11char_traitsIcEEED1Ev (Address: 0x6b646f2eac)
    - variable: grpc_gcp_RpcProtocolVersions_Version_msginit (Address: 0x6b648fe558)
    - function: _ZN9grpc_core4Fork14IncThreadCountEv (Address: 0x6b645b4bc8)
    - function: _ZN9grpc_core27TlsChannelSecurityConnector22cancel_check_call_hostEP12grpc_closureP10grpc_error (Address: 0x6b6456650c)
    - function: _Z23grpc_pollset_set_createv (Address: 0x6b6442c2e4)
    - function: _ZNK4absl12lts_202103244Time2InENS0_8TimeZoneE (Address: 0x6b645e489c)
    - function: _ZNSt6__ndk115basic_streambufIwNS_11char_traitsIwEEE9pbackfailEj (Address: 0x6b646f2cd8)
    - function: _ZN9grpc_core38AsyncConnectivityStateWatcherInterface6NotifyE23grpc_connectivity_stateRKN4absl12lts_202103246StatusE (Address: 0x6b644567b4)
    - function: _ZNSt6__ndk16vectorINS_12basic_stringIcNS_11char_traitsIcEENS_9allocatorIcEEEENS4_IS6_EEE21__push_back_slow_pathIRKS6_EEvOT_ (Address: 0x6b64419140)
    - function: upb_msg_get (Address: 0x6b645c0940)
    - function: _Z27grpc_socket_factory_compareP19grpc_socket_factoryS0_ (Address: 0x6b6452f7e0)
    - function: _Z33grpc_call_start_batch_and_executeP9grpc_callPK7grpc_opmP12grpc_closure (Address: 0x6b64442e6c)
    - function: _ZNK9grpc_core6XdsApi9LdsUpdateeqERKS1_ (Address: 0x6b6450c508)
    - variable: _ZTIPKo (Address: 0x6b64915e50)
    - function: _ZN4absl12lts_2021032418debugging_internal22StackTraceWorksForTestEv (Address: 0x6b645e000c)
    - function: _ZN3re26Regexp7DestroyEv (Address: 0x6b6458ed90)
    - variable: _ZTIN9grpc_core6Server17ListenerInterfaceE (Address: 0x6b648f87e0)
    - function: _ZN9grpc_core7ExecCtx18CheckReadyToFinishEv (Address: 0x6b643e9248)
    - function: _ZNK9grpc_core15XdsLocalityNameeqERKS0_ (Address: 0x6b644f543c)
    - function: __gxx_personality_v0 (Address: 0x6b64741d40)
    - variable: envoy_config_route_v3_VirtualCluster_msginit (Address: 0x6b648fca70)
    - function: _ZNSt6__ndk112system_errorC2ENS_10error_codeERKNS_12basic_stringIcNS_11char_traitsIcEENS_9allocatorIcEEEE (Address: 0x6b6473e93c)
    - function: _ZNK4absl12lts_2021032413time_internal4cctz12TimeZoneInfo14NextTransitionERKNSt6__ndk16chrono10time_pointINS5_12system_clockENS5_8durationIlNS4_5ratioILl1ELl1EEEEEEEPNS2_9time_zone16civil_transitionE (Address: 0x6b645fe494)
    - function: _ZN9grpc_core9XdsClient12ChannelState12LrsCallStateD0Ev (Address: 0x6b64512544)
    - function: _ZN31grpc_channel_security_connectorD2Ev (Address: 0x6b644366fc)
    - function: _ZNKSt6__ndk114__codecvt_utf8IDsE6do_outER9mbstate_tPKDsS5_RS5_PcS7_RS7_ (Address: 0x6b64728a94)
    - function: _ZN9grpc_core8internal53alts_handshaker_client_on_status_received_for_testingEP22alts_handshaker_client16grpc_status_codeP10grpc_error (Address: 0x6b64578fb8)
    - function: _ZN3re23NFAD2Ev (Address: 0x6b645a08e4)
    - variable: _ZTSN9grpc_core10OrphanableE (Address: 0x6b64773b00)
    - function: _ZNSt6__ndk16__treeINS_12__value_typeINS_12basic_stringIcNS_11char_traitsIcEENS_9allocatorIcEEEEN4absl12lts_2021032413InlinedVectorIN9grpc_core13ServerAddressELm1ENS5_ISC_EEEEEENS_19__map_value_compareIS7_SF_NS_4lessIS7_EELb1EEENS5_ISF_EEE7destroyEPNS_11__tree_nodeISF_PvEE (Address: 0x6b64479428)
    - function: _ZN9grpc_core13ClientChannelC1EP25grpc_channel_element_argsPP10grpc_error (Address: 0x6b643ea728)
    - function: _ZNKSt6__ndk18time_getIcNS_19istreambuf_iteratorIcNS_11char_traitsIcEEEEE10__get_hourERiRS4_S4_RjRKNS_5ctypeIcEE (Address: 0x6b6470b0f8)
    - function: _Z12grpc_avl_ref8grpc_avlPv (Address: 0x6b64417694)
    - function: _ZNSt6__ndk15stackIN3re29WalkStateIPNS1_6RegexpEEENS_5dequeIS5_NS_9allocatorIS5_EEEEED2Ev (Address: 0x6b645af8c8)
    - function: _ZN9grpc_core16AwsRequestSignerC1ENSt6__ndk112basic_stringIcNS1_11char_traitsIcEENS1_9allocatorIcEEEES7_S7_S7_S7_S7_S7_NS1_3mapIS7_S7_NS1_4lessIS7_EENS5_INS1_4pairIKS7_S7_EEEEEEPP10grpc_error (Address: 0x6b64572a8c)
    - function: _ZN4absl12lts_2021032413StrReplaceAllISt16initializer_listINSt6__ndk14pairINS0_11string_viewES5_EEEEEiRKT_PNS3_12basic_stringIcNS3_11char_traitsIcEENS3_9allocatorIcEEEE (Address: 0x6b645eb14c)
    - function: _ZNSt6__ndk16__treeINS_12__value_typeINS_12basic_stringIcNS_11char_traitsIcEENS_9allocatorIcEEEEN9grpc_core6XdsApi9LdsUpdate14FilterChainMap8SourceIpEEENS_19__map_value_compareIS7_SD_NS_4lessIS7_EELb1EEENS5_ISD_EEE7destroyEPNS_11__tree_nodeISD_PvEE (Address: 0x6b644fe6b4)
    - function: _ZNSt6__ndk112__hash_tableINS_17__hash_value_typeI10grpc_slicePKN4absl12lts_2021032413InlinedVectorINS_10unique_ptrIN9grpc_core19ServiceConfigParser12ParsedConfigENS_14default_deleteIS9_EEEELm4ENS_9allocatorISC_EEEEEENS_22__unordered_map_hasherIS2_SI_NS7_9SliceHashELb1EEENS_21__unordered_map_equalIS2_SI_NS_8equal_toIS2_EELb1EEENSD_ISI_EEE6rehashEm (Address: 0x6b6440b920)
    - function: _ZN3re26Regexp6WalkerIiED2Ev (Address: 0x6b645903ac)
    - function: _ZNKSt6__ndk15ctypeIwE10do_tolowerEPwPKw (Address: 0x6b64725728)
    - function: _ZN9grpc_core13RefCountedPtrINS_13ServiceConfigEED2Ev (Address: 0x6b643eb104)
    - function: _Z32grpc_lb_policy_priority_shutdownv (Address: 0x6b644778fc)
    - function: zlibVersion (Address: 0x6b645866a0)
    - function: _ZNSt6__ndk115basic_streambufIwNS_11char_traitsIwEEE7sungetcEv (Address: 0x6b646f2910)
    - function: _ZNKSt6__ndk15ctypeIcE10do_toupperEPcPKc (Address: 0x6b647259f4)
    - function: _Z22grpc_shutdown_internalPv (Address: 0x6b6444cdc0)
    - variable: envoy_config_core_v3_Node_msginit (Address: 0x6b648fb5f0)
    - function: _Z16grpc_call_log_opPKci16gpr_log_severityP17grpc_call_elementP30grpc_transport_stream_op_batch (Address: 0x6b6445ee30)
    - function: _ZN9grpc_core29FakeResolverResponseGenerator11SetResponseENS_8Resolver6ResultE (Address: 0x6b644aa7cc)
    - function: _Z40gpr_global_config_set_grpc_poll_strategyPKc (Address: 0x6b64559780)
    - variable: grpc_allow_pipe_wakeup_fd (Address: 0x6b6491fe3c)
    - variable: _ZTSNSt6__ndk19__num_getIwEE (Address: 0x6b64805bc0)
    - function: _ZN3re214ToStringWalker10ShortVisitEPNS_6RegexpEi (Address: 0x6b645b1770)
    - variable: _ZTIN9grpc_core20InternallyRefCountedINS_17HealthCheckClientEEE (Address: 0x6b648f4ae0)
    - function: _ZN9grpc_core28GrpcLbPolicyRingHashShutdownEv (Address: 0x6b6447c944)
    - function: _ZN4absl12lts_202103244CordC1INSt6__ndk112basic_stringIcNS3_11char_traitsIcEENS3_9allocatorIcEEEELi0EEEOT_ (Address: 0x6b645c40dc)
    - function: _ZN9grpc_core10Subchannel26CreateSubchannelAddressArgEPK21grpc_resolved_address (Address: 0x6b6440e95c)
    - function: _ZNSt6__ndk16__treeINS_12__value_typeINS_12basic_stringIcNS_11char_traitsIcEENS_9allocatorIcEEEEN9grpc_core6XdsApi15LdsResourceDataEEENS_19__map_value_compareIS7_SB_NS_4lessIS7_EELb1EEENS5_ISB_EEE12__find_equalIS7_EERPNS_16__tree_node_baseIPvEERPNS_15__tree_end_nodeISM_EERKT_ (Address: 0x6b644f5cf4)
    - function: _ZN4absl12lts_2021032419str_format_internal17ParseFormatStringINS1_16ParsedFormatBase20ParsedFormatConsumerEEEbNS0_11string_viewET_ (Address: 0x6b645daba0)
    - function: _ZN9grpc_core14SubchannelCall17IncrementRefCountERKNS_13DebugLocationEPKc (Address: 0x6b6440cf9c)
    - function: _Z24grpc_tcp_server_add_portP15grpc_tcp_serverPK21grpc_resolved_addressPi (Address: 0x6b64533b30)
    - function: _ZN9grpc_core19XdsClusterDropStats19GetSnapshotAndResetEv (Address: 0x6b64521b1c)
    - function: _ZN9grpc_core23MessageSizeParsedConfigD0Ev (Address: 0x6b644c3728)
    - variable: envoy_config_core_v3_HeaderMap_msginit (Address: 0x6b648fb700)
    - variable: _ZTVN9grpc_core6chttp225StreamFlowControlDisabledE (Address: 0x6b648f8a48)
    - function: _ZN3re24Prog8OptimizeEv (Address: 0x6b645a9b78)
    - function: _ZNSt6__ndk16vectorIN9grpc_core4JsonENS_9allocatorIS2_EEE24__emplace_back_slow_pathIJS2_EEEvDpOT_ (Address: 0x6b6441c074)
    - function: _Z33grpc_stats_inc_tcp_write_iov_sizei (Address: 0x6b64527c94)
    - variable: _ZTVN9grpc_core15XdsLocalityNameE (Address: 0x6b648f71e8)
    - function: _ZN4absl12lts_2021032413cord_internal11CordRepRing15GetAppendBufferEm (Address: 0x6b645cc8fc)
    - function: _ZNKSt6__ndk17num_getIcNS_19istreambuf_iteratorIcNS_11char_traitsIcEEEEE6do_getES4_S4_RNS_8ios_baseERjRf (Address: 0x6b646ff934)
    - function: upb_fielddef_descriptortype (Address: 0x6b645b7550)
    - function: _ZNSt6__ndk16vectorIiNS_9allocatorIiEEE24__emplace_back_slow_pathIJRiEEEvDpOT_ (Address: 0x6b645ada14)
    - function: _ZN9grpc_core14WorkSerializerD1Ev (Address: 0x6b6442dbe8)
    - variable: _ZTS28grpc_tls_credentials_options (Address: 0x6b6479dcd0)
    - function: _ZN27grpc_ssl_server_credentialsD1Ev (Address: 0x6b64435ea0)
    - variable: _ZTVN9grpc_core17GrpcLbClientStatsE (Address: 0x6b648f5388)
    - function: _ZN9grpc_core9XdsClient16WatchClusterDataEN4absl12lts_2021032411string_viewENSt6__ndk110unique_ptrINS0_23ClusterWatcherInterfaceENS4_14default_deleteIS6_EEEE (Address: 0x6b645149b0)
    - function: _ZN9grpc_core13SubchannelKeyaSEOS0_ (Address: 0x6b64412990)
    - function: grpcsharp_slice_buffer_create (Address: 0x6b643e86d0)
    - variable: _ZTSN9grpc_core10ByteStreamE (Address: 0x6b6477e440)
    - function: _ZN9grpc_core21InternedSliceRefcountD1Ev (Address: 0x6b6443eb00)
    - function: _ZNKSt6__ndk110moneypunctIcLb0EE16do_thousands_sepEv (Address: 0x6b64710d9c)
    - function: _ZZN9grpc_core6Server18RealRequestMatcher30RequestCallWithPossiblePublishEmPNS0_13RequestedCallEENKUlvE_clEv (Address: 0x6b64453e78)
    - function: _ZTv0_n24_NSt6__ndk113basic_ostreamIwNS_11char_traitsIwEEED1Ev (Address: 0x6b646fa420)
    - function: _ZN4absl12lts_202103248DurationdVEd (Address: 0x6b645e22e8)
    - function: _ZN4absl12lts_2021032423inlined_vector_internal7StorageI8grpc_argLm3ENSt6__ndk19allocatorIS3_EEE15EmplaceBackSlowIJRS3_EEES9_DpOT_ (Address: 0x6b643f7db0)
    - function: _ZNKSt6__ndk115__codecvt_utf16IwLb0EE13do_max_lengthEv (Address: 0x6b6472930c)
    - variable: _ZTV28grpc_tls_credentials_options (Address: 0x6b648fa3e8)
    - function: _ZNKSt6__ndk120__time_get_c_storageIcE3__xEv (Address: 0x6b6472bf38)
    - variable: _ZTIN9grpc_core6Server29AllocatingRequestMatcherBatchE (Address: 0x6b648f4640)
    - function: _ZNSt6__ndk16vectorIN9grpc_core4JsonENS_9allocatorIS2_EEE21__push_back_slow_pathIS2_EEvOT_ (Address: 0x6b644a2960)
    - function: _ZN9grpc_core13RefCountedPtrINS_10SubchannelEED2Ev (Address: 0x6b643f7c34)
    - variable: _ZTIN9grpc_core26TlsServerSecurityConnector27TlsServerCertificateWatcherE (Address: 0x6b648fde50)
    - function: _ZN9grpc_core29UrlExternalAccountCredentials22OnRetrieveSubjectTokenEPvP10grpc_error (Address: 0x6b6456183c)
    - function: _ZN9grpc_core23XdsChannelCredsRegistry16MakeChannelCredsERKNSt6__ndk112basic_stringIcNS1_11char_traitsIcEENS1_9allocatorIcEEEERKNS_4JsonE (Address: 0x6b64500be4)
    - variable: google_protobuf_DoubleValue_msginit (Address: 0x6b64902188)
    - function: grpc_alts_credentials_client_options_add_target_service_account (Address: 0x6b6455aedc)
    - function: deflateBound (Address: 0x6b6457f7bc)
    - function: _ZN9grpc_core12XdsBootstrap17ParseChannelCredsEPNS_4JsonEmPNS0_9XdsServerE (Address: 0x6b64502dac)
    - function: _ZN9grpc_core12XdsBootstrap14ParseXdsServerEPNS_4JsonEm (Address: 0x6b645022c8)
    - variable: _ZTINSt6__ndk111__money_getIwEE (Address: 0x6b649150b8)
    - variable: _ZTVNSt6__ndk17codecvtIDic9mbstate_tEE (Address: 0x6b64913fe8)
    - function: _Z30grpc_chttp2_stream_map_destroyP22grpc_chttp2_stream_map (Address: 0x6b644dbb60)
    - function: _ZN3tsi18SslSessionLRUCache3GetEPKc (Address: 0x6b645534e4)
    - function: _ZNSt6__ndk16__treeINS_12__value_typeINS_12basic_stringIcNS_11char_traitsIcEENS_9allocatorIcEEEEN9grpc_core13RefCountedPtrINS8_19LoadBalancingPolicy6ConfigEEEEENS_19__map_value_compareIS7_SD_NS_4lessIS7_EELb1EEENS5_ISD_EEE12__find_equalIS7_EERPNS_16__tree_node_baseIPvEERPNS_15__tree_end_nodeISO_EERKT_ (Address: 0x6b644991c4)
    - function: _Z37grpc_add_closure_to_background_pollerP12grpc_closureP10grpc_error (Address: 0x6b6455a080)
    - function: _ZN3re28Compiler7LiteralEib (Address: 0x6b6459751c)
    - function: grpc_slice_buffer_init (Address: 0x6b6443d038)
    - function: _ZNSt6__ndk114__split_bufferIPN3re29WalkStateIiEERNS_9allocatorIS4_EEE9push_backEOS4_ (Address: 0x6b645938c4)
    - function: _ZNSt6__ndk112basic_stringIcNS_11char_traitsIcEENS_9allocatorIcEEED2Ev (Address: 0x6b643eb134)
    - function: _ZN4absl12lts_2021032418debugging_internal22InstallSymbolDecoratorEPFvPKNS1_19SymbolDecoratorArgsEEPv (Address: 0x6b645e01f8)
    - function: _ZNKSt6__ndk120__codecvt_utf8_utf16IDiE10do_unshiftER9mbstate_tPcS4_RS4_ (Address: 0x6b6472a9a0)
    - variable: envoy_extensions_clusters_aggregate_v3_ClusterConfig_msginit (Address: 0x6b648fccc0)
    - function: _ZNSt6__ndk16locale8__globalEv (Address: 0x6b647239c0)
    - function: _ZN3re26Regexp6WalkerINS_4FragEE4CopyES2_ (Address: 0x6b64598a40)
    - function: _ZN9grpc_core8internal32ClientChannelServiceConfigParser20ParsePerMethodParamsEPK17grpc_channel_argsRKNS_4JsonEPP10grpc_error (Address: 0x6b64400794)
    - variable: envoy_config_accesslog_v3_HeaderFilter_msginit (Address: 0x6b648fe190)
    - function: _ZNKSt6__ndk115__codecvt_utf16IDsLb1EE11do_encodingEv (Address: 0x6b64729930)
    - function: _Z53grpc_channel_args_set_client_channel_creation_mutatorPFP17grpc_channel_argsPKcS0_23grpc_channel_stack_typeE (Address: 0x6b64419128)
    - function: _ZN9grpc_core18TcpZerocopySendCtx23ReleaseSendRecordLockedEj (Address: 0x6b64532ff8)
    - function: _Z37grpc_credentials_mdelem_array_destroyP29grpc_credentials_mdelem_array (Address: 0x6b6453a078)
    - function: _ZNSt6__ndk113basic_istreamIwNS_11char_traitsIwEEEC2EPNS_15basic_streambufIwS2_EE (Address: 0x6b646f5bb4)
    - variable: _ZTSNSt6__ndk110__function6__baseIFvNS_12basic_stringIcNS_11char_traitsIcEENS_9allocatorIcEEEEP10grpc_errorEEE (Address: 0x6b647be4a0)
    - function: _ZN9grpc_core10Subchannel21ThrottleKeepaliveTimeEi (Address: 0x6b6440f578)
    - function: _ZNK9grpc_core4Json4DumpEi (Address: 0x6b6442faa4)
    - variable: envoy_admin_v3_UpdateFailureState_msginit (Address: 0x6b648faa18)
    - function: _ZN4absl12lts_2021032424synchronization_internal10MutexDelayEii (Address: 0x6b645db92c)
    - function: upb_arena_init (Address: 0x6b645c0384)
    - function: _Z27grpc_set_socket_low_latencyii (Address: 0x6b6442cb28)
    - function: _ZN4absl12lts_2021032423inlined_vector_internal7StorageINSt6__ndk112basic_stringIcNS3_11char_traitsIcEENS3_9allocatorIcEEEELm2ENS7_IS9_EEE15DestroyContentsEv (Address: 0x6b645001ec)
    - variable: grpc_pollset_set_impl (Address: 0x6b64922c98)
    - function: _ZN9grpc_core19ConnectivityWatcherD0Ev (Address: 0x6b644c271c)
    - function: _Z32grpc_chttp2_window_update_createjjP28grpc_transport_one_way_stats (Address: 0x6b64557118)
    - function: _ZN4absl12lts_2021032416strings_internal14CordTestAccess21SizeofCordRepExternalEv (Address: 0x6b645c9b6c)
    - function: _ZNK9grpc_core6XdsApi9EdsUpdate8Priority8Locality8ToStringEv (Address: 0x6b644e96cc)
    - function: _Z24grpc_auth_property_resetP18grpc_auth_property (Address: 0x6b64432654)
    - function: _ZN4absl12lts_2021032413NotFoundErrorENS0_11string_viewE (Address: 0x6b645c32b0)
    - function: _ZN4absl12lts_202103249ByAnyCharC2ENS0_11string_viewE (Address: 0x6b645eb954)
    - function: _ZNSt6__ndk113basic_ostreamIwNS_11char_traitsIwEEElsEm (Address: 0x6b646fb3a4)
    - function: _ZN4absl12lts_2021032423inlined_vector_internal7StorageINSt6__ndk110unique_ptrIN9grpc_core26CertificateProviderFactoryENS3_14default_deleteIS6_EEEELm3ENS3_9allocatorIS9_EEE15DestroyContentsEv (Address: 0x6b644e12a8)
    - function: _ZNKSt6__ndk112basic_stringIcNS_11char_traitsIcEENS_9allocatorIcEEE7compareEmmPKc (Address: 0x6b64735d20)
    - function: _ZN9grpc_core20XdsServerCredentialsD0Ev (Address: 0x6b6454b4c4)
    - function: _ZNK9grpc_core6XdsApi9LdsUpdate21HttpConnectionManager10HttpFiltereqERKS3_ (Address: 0x6b64519a08)
    - function: grpcsharp_completion_queue_next (Address: 0x6b643e732c)
    - function: _ZN9grpc_core13ClientChannel39UpdateServiceConfigInControlPlaneLockedENS_13RefCountedPtrINS_13ServiceConfigEEENS1_INS_14ConfigSelectorEEEPKNS_8internal31ClientChannelGlobalParsedConfigEPKc (Address: 0x6b643ece10)
    - function: _ZN3re23RE23Arg15parse_int_octalEPKcmPv (Address: 0x6b6458b86c)
    - function: _ZNKSt6__ndk114__codecvt_utf8IDsE13do_max_lengthEv (Address: 0x6b64728e88)
    - function: _ZN37grpc_google_refresh_token_credentials12debug_stringEv (Address: 0x6b645400c4)
    - function: _ZN9grpc_core9XdsClient12ChannelState13RetryableCallINS1_12LrsCallStateEE12OnRetryTimerEPvP10grpc_error (Address: 0x6b6451d3f8)
    - function: _Z24grpc_ssl_check_call_hostN4absl12lts_2021032411string_viewES1_S1_P17grpc_auth_contextPP10grpc_error (Address: 0x6b644382cc)
    - variable: envoy_config_core_v3_GrpcService_GoogleGrpc_CallCredentials_StsService_msginit (Address: 0x6b648fbaa0)
    - function: _ZN4absl12lts_2021032416strings_internal9CatPiecesESt16initializer_listINS0_11string_viewEE (Address: 0x6b645ea7a8)
    - function: grpcsharp_batch_context_create (Address: 0x6b643e6900)
    - function: _ZN9grpc_core10Subchannel16HealthWatcherMap14ShutdownLockedEv (Address: 0x6b6440de24)
    - function: _ZNKSt6__ndk120__time_get_c_storageIwE8__monthsEv (Address: 0x6b6472bafc)
    - function: _Z36grpc_chttp2_list_pop_writable_streamP21grpc_chttp2_transportPP18grpc_chttp2_stream (Address: 0x6b644db1a0)
    - variable: _ZN3re23RE27Options14kDefaultMaxMemE (Address: 0x6b647cc270)
    - function: grpc_auth_context_add_cstring_property (Address: 0x6b6443256c)
    - variable: _ZTI14TlsCredentials (Address: 0x6b648fdc30)
    - variable: _ZTSN9grpc_core12FakeResolverE (Address: 0x6b64788800)
    - variable: _ZTV14TlsCredentials (Address: 0x6b648fdbd0)
    - function: _ZN9grpc_core9XdsClient12ChannelState13RetryableCallINS1_12LrsCallStateEED0Ev (Address: 0x6b6451d7d4)
    - variable: _ZTSN9grpc_core6Server23RequestMatcherInterfaceE (Address: 0x6b6477e0d0)
    - function: _ZN3re23DFA9SearchTTTEPNS0_12SearchParamsE (Address: 0x6b6459ca54)
    - function: _ZNSt6__ndk114__split_bufferIPPN9grpc_core6Server8CallDataENS_9allocatorIS5_EEE9push_backEOS5_ (Address: 0x6b64454488)
    - function: upb_msgdef_mapentry (Address: 0x6b645b776c)
    - function: _ZN3re23RE23Arg16parse_ushort_hexEPKcmPv (Address: 0x6b6458b618)
    - function: _ZN29grpc_md_only_test_credentials27cancel_get_request_metadataEP29grpc_credentials_mdelem_arrayP10grpc_error (Address: 0x6b6453a214)
    - function: _ZN9grpc_core9XdsClient17WatchListenerDataEN4absl12lts_2021032411string_viewENSt6__ndk110unique_ptrINS0_24ListenerWatcherInterfaceENS4_14default_deleteIS6_EEEE (Address: 0x6b645139c4)
    - function: _Z19grpc_combiner_unrefPN9grpc_core8CombinerE (Address: 0x6b6452a590)
    - function: _ZNSt6__ndk113unordered_mapI10grpc_slicePKN4absl12lts_2021032413InlinedVectorINS_10unique_ptrIN9grpc_core19ServiceConfigParser12ParsedConfigENS_14default_deleteIS8_EEEELm4ENS_9allocatorISB_EEEENS6_9SliceHashENS_8equal_toIS1_EENSC_INS_4pairIKS1_SG_EEEEED2Ev (Address: 0x6b6440a3c8)
    - function: _ZNK9grpc_core13SubchannelKeyltERKS0_ (Address: 0x6b644129a0)
    - function: _ZNSt14overflow_errorC2ERKS_ (Address: 0x6b645f0eb4)
    - function: _ZN3re23RE23Arg15parse_short_hexEPKcmPv (Address: 0x6b6458b434)
    - variable: _ZN4absl12lts_2021032419str_format_internal28FormatConversionCharInternal1aE (Address: 0x6b647dae06)
    - function: _ZN4absl12lts_2021032424synchronization_internal6Waiter4PokeEv (Address: 0x6b645dffa8)
    - function: _ZNKSt6__ndk117moneypunct_bynameIwLb1EE16do_positive_signEv (Address: 0x6b64713428)
    - function: _ZN9grpc_core9XdsClient12ChannelState12AdsCallState17ResourceTypeStateD2Ev (Address: 0x6b64519784)
    - variable: _ZTSN10__cxxabiv123__fundamental_type_infoE (Address: 0x6b648070e0)
    - function: _ZN9grpc_core8channelz8BaseNodeC2ENS1_10EntityTypeENSt6__ndk112basic_stringIcNS3_11char_traitsIcEENS3_9allocatorIcEEEE (Address: 0x6b6441c35c)
    - function: _ZNSt6__ndk16__treeINS_12__value_typeINS_4pairINS_12basic_stringIcNS_11char_traitsIcEENS_9allocatorIcEEEES8_EEN9grpc_core6XdsApi17ClusterLoadReportEEENS_19__map_value_compareIS9_SD_NS_4lessIS9_EELb1EEENS6_ISD_EEE12__find_equalIS9_EERPNS_16__tree_node_baseIPvEERPNS_15__tree_end_nodeISO_EERKT_ (Address: 0x6b64520d04)
    - function: _ZN4absl12lts_2021032413base_internal18ThrowStdRangeErrorEPKc (Address: 0x6b645f0b00)
    - function: _Z17grpc_error_createPKciRK10grpc_slicePP10grpc_errorm (Address: 0x6b64429d0c)
    - function: _ZN11ExecCtxNext18CheckReadyToFinishEv (Address: 0x6b6444bc18)
    - variable: grpc_lb_v1_ServerList_msginit (Address: 0x6b648f9058)
    - function: _ZNKSt6__ndk120__codecvt_utf8_utf16IwE16do_always_noconvEv (Address: 0x6b6472a6bc)
    - function: _ZNSt12out_of_rangeC2ERKS_ (Address: 0x6b645f0e54)
    - function: _ZN9grpc_core8channelz10SocketNode29RecordStreamStartedFromRemoteEv (Address: 0x6b64421558)
    - function: _ZN3re26Regexp10ParseState13DoVerticalBarEv (Address: 0x6b645a4ddc)
    - variable: _ZN9grpc_core21g_static_mdelem_tableE (Address: 0x6b64924890)
    - function: _ZN3re28Compiler22IsCachedRuneByteSuffixEi (Address: 0x6b645965c4)
    - function: _ZN12ExecCtxPluck18CheckReadyToFinishEv (Address: 0x6b6444bdc4)
    - function: _ZNSt6__ndk18numpunctIwEC2Em (Address: 0x6b6472aaac)
    - variable: _ZTVN9grpc_core10Subchannel33ConnectivityStateWatcherInterfaceE (Address: 0x6b648f22d8)
    - variable: _ZTSNSt6__ndk114__shared_countE (Address: 0x6b64806570)
    - function: _ZN3re23RE23Arg13parse_int_hexEPKcmPv (Address: 0x6b6458b7f4)
    - function: _ZN4absl12lts_2021032413cord_internal11CordRepRing14CreateFromLeafEPNS1_7CordRepEmmm (Address: 0x6b645cca70)
    - function: _ZN4absl12lts_2021032413DataLossErrorENS0_11string_viewE (Address: 0x6b645c3224)
    - function: _ZNK4absl12lts_202103245Mutex10AssertHeldEv (Address: 0x6b645deed8)
    - function: _ZN4absl12lts_202103245Mutex9TryRemoveEPNS0_13base_internal14PerThreadSynchE (Address: 0x6b645dbffc)
    - function: _ZN9grpc_core6Server29AllocatingRequestMatcherBatchD0Ev (Address: 0x6b644551f8)
    - function: _ZN3re23RE23Arg11parse_shortEPKcmPv (Address: 0x6b6458b3bc)
    - variable: envoy_config_route_v3_RouteAction_HashPolicy_QueryParameter_msginit (Address: 0x6b648fc830)
    - function: _ZN4absl12lts_2021032413time_internal4cctz12TimeZoneLibCD0Ev (Address: 0x6b6460036c)
    - function: _ZNSt6__ndk16vectorIN4absl12lts_2021032411string_viewENS_9allocatorIS3_EEE21__push_back_slow_pathIS3_EEvOT_ (Address: 0x6b643fd270)
    - variable: envoy_config_route_v3_RouteAction_msginit (Address: 0x6b648fc758)
    - function: deflateReset (Address: 0x6b6457d208)
    - variable: _ZTSN9grpc_core27TlsChannelSecurityConnector28TlsChannelCertificateWatcherE (Address: 0x6b647bf720)
    - function: _ZN9grpc_core6chttp217StreamFlowControl8RecvDataEl (Address: 0x6b644d1514)
    - function: _ZN9grpc_core20GlobalSubchannelPool4InitEv (Address: 0x6b643f9f9c)
    - function: _Z22grpc_wakeup_fd_destroyP14grpc_wakeup_fd (Address: 0x6b64538044)
    - function: _ZN3re26Regexp6WalkerIiED0Ev (Address: 0x6b64591e34)
    - function: _Z40grpc_alts_shared_resource_dedicated_initv (Address: 0x6b6457a288)
    - function: _Z40grpc_polling_entity_del_from_pollset_setP19grpc_polling_entityP16grpc_pollset_set (Address: 0x6b6442c220)
    - variable: _ZTINSt6__ndk115__codecvt_utf16IDiLb0EEE (Address: 0x6b649146b0)
    - function: _ZNSt6__ndk112__hash_tableINS_17__hash_value_typeINS_12basic_stringIcNS_11char_traitsIcEENS_9allocatorIcEEEEPKN4absl12lts_2021032413time_internal4cctz9time_zone4ImplEEENS_22__unordered_map_hasherIS7_SG_NS_4hashIS7_EELb1EEENS_21__unordered_map_equalIS7_SG_NS_8equal_toIS7_EELb1EEENS5_ISG_EEE21__construct_node_hashIRKNS_21piecewise_construct_tEJNS_5tupleIJRKS7_EEENSV_IJEEEEEENS_10unique_ptrINS_11__hash_nodeISG_PvEENS_22__hash_node_destructorINS5_IS13_EEEEEEmOT_DpOT0_ (Address: 0x6b645f8b64)
    - function: _ZNSt6__ndk113basic_istreamIcNS_11char_traitsIcEEE4syncEv (Address: 0x6b646f57dc)
    - function: _Z25grpc_metadata_batch_clearP19grpc_metadata_batch (Address: 0x6b64459f9c)
    - function: _ZN4absl12lts_2021032423inlined_vector_internal7StorageIN9grpc_core13RefCountedPtrINS3_8channelz8BaseNodeEEELm10ENSt6__ndk19allocatorIS7_EEE15DestroyContentsEv (Address: 0x6b64428e30)
    - function: _ZNK9grpc_core13StringMatchereqERKS0_ (Address: 0x6b64538770)
    - function: _ZN9grpc_core14WorkSerializer18WorkSerializerImpl3RunENSt6__ndk18functionIFvvEEERKNS_13DebugLocationE (Address: 0x6b6442d8a8)
    - function: _ZN4absl12lts_2021032423inlined_vector_internal7StorageIN9grpc_core13RefCountedPtrINS3_10HandshakerEEELm2ENSt6__ndk19allocatorIS6_EEE15EmplaceBackSlowIJS6_EEERS6_DpOT_ (Address: 0x6b64524948)
    - function: _ZNKSt6__ndk18numpunctIwE16do_thousands_sepEv (Address: 0x6b6472ac00)
    - variable: _ZTI21grpc_call_credentials (Address: 0x6b648f3ae0)
    - function: crc32_z (Address: 0x6b64586bc0)
    - function: _ZNSt6__ndk119__shared_weak_count16__release_sharedEv (Address: 0x6b64730f9c)
    - function: _ZNSt6__ndk119__shared_weak_count10__add_weakEv (Address: 0x6b64730f84)
    - function: _upb_array_realloc (Address: 0x6b645bc3d0)
    - function: _ZNSt6__ndk113basic_istreamIwNS_11char_traitsIwEEErsERd (Address: 0x6b646f7288)
    - function: _ZNSt6__ndk113basic_ostreamIwNS_11char_traitsIwEEElsEi (Address: 0x6b646fade4)
    - variable: _ZTVNSt6__ndk113basic_ostreamIwNS_11char_traitsIwEEEE (Address: 0x6b64912960)
    - function: _ZNSt6__ndk16__treeIN3re29RuneRangeENS1_13RuneRangeLessENS_9allocatorIS2_EEE7destroyEPNS_11__tree_nodeIS2_PvEE (Address: 0x6b64591cfc)
    - variable: _ZTSPKDh (Address: 0x6b648071e0)
    - function: upb_status_errmsg (Address: 0x6b645bfea4)
    - function: _ZN4absl12lts_2021032416strings_internal13JoinAlgorithmINSt6__ndk121__tree_const_iteratorINS3_12basic_stringIcNS3_11char_traitsIcEENS3_9allocatorIcEEEEPNS3_11__tree_nodeISA_PvEElEEvEESA_T_SG_NS0_11string_viewENS1_11NoFormatterE (Address: 0x6b645054a4)
    - variable: _ZTINSt6__ndk15ctypeIwEE (Address: 0x6b64913e70)
    - function: _ZN4absl12lts_2021032413base_internal10AtomicHookIPFvlEE13DummyFunctionEl (Address: 0x6b645df940)
    - variable: _ZTSPKv (Address: 0x6b64807110)
    - function: _Z61grpc_refresh_token_credentials_create_from_auth_refresh_token23grpc_auth_refresh_token (Address: 0x6b6453ff8c)
    - function: _ZNK4absl12lts_2021032419bad_optional_access4whatEv (Address: 0x6b64600c90)
    - function: _ZNSt6__ndk17codecvtIcc9mbstate_tED1Ev (Address: 0x6b646fd24c)
    - function: _ZNSt6__ndk19to_stringEx (Address: 0x6b6473c93c)
    - function: _ZN42grpc_tls_server_authorization_check_configD1Ev (Address: 0x6b6456202c)
    - function: _ZNSt6__ndk18numpunctIwED1Ev (Address: 0x6b6472ab60)
    - function: _ZN4absl12lts_20210324lsERNSt6__ndk113basic_ostreamIcNS1_11char_traitsIcEEEENS0_11string_viewE (Address: 0x6b645ebafc)
    - function: grpc_slice_eq (Address: 0x6b6443c8fc)
    - variable: _ZTVN4absl12lts_2021032413time_internal4cctz14ZoneInfoSourceE (Address: 0x6b64902c88)
    - function: _ZNSt6__ndk112basic_stringIwNS_11char_traitsIwEENS_9allocatorIwEEED1Ev (Address: 0x6b647363cc)
    - variable: grpc_trace_chttp2_refcount (Address: 0x6b6491f5b0)
    - function: _ZN9grpc_core5Arena6CreateEm (Address: 0x6b645b4714)
    - function: _Z28grpc_stats_inc_tcp_read_sizei (Address: 0x6b64527c98)
    - function: _Z15gpr_strjoin_sepPPKcmS0_Pm (Address: 0x6b645b2e20)
    - function: _ZNSt6__ndk119basic_ostringstreamIcNS_11char_traitsIcEENS_9allocatorIcEEED1Ev (Address: 0x6b6458bbfc)
    - function: _ZNSt6__ndk115basic_streambufIwNS_11char_traitsIwEEED2Ev (Address: 0x6b646f2764)
    - function: _Z35grpc_is_socket_reuse_port_supportedv (Address: 0x6b6442caf4)
    - variable: _ZTSNSt6__ndk114collate_bynameIwEE (Address: 0x6b64805160)
    - function: _ZNSt6__ndk16vectorIPK19grpc_channel_filterNS_9allocatorIS3_EEE21__push_back_slow_pathIS3_EEvOT_ (Address: 0x6b643f8eb0)
    - function: _ZNSt6__ndk13mapINS_12basic_stringIcNS_11char_traitsIcEENS_9allocatorIcEEEENS_6vectorIN9grpc_core13StringMatcherENS4_IS9_EEEENS_4lessIS6_EENS4_INS_4pairIKS6_SB_EEEEEixERSF_ (Address: 0x6b64507348)
    - variable: envoy_config_overload_v3_ScaledTrigger_msginit (Address: 0x6b648fc338)
    - function: _ZN9grpc_core15ByteStreamCache17CachingByteStreamC2EPS0_ (Address: 0x6b6445649c)
    - function: _ZNSt6__ndk115__thread_structC1Ev (Address: 0x6b6473f640)
    - variable: envoy_config_listener_v3_Listener_ConnectionBalanceConfig_ExactBalance_msginit (Address: 0x6b647a1e20)
    - function: _ZNSt6__ndk112__hash_tableIPN3re23DFA5StateENS2_9StateHashENS2_10StateEqualENS_9allocatorIS4_EEE8__rehashEm (Address: 0x6b6459f0ec)
    - variable: envoy_config_bootstrap_v3_RuntimeLayer_AdminLayer_msginit (Address: 0x6b647a08f8)
    - function: _ZN3re26Regexp10ParseState12PushRepeatOpENS_8RegexpOpERKNS_11StringPieceEb (Address: 0x6b645a4794)
    - function: _ZNSt6__ndk115basic_streambufIcNS_11char_traitsIcEEED2Ev (Address: 0x6b6458c628)
    - variable: _ZTVNSt6__ndk120__shared_ptr_emplaceIN9grpc_core6XdsApi9LdsUpdate15FilterChainDataENS_9allocatorIS4_EEEE (Address: 0x6b648f9258)
    - function: _ZN4absl12lts_2021032419str_format_internal9SummarizeENS1_21UntypedFormatSpecImplENS0_4SpanIKNS1_13FormatArgImplEEE (Address: 0x6b645d3064)
    - function: _ZNKSt6__ndk15ctypeIwE8do_widenEc (Address: 0x6b6472580c)
    - function: _ZNSt6__ndk112basic_stringIwNS_11char_traitsIwEENS_9allocatorIwEEE6insertENS_11__wrap_iterIPKwEEw (Address: 0x6b647379fc)
    - function: _ZNSt6__ndk113basic_istreamIcNS_11char_traitsIcEEE5seekgExNS_8ios_base7seekdirE (Address: 0x6b646f5aa0)
    - function: _ZN3re23DFAD1Ev (Address: 0x6b6459a5bc)
    - function: _ZNSt6__ndk16locale5facetD1Ev (Address: 0x6b646fd24c)
    - variable: _ZN4absl12lts_2021032419str_format_internal31FormatConversionCharSetInternal1XE (Address: 0x6b647dae48)
    - function: _ZNSt6__ndk16__treeINS_12__value_typeINS_12basic_stringIcNS_11char_traitsIcEENS_9allocatorIcEEEEN9grpc_core9XdsClient16RouteConfigStateEEENS_19__map_value_compareIS7_SB_NS_4lessIS7_EELb1EEENS5_ISB_EEE16__construct_nodeIJRKNS_21piecewise_construct_tENS_5tupleIJRKS7_EEENSM_IJEEEEEENS_10unique_ptrINS_11__tree_nodeISB_PvEENS_22__tree_node_destructorINS5_ISU_EEEEEEDpOT_ (Address: 0x6b6451ce3c)
    - function: _ZN9grpc_core12FakeResolverD0Ev (Address: 0x6b644aa134)
    - function: _Z23get_message_size_limitsPK17grpc_channel_args (Address: 0x6b644c2ea4)
    - variable: _ZTINSt6__ndk113basic_ostreamIcNS_11char_traitsIcEEEE (Address: 0x6b648fefb0)
    - function: _ZN21grpc_chttp2_transportD1Ev (Address: 0x6b644c7b7c)
    - function: _ZNSt6__ndk114codecvt_bynameIDsc9mbstate_tED0Ev (Address: 0x6b64719adc)
    - function: _ZN4absl12lts_2021032419str_format_internal17FormatConvertImplEiNS1_24FormatConversionSpecImplEPNS1_14FormatSinkImplE (Address: 0x6b645d0900)
    - function: _ZN9grpc_core14DynamicFilters4Call7DestroyEPvP10grpc_error (Address: 0x6b643f98b0)
    - function: _ZNK9grpc_core6Server28AllocatingRequestMatcherBase6serverEv (Address: 0x6b644550d0)
    - function: _Z34grpc_slice_buffer_destroy_internalP17grpc_slice_buffer (Address: 0x6b6443d054)
    - function: _ZNSt6__ndk115__thread_structD2Ev (Address: 0x6b6473f674)
    - function: gpr_refn (Address: 0x6b645b36fc)
    - variable: grpc_gcp_AltsContext_msginit (Address: 0x6b648fe508)
    - variable: _ZTIN9grpc_core10RefCountedI22grpc_tls_error_detailsNS_19PolymorphicRefCountELNS_13UnrefBehaviorE0EEE (Address: 0x6b648fded0)
    - function: _Z34tsi_handshaker_result_extract_peerPK21tsi_handshaker_resultP8tsi_peer (Address: 0x6b64465500)
    - function: _ZNSt6__ndk115basic_streambufIcNS_11char_traitsIcEEEC1Ev (Address: 0x6b646f2534)
    - function: _ZNKSt6__ndk120__codecvt_utf8_utf16IDsE13do_max_lengthEv (Address: 0x6b6472a860)
    - function: _ZNSt6__ndk112basic_stringIcNS_11char_traitsIcEENS_9allocatorIcEEE7replaceIPKcEENS_9enable_ifIXsr19__is_input_iteratorIT_EE5valueERS5_E4typeENS_11__wrap_iterIS8_EESF_SA_SA_ (Address: 0x6b64734260)
    - function: _ZN9grpc_core8internal50alts_handshaker_client_set_grpc_caller_for_testingEP22alts_handshaker_clientPF15grpc_call_errorP9grpc_callPK7grpc_opmP12grpc_closureE (Address: 0x6b64578b9c)
    - variable: _ZTSNSt6__ndk110__function6__funcIN4absl12lts_2021032419functional_internal11FrontBinderIMN9grpc_core22XdsCertificateProviderEFvNS_12basic_stringIcNS_11char_traitsIcEENS_9allocatorIcEEEEbbEJPS7_EEENSB_ISH_EEFvSD_bbEEE (Address: 0x6b647951a0)
    - function: _ZNKSt6__ndk17num_putIwNS_19ostreambuf_iteratorIwNS_11char_traitsIwEEEEE6do_putES4_RNS_8ios_baseEwb (Address: 0x6b64707d30)
    - function: _ZNKSt6__ndk110moneypunctIwLb1EE16do_negative_signEv (Address: 0x6b647111b4)
    - function: _Z27grpc_stats_histo_percentilePK15grpc_stats_data21grpc_stats_histogramsd (Address: 0x6b64527504)
    - function: _ZNSt6__ndk112__hash_tableINS_17__hash_value_typeINS_12basic_stringIcNS_11char_traitsIcEENS_9allocatorIcEEEEPKN4absl12lts_2021032413time_internal4cctz9time_zone4ImplEEENS_22__unordered_map_hasherIS7_SG_NS_4hashIS7_EELb1EEENS_21__unordered_map_equalIS7_SG_NS_8equal_toIS7_EELb1EEENS5_ISG_EEE4findIS7_EENS_15__hash_iteratorIPNS_11__hash_nodeISG_PvEEEERKT_ (Address: 0x6b645f8524)
    - function: upb_symtab_lookupfile2 (Address: 0x6b645b818c)
    - function: _Z15gpr_default_logP17gpr_log_func_args (Address: 0x6b645b24ac)
    - function: _ZNSt6__ndk16__treeINS_12__value_typeIPN9grpc_core33ConnectivityStateWatcherInterfaceENS_10unique_ptrIS3_NS2_16OrphanableDeleteEEEEENS_19__map_value_compareIS4_S8_NS_4lessIS4_EELb1EEENS_9allocatorIS8_EEE5eraseENS_21__tree_const_iteratorIS8_PNS_11__tree_nodeIS8_PvEElEE (Address: 0x6b64457534)
    - function: _ZN3re23DFA8RWLocker14LockForWritingEv (Address: 0x6b6459be28)
    - function: _ZNSt6__ndk115basic_streambufIcNS_11char_traitsIcEEE6snextcEv (Address: 0x6b646f23c4)
    - function: _ZNKSt6__ndk112basic_stringIcNS_11char_traitsIcEENS_9allocatorIcEEE4copyEPcmm (Address: 0x6b6473440c)
    - function: _ZN3re23DFA8RWLockerC2EPNS_5MutexE (Address: 0x6b6459be00)
    - function: _ZN9grpc_core17MessageSizeParser20ParsePerMethodParamsEPK17grpc_channel_argsRKNS_4JsonEPP10grpc_error (Address: 0x6b644c293c)
    - variable: _ZTINSt6__ndk110__function6__baseIFP17grpc_channel_argsS3_PP10grpc_errorEEE (Address: 0x6b648f34d0)
    - function: _ZN4absl12lts_202103249ParseFlagERKNSt6__ndk112basic_stringIcNS1_11char_traitsIcEENS1_9allocatorIcEEEEPNS0_8DurationEPS7_ (Address: 0x6b645e40a0)
    - variable: _ZTIPc (Address: 0x6b64915a70)
    - variable: _ZTIDn (Address: 0x6b64915970)
    - function: _ZNSt13exception_ptrD2Ev (Address: 0x6b646f035c)
    - variable: _ZN9grpc_core28ServerAddressWeightAttribute32kServerAddressWeightAttributeKeyE (Address: 0x6b6491f030)
    - variable: _ZTVSt11logic_error (Address: 0x6b649164c0)
    - variable: _ZTSNSt6__ndk19money_putIcNS_19ostreambuf_iteratorIcNS_11char_traitsIcEEEEEE (Address: 0x6b648062c0)
    - variable: xds_core_v3_CollectionEntry_InlineEntry_msginit (Address: 0x6b648fd710)
    - function: _ZNSt6__ndk16localeC1ERKS0_ (Address: 0x6b64723b04)
    - function: _Z33grpc_channel_stack_type_is_client23grpc_channel_stack_type (Address: 0x6b64448f94)
    - function: _Z33grpc_connected_channel_get_streamP17grpc_call_element (Address: 0x6b64523be4)
    - function: _ZNSt6__ndk15dequeIPN9grpc_core6Server8CallDataENS_9allocatorIS4_EEE19__add_back_capacityEv (Address: 0x6b64453f58)
    - function: _ZNSt6__ndk115basic_streambufIwNS_11char_traitsIwEEEC1Ev (Address: 0x6b646f2974)
    - function: _ZN4absl12lts_202103244Cord9InlineRep11PrependTreeEPNS0_13cord_internal7CordRepE (Address: 0x6b645c50fc)
    - function: gpr_should_log (Address: 0x6b645b2118)
    - function: _ZNSt6__ndk113basic_istreamIwNS_11char_traitsIwEEE3getERw (Address: 0x6b646f7768)
    - function: _ZN4absl12lts_2021032416strings_internal11BigUnsignedILi84EE12AddWithCarryEij (Address: 0x6b645ef76c)
    - function: _ZN9grpc_core30FileWatcherCertificateProviderD2Ev (Address: 0x6b64547578)
    - function: _ZNSt6__ndk115__codecvt_utf16IwLb0EED0Ev (Address: 0x6b6472f6bc)
    - function: _ZNKSt6__ndk115__codecvt_utf16IDsLb1EE9do_lengthER9mbstate_tPKcS5_m (Address: 0x6b64729940)
    - function: _ZNSt6__ndk16__treeINS_12__value_typeINS_12basic_stringIcNS_11char_traitsIcEENS_9allocatorIcEEEENS_10unique_ptrIN9grpc_core10Subchannel16HealthWatcherMap13HealthWatcherENS9_16OrphanableDeleteEEEEENS_19__map_value_compareIS7_SF_NS_4lessIS7_EELb1EEENS5_ISF_EEE7destroyEPNS_11__tree_nodeISF_PvEE (Address: 0x6b64410d5c)
    - function: upb_enumdef_default (Address: 0x6b645b741c)
    - variable: _ZTSNSt6__ndk18time_getIwNS_19istreambuf_iteratorIwNS_11char_traitsIwEEEEEE (Address: 0x6b64805d80)
    - function: _ZN9grpc_core17HealthCheckClient9CallStateD0Ev (Address: 0x6b64469610)
    - variable: envoy_type_matcher_v3_RegexMatcher_msginit (Address: 0x6b648fd3d0)
    - function: _ZN9grpc_core4Fork12BlockExecCtxEv (Address: 0x6b645b4af0)
    - function: gpr_malloc (Address: 0x6b645b1d70)
    - function: is_pow2 (Address: 0x6b645bca3c)
    - variable: _ZTIPo (Address: 0x6b64915e30)
    - function: _ZN4absl12lts_2021032416strings_internal11BigUnsignedILi84EEC2ENS0_11string_viewE (Address: 0x6b645ee750)
    - function: _ZN9grpc_core8Resolver18ResetBackoffLockedEv (Address: 0x6b643fe6b0)
    - function: _ZN4absl12lts_2021032414GetStackFramesEPPvPiii (Address: 0x6b645e0014)
    - function: _ZNSt6__ndk16thread4joinEv (Address: 0x6b6473f248)
    - variable: _ZTIN9grpc_core18TcpServerFdHandlerE (Address: 0x6b648f9d38)
    - function: _ZN9grpc_core13ClientChannel21OnResolverErrorLockedEP10grpc_error (Address: 0x6b643ecb6c)
    - function: grpcsharp_call_set_credentials (Address: 0x6b643e8240)
    - function: _ZN3re23DFA17InlinedSearchLoopEPNS0_12SearchParamsEbbb (Address: 0x6b6459c198)
    - function: _ZN4absl12lts_2021032423inlined_vector_internal7StorageIN9grpc_core13RefCountedPtrI21grpc_call_credentialsEELm2ENSt6__ndk19allocatorIS6_EEE7ReserveEm (Address: 0x6b64433d74)
    - function: _ZNKSt6__ndk110moneypunctIwLb1EE14do_frac_digitsEv (Address: 0x6b647111f8)
    - variable: _ZTIN10__cxxabiv120__function_type_infoE (Address: 0x6b64915850)
    - function: _ZN9grpc_core27TlsChannelSecurityConnectorC1ENS_13RefCountedPtrI24grpc_channel_credentialsEENS1_I28grpc_tls_credentials_optionsEENS1_I21grpc_call_credentialsEEPKcS9_P21tsi_ssl_session_cache (Address: 0x6b64564e5c)
    - function: _ZN9grpc_core5Arena9AllocZoneEm (Address: 0x6b645b47e4)
    - variable: _ZNSt6__ndk110moneypunctIcLb0EE4intlE (Address: 0x6b648055d8)
    - function: deflateTune (Address: 0x6b6457f714)
    - function: _ZNKSt6__ndk110__function6__funcIZN9grpc_core38AsyncConnectivityStateWatcherInterface8NotifierC1ENS2_13RefCountedPtrIS3_EE23grpc_connectivity_stateRKN4absl12lts_202103246StatusERKNS_10shared_ptrINS2_14WorkSerializerEEEEUlvE_NS_9allocatorISI_EEFvvEE7__cloneEPNS0_6__baseISL_EE (Address: 0x6b64457474)
    - function: _Z19gpr_dump_return_lenPKcmjPm (Address: 0x6b645b27e8)
    - function: _Z16grpc_httpcli_getP20grpc_httpcli_contextP19grpc_polling_entityP19grpc_resource_quotaPK20grpc_httpcli_requestlP12grpc_closureP18grpc_http_response (Address: 0x6b64528cb0)
    - variable: _ZTVSt20bad_array_new_length (Address: 0x6b64916388)
    - function: gpr_free (Address: 0x6b645b1db4)
    - function: _ZN4absl12lts_202103244ToTMENS0_4TimeENS0_8TimeZoneE (Address: 0x6b645e5900)
    - variable: envoy_config_cluster_v3_Cluster_TypedExtensionProtocolOptionsEntry_msginit (Address: 0x6b648fb388)
    - variable: envoy_extensions_transport_sockets_tls_v3_TlsSessionTicketKeys_msginit (Address: 0x6b648fe448)
    - variable: _ZTIPv (Address: 0x6b64915930)
    - function: gpr_time_cmp (Address: 0x6b645b3978)
    - function: _Z48grpc_channel_stack_builder_set_channel_argumentsP26grpc_channel_stack_builderPK17grpc_channel_args (Address: 0x6b64419b24)
    - variable: _ZTVN9grpc_core24CertificateProviderStoreE (Address: 0x6b648f9848)
    - function: _ZN3tsi18SslSessionLRUCacheD1Ev (Address: 0x6b64552dec)
    - function: _ZNK9grpc_core6XdsApi5Route10HashPolicy8ToStringEv (Address: 0x6b644e3670)
    - function: _ZN4absl12lts_2021032420DefaultStackUnwinderEPPvPiiiPKvS3_ (Address: 0x6b645e012c)
    - function: _Z32grpc_pollset_set_del_pollset_setP16grpc_pollset_setS0_ (Address: 0x6b6442c348)
    - function: _Z22tsi_init_peer_propertyv (Address: 0x6b644655c8)
    - function: _ZN9grpc_core19SubchannelConnector6OrphanEv (Address: 0x6b644c4aac)
    - function: _Z36grpc_server_security_context_destroyPv (Address: 0x6b64431dfc)
    - function: _ZNKSt6__ndk120__codecvt_utf8_utf16IDsE9do_lengthER9mbstate_tPKcS5_m (Address: 0x6b6472a840)
    - function: _ZN4absl12lts_2021032416strings_internal9JoinRangeINS0_13InlinedVectorIPKcLm3ENSt6__ndk19allocatorIS5_EEEEEENS6_12basic_stringIcNS6_11char_traitsIcEENS7_IcEEEERKT_NS0_11string_viewE (Address: 0x6b643f6ea4)
    - variable: envoy_config_cluster_v3_Cluster_MaglevLbConfig_msginit (Address: 0x6b648fb288)
    - function: _ZNK3re211StringPiece4findERKS0_m (Address: 0x6b64593e84)
    - variable: _ZNSt6__ndk114numeric_limitsIN4absl12lts_202103247uint128EE5trapsE (Address: 0x6b647e06b8)
    - variable: _ZTIv (Address: 0x6b64915918)
    - variable: envoy_config_listener_v3_ApiListener_msginit (Address: 0x6b648fe300)
    - function: _ZN28grpc_client_security_contextD2Ev (Address: 0x6b64431c0c)
    - variable: _ZTVNSt6__ndk120__codecvt_utf8_utf16IDsEE (Address: 0x6b64914848)
    - function: _ZNK9grpc_core6XdsApi5Route10HashPolicyeqERKS2_ (Address: 0x6b644e345c)
    - function: _ZN9grpc_core32GoogleCloud2ProdResolverShutdownEv (Address: 0x6b644abd00)
    - function: _ZNSt6__ndk113basic_istreamIwNS_11char_traitsIwEEErsERl (Address: 0x6b646f6c34)
    - function: _ZN4absl12lts_2021032417optional_internal18optional_data_baseINSt6__ndk112basic_stringIcNS3_11char_traitsIcEENS3_9allocatorIcEEEEE6assignIRKS9_EEvOT_ (Address: 0x6b643f440c)
    - variable: _ZTIN10__cxxabiv129__pointer_to_member_type_infoE (Address: 0x6b64915870)
    - function: _ZNSt6__ndk115basic_streambufIcNS_11char_traitsIcEEE9underflowEv (Address: 0x6b6458c688)
    - function: _ZNSt6__ndk15arrayINS_6vectorIN9grpc_core6XdsApi9LdsUpdate14FilterChainMap8SourceIpENS_9allocatorIS6_EEEELm3EED2Ev (Address: 0x6b644b228c)
    - function: _ZN9grpc_core20GlobalConfigEnvInt323SetEi (Address: 0x6b645b51e4)
    - variable: envoy_config_listener_v3_UdpListenerConfig_msginit (Address: 0x6b648fc1d8)
    - function: _Z22grpc_event_engine_initv (Address: 0x6b64559ae8)
    - function: _Z42grpc_channel_stack_builder_iterator_is_endP35grpc_channel_stack_builder_iterator (Address: 0x6b644199c8)
    - function: _ZN39grpc_google_default_channel_credentialsD0Ev (Address: 0x6b6453b61c)
    - function: _ZN42grpc_tls_server_authorization_check_configC1EPKvPFiPvP39grpc_tls_server_authorization_check_argEPFvS2_S4_EPFvS2_E (Address: 0x6b64562008)
    - variable: _ZTI39grpc_google_default_channel_credentials (Address: 0x6b648f9e80)
    - variable: _ZTVN9grpc_core26TlsServerSecurityConnectorE (Address: 0x6b648fdd90)
    - variable: _ZTSN3re214ToStringWalkerE (Address: 0x6b647cda70)
    - function: grpc_completion_queue_create (Address: 0x6b6444c510)
    - variable: _ZTSNSt6__ndk117__assoc_sub_stateE (Address: 0x6b64806b60)
    - variable: _ZTSN10__cxxabiv120__si_class_type_infoE (Address: 0x6b648072a0)
    - function: _ZNSt6__ndk110__time_getD2Ev (Address: 0x6b6472c60c)
    - function: _ZN9grpc_core8Resolver6ResultaSERKS1_ (Address: 0x6b643fe498)
    - function: _ZNSt6__ndk113basic_istreamIcNS_11char_traitsIcEEE5seekgENS_4fposI9mbstate_tEE (Address: 0x6b646f598c)
    - function: _Z19grpc_postfork_childv (Address: 0x6b6452c288)
    - variable: _ZTVNSt6__ndk110__function6__funcIZN9grpc_core13ClientChannel17SubchannelWrapper14WatcherWrapper25OnConnectivityStateChangeEvEUlvE_NS_9allocatorIS6_EEFvvEEE (Address: 0x6b648f2398)
    - variable: udpa_data_orca_v1_OrcaLoadReport_UtilizationEntry_msginit (Address: 0x6b648f90c8)
    - variable: _ZN4absl12lts_202103246Status16kMovedFromStringE (Address: 0x6b647da4f0)
    - function: _ZN3re23DFA14BuildAllStatesERKNSt6__ndk18functionIFvPKibEEE (Address: 0x6b6459d308)
    - function: _ZN9grpc_core18ChildPolicyHandler6Helper13AddTraceEventENS_19LoadBalancingPolicy20ChannelControlHelper13TraceSeverityEN4absl12lts_2021032411string_viewE (Address: 0x6b643fc330)
    - variable: _ZTSN9grpc_core21DefaultConfigSelectorE (Address: 0x6b64774450)
    - function: _ZNSt6__ndk111__money_getIcE13__gather_infoEbRKNS_6localeERNS_10money_base7patternERcS8_RNS_12basic_stringIcNS_11char_traitsIcEENS_9allocatorIcEEEESF_SF_SF_Ri (Address: 0x6b64714edc)
    - variable: _ZTSPKn (Address: 0x6b648071c8)
    - function: _ZNSt6__ndk113basic_ostreamIcNS_11char_traitsIcEEElsEPFRS3_S4_E (Address: 0x6b646f8f4c)
    - function: _ZN9grpc_core19LoadSystemRootCertsEv (Address: 0x6b6454cd28)
    - function: grpc_tls_credentials_options_watch_identity_key_cert_pairs (Address: 0x6b6456275c)
    - function: _ZNKSt6__ndk114__codecvt_utf8IwE16do_always_noconvEv (Address: 0x6b64728a54)
    - function: _ZN4absl12lts_2021032413base_internal20ThrowStdRuntimeErrorERKNSt6__ndk112basic_stringIcNS2_11char_traitsIcEENS2_9allocatorIcEEEE (Address: 0x6b645f09c4)
    - function: _Z32grpc_timespec_to_millis_round_up12gpr_timespec (Address: 0x6b6442bc94)
    - function: _ZNSt6__ndk112basic_stringIwNS_11char_traitsIwEENS_9allocatorIwEEEaSERKS5_ (Address: 0x6b64736408)
    - variable: _ZTSN9grpc_core8channelz10ServerNodeE (Address: 0x6b64778dd0)
    - function: _ZN9grpc_core8Resolver6ResultC1EOS1_ (Address: 0x6b643fe3f8)
    - function: _Z27grpc_secure_endpoint_createP19tsi_frame_protectorP28tsi_zero_copy_grpc_protectorP13grpc_endpointP10grpc_slicem (Address: 0x6b6454e244)
    - variable: _ZTSNSt6__ndk114__codecvt_utf8IwEE (Address: 0x6b64804ee0)
    - function: _ZN3re29PatchList6AppendEPNS_4Prog4InstES0_S0_ (Address: 0x6b6459564c)
    - function: _ZN3re25hooks25SetDFAStateCacheResetHookEPFvRKNS0_18DFAStateCacheResetEE (Address: 0x6b6458bbbc)
    - variable: _ZTV22grpc_tls_error_details (Address: 0x6b648fdea8)
    - function: _Z54grpc_fake_transport_security_server_credentials_createv (Address: 0x6b6453a128)
    - variable: _ZTSPKj (Address: 0x6b6480718c)
    - function: _Z19grpc_is_unix_socketPK21grpc_resolved_address (Address: 0x6b6442d748)
    - function: _ZNSt6__ndk16__treeINS_12__value_typeIPN9grpc_core33ConnectivityStateWatcherInterfaceENS_10unique_ptrIS3_NS2_16OrphanableDeleteEEEEENS_19__map_value_compareIS4_S8_NS_4lessIS4_EELb1EEENS_9allocatorIS8_EEE7destroyEPNS_11__tree_nodeIS8_PvEE (Address: 0x6b644574cc)
    - function: _ZN9grpc_core18ChildPolicyHandler6Helper19RequestReresolutionEv (Address: 0x6b643fc2a0)
    - variable: _ZTSN9grpc_core26TlsServerSecurityConnectorE (Address: 0x6b647bf7f0)
    - function: _Z30grpc_server_credentials_to_argP23grpc_server_credentials (Address: 0x6b644345fc)
    - variable: _ZTVSt9bad_alloc (Address: 0x6b64916360)
    - function: _ZN4absl12lts_2021032413time_internal4cctz12TimeZoneInfo17GetTransitionTypeElbRKNSt6__ndk112basic_stringIcNS4_11char_traitsIcEENS4_9allocatorIcEEEEPh (Address: 0x6b645fabc8)
    - function: _ZN4absl12lts_20210324lsERNSt6__ndk113basic_ostreamIcNS1_11char_traitsIcEEEENS0_7uint128E (Address: 0x6b645f1eb8)
    - function: _ZNSt6__ndk112basic_stringIcNS_11char_traitsIcEENS_9allocatorIcEEEC1ERKS5_RKS4_ (Address: 0x6b64731f98)
    - function: _ZN9grpc_core6XdsApi16CreateAdsRequestERKNS_12XdsBootstrap9XdsServerERKNSt6__ndk112basic_stringIcNS5_11char_traitsIcEENS5_9allocatorIcEEEERKNS5_3setIN4absl12lts_2021032411string_viewENS5_4lessISH_EENS9_ISH_EEEESD_SD_P10grpc_errorb (Address: 0x6b644ea8ac)
    - function: _ZN9grpc_core37FileWatcherCertificateProviderFactoryD0Ev (Address: 0x6b644e2df8)
    - function: _ZNK9grpc_core22XdsCertificateProvider14MakeChannelArgEv (Address: 0x6b645074b4)
    - function: _ZN37grpc_google_refresh_token_credentialsD0Ev (Address: 0x6b6453fd34)
    - function: _ZN9grpc_core32InsecureChannelSecurityConnector15check_call_hostEN4absl12lts_2021032411string_viewEP17grpc_auth_contextP12grpc_closurePP10grpc_error (Address: 0x6b6454c544)
    - function: _ZN3re26Regexp17ConcatOrAlternateENS_8RegexpOpEPPS0_iNS0_10ParseFlagsEb (Address: 0x6b6458f370)
    - function: _ZN4absl12lts_2021032413time_internal4cctz9time_zone4ImplC1ERKNSt6__ndk112basic_stringIcNS5_11char_traitsIcEENS5_9allocatorIcEEEE (Address: 0x6b645f8444)
    - function: _ZNKSt6__ndk112ctype_bynameIwE9do_narrowEPKwS3_cPc (Address: 0x6b64726bd4)
    - variable: google_protobuf_SourceCodeInfo_Location_msginit (Address: 0x6b649026d8)
    - function: grpcsharp_metadata_array_get_key (Address: 0x6b643e6cd4)
    - function: _ZNSt6__ndk16vectorIN3re24Prog4InstENS_9allocatorIS3_EEE7reserveEm (Address: 0x6b645ac03c)
    - function: _ZN4absl12lts_2021032416strings_internal11BigUnsignedILi84EE12MultiplyStepEiPKjii (Address: 0x6b645ef7c0)
    - function: _ZNSt6__ndk113basic_ostreamIcNS_11char_traitsIcEEED2Ev (Address: 0x6b646f8c14)
    - function: _ZNSt6__ndk114__split_bufferIPPN3re23DFA5StateENS_9allocatorIS5_EEE9push_backEOS5_ (Address: 0x6b6459fc5c)
    - variable: _ZNSt6__ndk111try_to_lockE (Address: 0x6b648065bf)
    - variable: _ZTS42grpc_tls_server_authorization_check_config (Address: 0x6b647beb10)
    - function: _ZN43grpc_httpcli_ssl_channel_security_connector15check_call_hostEN4absl12lts_2021032411string_viewEP17grpc_auth_contextP12grpc_closurePP10grpc_error (Address: 0x6b64559634)
    - function: _Z47grpc_fake_transport_security_credentials_createv (Address: 0x6b6453a0f0)
    - function: _ZN9grpc_core8internal45alts_handshaker_client_set_fields_for_testingEP22alts_handshaker_clientP19alts_tsi_handshakerPFv10tsi_resultPvPKhmP21tsi_handshaker_resultES6_P16grpc_byte_buffer16grpc_status_code (Address: 0x6b64578cf8)
    - variable: _ZTIPKDi (Address: 0x6b64916080)
    - variable: _ZTSNSt6__ndk112ctype_bynameIwEE (Address: 0x6b648051c0)
    - function: _ZNKSt6__ndk117moneypunct_bynameIwLb0EE16do_positive_signEv (Address: 0x6b64712910)
    - function: _ZNSt6__ndk16vectorINS_10unique_ptrIN9grpc_core20ProxyMapperInterfaceENS_14default_deleteIS3_EEEENS_9allocatorIS6_EEE6insertENS_11__wrap_iterIPKS6_EEOS6_ (Address: 0x6b643fd9d4)
    - function: _ZN43grpc_service_account_jwt_access_credentialsC2E18grpc_auth_json_key12gpr_timespecNSt6__ndk112basic_stringIcNS2_11char_traitsIcEENS2_9allocatorIcEEEEb (Address: 0x6b6453e0f0)
    - function: _ZN4absl12lts_2021032415AsciiStrToLowerEPNSt6__ndk112basic_stringIcNS1_11char_traitsIcEENS1_9allocatorIcEEEE (Address: 0x6b645e61f0)
    - function: _ZNK9grpc_core6XdsApi20DownstreamTlsContext5EmptyEv (Address: 0x6b644e6838)
    - function: _ZN4absl12lts_2021032418UnimplementedErrorENS0_11string_viewE (Address: 0x6b645c3358)
    - function: _ZN3re23RE23Arg12parse_ushortEPKcmPv (Address: 0x6b6458b5a4)
    - function: _Z42grpc_chttp2_hptbl_lookup_ref_dynamic_indexPK17grpc_chttp2_hptblj (Address: 0x6b644d8964)
    - function: _ZNSt6__ndk115numpunct_bynameIwED1Ev (Address: 0x6b6472ab60)
    - function: _Z43grpc_iomgr_add_closure_to_background_pollerP12grpc_closureP10grpc_error (Address: 0x6b6452c8ec)
    - function: _ZN4absl12lts_2021032413cord_internal11CordRepRing21SetCapacityForTestingEm (Address: 0x6b645cc438)
    - function: _ZN4absl12lts_2021032413InlinedVectorINSt6__ndk110unique_ptrIN9grpc_core19ServiceConfigParser12ParsedConfigENS2_14default_deleteIS6_EEEELm4ENS2_9allocatorIS9_EEED2Ev (Address: 0x6b6440a094)
    - function: _ZN9grpc_core14RegisteredCallC2EPKcS2_ (Address: 0x6b6444708c)
    - variable: _ZTIN9grpc_core8channelz11ChannelNodeE (Address: 0x6b648f3690)
    - function: _ZN4absl12lts_2021032410IsNotFoundERKNS0_6StatusE (Address: 0x6b645c3490)
    - function: _Z22grpc_fd_notify_on_readP7grpc_fdP12grpc_closure (Address: 0x6b64559f18)
    - variable: envoy_extensions_transport_sockets_tls_v3_secret_proto_upbdefinit (Address: 0x6b64921f90)
    - variable: grpc_trace_auth_context_refcount (Address: 0x6b6491f0bd)
    - function: grpc_tls_server_credentials_create (Address: 0x6b645635d4)
    - variable: _ZTSN9grpc_core9XdsClient12ChannelState12AdsCallState13ResourceStateE (Address: 0x6b64796500)
    - variable: _ZTIj (Address: 0x6b64915c40)
    - function: _ZNSt6__ndk113basic_istreamIwNS_11char_traitsIwEEErsEPNS_15basic_streambufIwS2_EE (Address: 0x6b646f6358)
    - function: _ZNKSt6__ndk115error_condition7messageEv (Address: 0x6b6473e7fc)
    - function: _ZNKSt6__ndk115__codecvt_utf16IwLb1EE16do_always_noconvEv (Address: 0x6b64729500)
    - function: _ZN9grpc_core6chttp220TransportFlowControl10MakeActionEv (Address: 0x6b644d1e14)
    - function: _ZNKSt6__ndk112basic_stringIcNS_11char_traitsIcEENS_9allocatorIcEEE16find_last_not_ofEPKcmm (Address: 0x6b64735778)
    - function: _ZN9grpc_core30FileWatcherCertificateProviderD0Ev (Address: 0x6b64547800)
    - variable: _ZTINSt6__ndk112bad_weak_ptrE (Address: 0x6b64915450)
    - function: _ZN3re26Regexp4StarEPS0_NS0_10ParseFlagsE (Address: 0x6b6458f340)
    - function: _ZNSt6__ndk112basic_stringIcNS_11char_traitsIcEENS_9allocatorIcEEE6__initEmc (Address: 0x6b64732368)
    - function: _ZNK9grpc_core13StringMatcher8ToStringEv (Address: 0x6b64538d90)
    - variable: _ZTSN9grpc_core6chttp224TransportFlowControlBaseE (Address: 0x6b6478d720)
    - variable: _ZTSDh (Address: 0x6b648071d8)
    - function: _ZN4absl12lts_2021032413base_internal23ThrowStdBadFunctionCallEv (Address: 0x6b645f0cf4)
    - variable: _ZTSNSt6__ndk17num_putIcNS_19ostreambuf_iteratorIcNS_11char_traitsIcEEEEEE (Address: 0x6b64805be0)
    - function: _Z27grpc_channel_args_normalizePK17grpc_channel_args (Address: 0x6b644183dc)
    - function: gpr_ref_is_unique (Address: 0x6b645b3768)
    - variable: envoy_config_core_v3_UpstreamHttpProtocolOptions_msginit (Address: 0x6b648fbc70)
    - variable: envoy_config_cluster_v3_cluster_proto_upbdefinit (Address: 0x6b64920020)
    - variable: __emutls_v._ZN3re25hooks7contextE (Address: 0x6b64922228)
    - function: _ZNK9grpc_core6Server18RealRequestMatcher6serverEv (Address: 0x6b64453d94)
    - function: _ZN3re26Regexp6RepeatEPS0_NS0_10ParseFlagsEii (Address: 0x6b6458f7e4)
    - function: _ZNK9grpc_core6XdsApi9LdsUpdate21HttpConnectionManagereqERKS2_ (Address: 0x6b64519870)
    - function: grpc_tls_credentials_options_create (Address: 0x6b645621b0)
    - function: _ZN9grpc_core9XdsClient12ChannelState13RetryableCallINS1_12AdsCallStateEE21StartRetryTimerLockedEv (Address: 0x6b6451f540)
    - function: upb_inttable_sizedinit (Address: 0x6b645bd770)
    - function: _ZNSt6__ndk16__treeINS_12__value_typeINS_12basic_stringIcNS_11char_traitsIcEENS_9allocatorIcEEEEN9grpc_core4JsonEEENS_19__map_value_compareIS7_SA_NS_4lessIS7_EELb1EEENS5_ISA_EEE16__construct_nodeIJRKNS_4pairIKS7_S9_EEEEENS_10unique_ptrINS_11__tree_nodeISA_PvEENS_22__tree_node_destructorINS5_ISQ_EEEEEEDpOT_ (Address: 0x6b643f306c)
    - variable: _ZTVN9grpc_core8channelz10SocketNodeE (Address: 0x6b648f35e0)
    - function: _Z51alts_iovec_record_protocol_integrity_only_unprotectP26alts_iovec_record_protocolPK5iovecmS1_S1_PPc (Address: 0x6b6457bb34)
    - variable: _ZTSNSt6__ndk110moneypunctIcLb1EEE (Address: 0x6b648060c0)
    - function: _ZNK4absl12lts_2021032413time_internal4cctz12TimeZoneInfo9LocalTimeElRKNS2_14TransitionTypeE (Address: 0x6b645fa750)
    - function: _ZNSt6__ndk16vectorIN9grpc_core3URI10QueryParamENS_9allocatorIS3_EEE6assignIPS3_EENS_9enable_ifIXaasr21__is_forward_iteratorIT_EE5valuesr16is_constructibleIS3_NS_15iterator_traitsISA_E9referenceEEE5valueEvE4typeESA_SA_ (Address: 0x6b644613e4)
    - function: _Z24grpc_tcp_server_add_addrP15grpc_tcp_serverPK21grpc_resolved_addressjjP19grpc_dualstack_modePP17grpc_tcp_listener (Address: 0x6b64535538)
    - function: inflateResetKeep (Address: 0x6b64581028)
    - function: _Z22grpc_call_internal_refP9grpc_call (Address: 0x6b64441108)
    - function: _ZN9grpc_core27TlsChannelSecurityConnector28TlsChannelCertificateWatcherD0Ev (Address: 0x6b64567c90)
    - variable: _ZTIPw (Address: 0x6b64915a20)
    - function: _ZN9grpc_core24GrpcLbPolicyRingHashInitEv (Address: 0x6b6447c8a4)
    - function: _ZN9grpc_core32MultiProducerSingleConsumerQueueD2Ev (Address: 0x6b64429784)
    - function: upb_msgdef_ntoo (Address: 0x6b645b7968)
    - function: AbslInternalSpinLockDelay_lts_20210324 (Address: 0x6b645f1ad8)
    - variable: envoy_config_cluster_v3_OutlierDetection_msginit (Address: 0x6b648fb468)
    - variable: envoy_service_load_stats_v3_lrs_proto_upbdefinit (Address: 0x6b64921020)
    - variable: _ZTVN9grpc_core6XdsApi9EdsUpdate10DropConfigE (Address: 0x6b648f6998)
    - function: _ZNSt20bad_array_new_lengthD1Ev (Address: 0x6b647444e0)
    - function: gpr_time_from_micros (Address: 0x6b645b3bf8)
    - function: _ZSt15set_new_handlerPFvvE (Address: 0x6b64741d0c)
    - function: _ZN3tsi16SslCachedSession6CreateENSt6__ndk110unique_ptrI14ssl_session_stNS_17SslSessionDeleterEEE (Address: 0x6b6456a390)
    - function: _ZNSt6__ndk115basic_streambufIwNS_11char_traitsIwEEE5imbueERKNS_6localeE (Address: 0x6b646f2ba4)
    - function: _ZN9grpc_core26TlsServerSecurityConnectorD0Ev (Address: 0x6b64567528)
    - variable: envoy_config_cluster_v3_Cluster_CommonLbConfig_LocalityWeightedLbConfig_msginit (Address: 0x6b647a0d20)
    - function: gpr_stats_read (Address: 0x6b645b379c)
    - variable: _ZNSt6__ndk114numeric_limitsIN4absl12lts_202103247uint128EE6digitsE (Address: 0x6b647e0698)
    - function: _ZN4absl12lts_2021032410CordForest7AddNodeEPNS0_13cord_internal7CordRepE (Address: 0x6b645ca1f4)
    - variable: envoy_config_accesslog_v3_RuntimeFilter_msginit (Address: 0x6b648fe130)
    - function: _ZNSt6__ndk16__treeINS_12__value_typeINS_12basic_stringIcNS_11char_traitsIcEENS_9allocatorIcEEEEN9grpc_core24CertificateProviderStore16PluginDefinitionEEENS_19__map_value_compareIS7_SB_NS_4lessIS7_EELb1EEENS5_ISB_EEE7destroyEPNS_11__tree_nodeISB_PvEE (Address: 0x6b64504b28)
    - function: __cxa_uncaught_exceptions (Address: 0x6b64741904)
    - function: _Z40grpc_auth_refresh_token_create_from_jsonRKN9grpc_core4JsonE (Address: 0x6b6453eb3c)
    - function: _ZN9grpc_core21SliceBufferByteStreamD2Ev (Address: 0x6b64456260)
    - function: _ZNK4absl12lts_2021032413time_internal4cctz9time_zone15prev_transitionERKNSt6__ndk16chrono10time_pointINS5_12system_clockENS5_8durationIlNS4_5ratioILl1ELl1EEEEEEEPNS3_16civil_transitionE (Address: 0x6b645f6ffc)
    - function: _ZNK9grpc_core13ServiceConfig27GetMethodParsedConfigVectorERK10grpc_slice (Address: 0x6b6440b24c)
    - function: _Z19grpc_fd_is_shutdownP7grpc_fd (Address: 0x6b64559f08)
    - function: _ZN3re214ByteMapBuilder5BuildEPhPi (Address: 0x6b645aa604)
    - function: _ZNSt6__ndk113basic_istreamIcNS_11char_traitsIcEEE3getEPclc (Address: 0x6b646f4944)
    - function: _ZNK9grpc_core9XdsClient12ChannelState12AdsCallState22HasSubscribedResourcesEv (Address: 0x6b64509c24)
    - function: _ZN3re23RE23Arg21parse_ulonglong_octalEPKcmPv (Address: 0x6b6458bbac)
    - variable: grpc_stats_inc_histogram (Address: 0x6b648f9b90)
    - variable: google_protobuf_UInt64Value_msginit (Address: 0x6b649021d0)
    - function: _ZNKSt6__ndk114__codecvt_utf8IDiE13do_max_lengthEv (Address: 0x6b64729004)
    - function: _ZN9grpc_core17HealthCheckClient9CallState9StartCallEv (Address: 0x6b64468cac)
    - function: _ZNSt6__ndk112ctype_bynameIwED2Ev (Address: 0x6b6472ea68)
    - function: _ZNSt6__ndk113basic_istreamIwNS_11char_traitsIwEEE3getEPwlw (Address: 0x6b646f7864)
    - variable: envoy_extensions_transport_sockets_tls_v3_CertificateValidationContext_msginit (Address: 0x6b648fe480)
    - function: grpc_channelz_get_server (Address: 0x6b64426d84)
    - function: _ZN9grpc_core12CallCombinerD1Ev (Address: 0x6b64429804)
    - variable: envoy_config_core_v3_GrpcService_msginit (Address: 0x6b648fb950)
    - function: _ZN9grpc_core8channelz11ChannelNodeD2Ev (Address: 0x6b64424768)
    - function: upb_array_set (Address: 0x6b645c1570)
    - function: grpc_resource_quota_resize (Address: 0x6b6452de94)
    - function: _ZN4absl12lts_2021032412ToChronoTimeENS0_4TimeE (Address: 0x6b645e5078)
    - variable: envoy_config_route_v3_ScopedRouteConfiguration_msginit (Address: 0x6b648fe320)
    - variable: envoy_config_bootstrap_v3_Runtime_msginit (Address: 0x6b648fafb0)
    - function: _Z25grpc_set_tsi_error_resultP10grpc_error10tsi_result (Address: 0x6b6443b634)
    - function: _ZNSt6__ndk116__narrow_to_utf8ILm32EED0Ev (Address: 0x6b6472aa18)
    - function: _ZN9grpc_core8channelz10ServerNodeD2Ev (Address: 0x6b6441ebb0)
    - function: _ZNKSt6__ndk117moneypunct_bynameIwLb0EE11do_groupingEv (Address: 0x6b647128f8)
    - function: _ZN4absl12lts_2021032413base_internal6GetTIDEv (Address: 0x6b645f15e0)
    - function: grpcsharp_test_nop (Address: 0x6b643e889c)
    - function: grpcsharp_call_destroy (Address: 0x6b643e7728)
    - function: grpc_slice_split_tail (Address: 0x6b6443c6dc)
    - function: _ZN9grpc_core6Server29AllocatingRequestMatcherBatchC2EPS0_P21grpc_completion_queueNSt6__ndk18functionIFNS0_19BatchCallAllocationEvEEE (Address: 0x6b644550e0)
    - function: _ZNKSt6__ndk120__codecvt_utf8_utf16IDiE16do_always_noconvEv (Address: 0x6b6472a9b4)
    - function: _Z26grpc_transport_stream_sizeP14grpc_transport (Address: 0x6b6445d5cc)
    - function: _ZN4absl12lts_2021032412UnknownErrorENS0_11string_viewE (Address: 0x6b645c3374)
    - variable: _ZSt7nothrow (Address: 0x6b64806629)
    - function: _ZNSt12out_of_rangeD1Ev (Address: 0x6b64744780)
    - variable: envoy_extensions_filters_network_http_connection_manager_v3_HttpFilter_msginit (Address: 0x6b648fcfc0)
    - function: _ZNKSt6__ndk17codecvtIDic9mbstate_tE6do_outERS1_PKDiS5_RS5_PcS7_RS7_ (Address: 0x6b647280f8)
    - function: _ZNSt6__ndk16vectorIN4absl12lts_2021032411string_viewENS_9allocatorIS3_EEE6insertIPZNKS2_16strings_internal8SplitterINS8_13MaxSplitsImplINS2_6ByCharEEENS2_10AllowEmptyES3_E18ConvertToContainerIS6_S3_Lb0EEclERKSE_E8raw_viewEENS_9enable_ifIXaasr21__is_forward_iteratorIT_EE5valuesr16is_constructibleIS3_NS_15iterator_traitsISM_E9referenceEEE5valueENS_11__wrap_iterIPS3_EEE4typeENSQ_IPKS3_EESM_SM_ (Address: 0x6b644fb0c0)
    - function: _ZNSt6__ndk113__vector_baseIN9grpc_core32FaultInjectionMethodParsedConfig20FaultInjectionPolicyENS_9allocatorIS3_EEED2Ev (Address: 0x6b644be014)
    - function: upb_msgdef_numfields (Address: 0x6b645b7ae8)
    - function: _ZN9grpc_core8Executor7EnqueueEP12grpc_closureP10grpc_errorb (Address: 0x6b6452b8cc)
    - function: _ZN9grpc_core12CallCombinerC2Ev (Address: 0x6b64429764)
    - function: _ZN9grpc_core29FakeResolverResponseGenerator24SetFailureOnReresolutionEv (Address: 0x6b644aaf80)
    - function: _ZN9grpc_core8internal31ClientChannelGlobalParsedConfigD2Ev (Address: 0x6b64401064)
    - function: _ZN9grpc_core3URI5ParseEN4absl12lts_2021032411string_viewE (Address: 0x6b6445ef10)
    - function: _ZN9grpc_core8ResolverD0Ev (Address: 0x6b643fe6a8)
    - variable: envoy_config_route_v3_RetryPolicy_RetryBackOff_msginit (Address: 0x6b648fc960)
    - function: _ZN9grpc_core8channelz11ChannelNode20SetConnectivityStateE23grpc_connectivity_state (Address: 0x6b6441e680)
    - function: _ZNKSt6__ndk120__codecvt_utf8_utf16IwE9do_lengthER9mbstate_tPKcS5_m (Address: 0x6b6472a6c4)
    - function: _ZNK9grpc_core6XdsApi16CommonTlsContext27CertificateProviderInstance5EmptyEv (Address: 0x6b644e5ec8)
    - function: grpc_shutdown_blocking (Address: 0x6b6444d0d8)
    - function: _ZNSt6__ndk113basic_istreamIwNS_11char_traitsIwEEE7getlineEPwlw (Address: 0x6b646f7d70)
    - variable: _ZTSNSt6__ndk110ctype_baseE (Address: 0x6b64805a60)
    - function: _ZNKSt6__ndk112basic_stringIwNS_11char_traitsIwEENS_9allocatorIwEEE17find_first_not_ofEPKwmm (Address: 0x6b6473973c)
    - function: _ZN9grpc_core3URIC2ENSt6__ndk112basic_stringIcNS1_11char_traitsIcEENS1_9allocatorIcEEEES7_S7_NS1_6vectorINS0_10QueryParamENS5_IS9_EEEES7_ (Address: 0x6b6446047c)
    - function: _ZNKSt6__ndk117moneypunct_bynameIwLb0EE13do_neg_formatEv (Address: 0x6b64712938)
    - function: grpcsharp_call_get_peer (Address: 0x6b643e7720)
    - function: grpc_xds_server_credentials_create (Address: 0x6b6454b310)
    - function: _ZNSt6__ndk113basic_ostreamIcNS_11char_traitsIcEEE6sentryD2Ev (Address: 0x6b6458ce24)
    - function: _ZNSt6__ndk16thread6detachEv (Address: 0x6b6473f28c)
    - function: _ZN4absl12lts_202103245Mutex12LockSlowLoopEPNS0_15SynchWaitParamsEi (Address: 0x6b645dda00)
    - variable: _ZNSt6__ndk16chrono12steady_clock9is_steadyE (Address: 0x6b648038ea)
    - function: _ZNKSt6__ndk17num_putIcNS_19ostreambuf_iteratorIcNS_11char_traitsIcEEEEE6do_putES4_RNS_8ios_baseEcb (Address: 0x6b647058cc)
    - function: _ZNSt6__ndk15ctypeIwED2Ev (Address: 0x6b646fd24c)
    - function: upb_enum_done (Address: 0x6b645b7438)
    - function: _ZN9grpc_core7ExecCtx18TestOnlyGlobalInitE12gpr_timespec (Address: 0x6b6442be1c)
    - function: _ZN4absl12lts_2021032416strings_internal11BigUnsignedILi4EE10MultiplyByEiPKj (Address: 0x6b645edff4)
    - variable: _ZTINSt6__ndk115__codecvt_utf16IwLb0EEE (Address: 0x6b649144b0)
    - variable: _ZTSNSt6__ndk17num_putIwNS_19ostreambuf_iteratorIwNS_11char_traitsIwEEEEEE (Address: 0x6b64805c70)
    - function: _ZN3re26Regexp14RequiredPrefixEPNSt6__ndk112basic_stringIcNS1_11char_traitsIcEENS1_9allocatorIcEEEEPbPPS0_ (Address: 0x6b64590960)
    - function: _ZN4absl12lts_202103248DurationdVEl (Address: 0x6b645e21a8)
    - function: _Z25grpc_chttp2_hptbl_destroyP17grpc_chttp2_hptbl (Address: 0x6b644d888c)
    - function: _ZN9grpc_core4Fork14DecThreadCountEv (Address: 0x6b645b4c1c)
    - variable: _ZTIb (Address: 0x6b649159c0)
    - function: _ZN4absl12lts_2021032423inlined_vector_internal7StorageIN9grpc_core13ServerAddressELm1ENSt6__ndk19allocatorIS4_EEE6AssignINS1_20IteratorValueAdapterIS7_PKS4_EEEEvT_m (Address: 0x6b643fb17c)
    - function: upb_strtable_next (Address: 0x6b645bd1ec)
    - function: _Z39gpr_global_config_set_grpc_dns_resolverPKc (Address: 0x6b64554130)
    - variable: envoy_config_cluster_v3_filter_proto_upbdefinit (Address: 0x6b64920078)
    - function: _ZNSt6__ndk111__money_putIcE13__gather_infoEbbRKNS_6localeERNS_10money_base7patternERcS8_RNS_12basic_stringIcNS_11char_traitsIcEENS_9allocatorIcEEEESF_SF_Ri (Address: 0x6b64717708)
    - function: _ZNSt6__ndk113basic_ostreamIcNS_11char_traitsIcEEElsEPKv (Address: 0x6b645b1580)
    - variable: _ZTINSt6__ndk110moneypunctIwLb0EEE (Address: 0x6b64914f70)
    - function: _ZNKSt6__ndk115__codecvt_utf16IwLb0EE6do_outER9mbstate_tPKwS5_RS5_PcS7_RS7_ (Address: 0x6b6472901c)
    - function: _ZN3re26Regexp3RefEv (Address: 0x6b6458e67c)
    - function: _ZN9grpc_core13ServiceConfigC2EPK17grpc_channel_argsNSt6__ndk112basic_stringIcNS4_11char_traitsIcEENS4_9allocatorIcEEEENS_4JsonEPP10grpc_error (Address: 0x6b64409c10)
    - variable: _ZTSN3re216RepetitionWalkerE (Address: 0x6b647cd350)
    - function: _ZN9grpc_core4Fork12AllowExecCtxEv (Address: 0x6b645b4b68)
    - function: _Z31alts_get_reader_bytes_remainingP17alts_frame_reader (Address: 0x6b645781a0)
    - variable: _ZTIN9grpc_core19LoadBalancingPolicy9CallStateE (Address: 0x6b648f25d0)
    - function: _ZNSt6__ndk114error_categoryD2Ev (Address: 0x6b6473f220)
    - function: _ZN9grpc_core43TestOnlySetGlobalHttp2TransportInitCallbackEPFvvE (Address: 0x6b644c7b64)
    - function: _Z36grpc_channel_args_want_minimal_stackPK17grpc_channel_args (Address: 0x6b64418c34)
    - function: _ZNSt6__ndk16__treeINS_12__value_typeINS_12basic_stringIcNS_11char_traitsIcEENS_9allocatorIcEEEENS_10unique_ptrIN9grpc_core22XdsCertificateProvider23ClusterCertificateStateENS_14default_deleteISB_EEEEEENS_19__map_value_compareIS7_SF_NS_4lessIS7_EELb1EEENS5_ISF_EEE12__find_equalIS7_EERPNS_16__tree_node_baseIPvEERPNS_15__tree_end_nodeISQ_EERKT_ (Address: 0x6b645086c8)
    - function: _ZNSt6__ndk115future_categoryEv (Address: 0x6b6473fd14)
    - function: _ZN9grpc_core6Server28AllocatingRequestMatcherBase12KillRequestsEP10grpc_error (Address: 0x6b64454e38)
    - function: grpc_slice_new (Address: 0x6b6443bba4)
    - variable: _ZTVN9grpc_core19LoadBalancingPolicy22TransientFailurePickerE (Address: 0x6b648f2a78)
    - function: _ZN19grpc_deadline_stateD2Ev (Address: 0x6b64412ba0)
    - variable: _ZTIn (Address: 0x6b64915dd0)
    - variable: _ZNSt6__ndk18numpunctIcE2idE (Address: 0x6b64928dc8)
    - function: _Z23grpc_tcp_server_port_fdP15grpc_tcp_serverjj (Address: 0x6b64533b6c)
    - function: _Z24grpc_metadata_batch_moveP19grpc_metadata_batchS0_ (Address: 0x6b6445a3a4)
    - function: _ZN9grpc_core22XdsCertificateProvider17ProvidesRootCertsERKNSt6__ndk112basic_stringIcNS1_11char_traitsIcEENS1_9allocatorIcEEEE (Address: 0x6b64506afc)
    - function: _ZN9grpc_core6chttp220TransportFlowControl12TargetLogBdpEv (Address: 0x6b644d1244)
    - function: _ZNSt6__ndk16__treeINS_12__value_typeINS_12basic_stringIcNS_11char_traitsIcEENS_9allocatorIcEEEEN32grpc_tls_certificate_distributor15CertificateInfoEEENS_19__map_value_compareIS7_SA_NS_4lessIS7_EELb1EEENS5_ISA_EEE4findIS7_EENS_15__tree_iteratorISA_PNS_11__tree_nodeISA_PvEElEERKT_ (Address: 0x6b645459ac)
    - function: _Z22grpc_transport_destroyP14grpc_transport (Address: 0x6b6445d5e0)
    - function: _ZN3re23NFAD1Ev (Address: 0x6b645a08e4)
    - function: _ZNKSt6__ndk19money_getIcNS_19istreambuf_iteratorIcNS_11char_traitsIcEEEEE6do_getES4_S4_bRNS_8ios_baseERjRe (Address: 0x6b647134bc)
    - function: _ZNK4absl12lts_202103246ByChar4FindENS0_11string_viewEm (Address: 0x6b645eb8c0)
    - function: _ZN9grpc_core29AwsExternalAccountCredentialsC1ENS_26ExternalAccountCredentials7OptionsENSt6__ndk16vectorINS3_12basic_stringIcNS3_11char_traitsIcEENS3_9allocatorIcEEEENS8_ISA_EEEEPP10grpc_error (Address: 0x6b6456ca58)
    - function: _Z25gsec_aead_crypter_encryptP17gsec_aead_crypterPKhmS2_mS2_mPhmPmPPc (Address: 0x6b64576eb0)
    - variable: _ZTVNSt6__ndk114error_categoryE (Address: 0x6b64915510)
    - variable: _ZTIN9grpc_core17MessageSizeParserE (Address: 0x6b648f8510)
    - function: _ZN9grpc_core23XdsClusterLocalityStats15AddCallFinishedEb (Address: 0x6b64522778)
    - variable: _ZTSPh (Address: 0x6b6480714c)
    - function: _ZNKSt6__ndk112basic_stringIcNS_11char_traitsIcEENS_9allocatorIcEEE5rfindEPKcmm (Address: 0x6b64734bd4)
    - function: _ZN4absl12lts_2021032417optional_internal13optional_dataIN9grpc_core6XdsApi9LdsUpdate15FilterChainDataELb0EEC2ERKS7_ (Address: 0x6b6451aa80)
    - function: upb_oneofdef_index (Address: 0x6b645b7cc0)
    - function: _ZN9grpc_core17HealthCheckClient9CallState24PullSliceFromRecvMessageEv (Address: 0x6b6446a198)
    - function: _ZN3tsi18SslSessionLRUCache4SizeEv (Address: 0x6b64552ef4)
    - variable: _ZTSZN9grpc_core13ClientChannel17SubchannelWrapper14WatcherWrapper25OnConnectivityStateChangeEvEUlvE_ (Address: 0x6b64773e60)
    - variable: _length_code (Address: 0x6b647c98b0)
    - function: _ZN4absl12lts_2021032413time_internal4cctz10TimeZoneIfD0Ev (Address: 0x6b645f9f64)
    - function: _ZN3re26Regexp10ParseStateD2Ev (Address: 0x6b645a3e18)
    - function: _Z14grpc_fd_createiPKcb (Address: 0x6b64559e70)
    - function: _ZNKSt6__ndk110moneypunctIwLb0EE16do_positive_signEv (Address: 0x6b6471103c)
    - function: _ZN4absl12lts_2021032423inlined_vector_internal7StorageIN9grpc_core6XdsApi9EdsUpdate8PriorityELm2ENSt6__ndk19allocatorIS6_EEE6InsertINS1_20IteratorValueAdapterIS9_PS6_EEEESD_PKS6_T_m (Address: 0x6b644a5980)
    - function: _ZN9grpc_core8channelz14SubchannelNode23UpdateConnectivityStateE23grpc_connectivity_state (Address: 0x6b644666e8)
    - variable: envoy_type_v3_SemanticVersion_msginit (Address: 0x6b648fd690)
    - function: _ZNK9grpc_core13StringMatcher5MatchEN4absl12lts_2021032411string_viewE (Address: 0x6b64538948)
    - function: _Z35grpc_channel_stack_builder_set_nameP26grpc_channel_stack_builderPKc (Address: 0x6b64419ae4)
    - function: _ZNKSt6__ndk18time_putIwNS_19ostreambuf_iteratorIwNS_11char_traitsIwEEEEE6do_putES4_RNS_8ios_baseEwPK2tmcc (Address: 0x6b64710668)
    - function: _ZN31grpc_composite_call_credentials27cancel_get_request_metadataEP29grpc_credentials_mdelem_arrayP10grpc_error (Address: 0x6b64432ab0)
    - function: grpc_server_config_fetcher_destroy (Address: 0x6b64453228)
    - function: _ZN9grpc_core26ExternalAccountCredentials12debug_stringEv (Address: 0x6b6455c7e8)
    - function: upb_strtable_resize (Address: 0x6b645bcd10)
    - function: _ZN9grpc_core14SubchannelCallC2ENS0_4ArgsEPP10grpc_error (Address: 0x6b6440cb48)
    - function: _ZNSt6__ndk16__treeINS_12__value_typeIN4absl12lts_2021032411string_viewEdEENS_19__map_value_compareIS4_S5_NS_4lessIS4_EELb1EEENS_9allocatorIS5_EEE7destroyEPNS_11__tree_nodeIS5_PvEE (Address: 0x6b643f6008)
    - function: _tr_init (Address: 0x6b645848b4)
    - function: _ZNSt6__ndk16locale14__install_ctorERKS0_PNS0_5facetEl (Address: 0x6b64724068)
    - function: _ZNKSt6__ndk110__function6__funcIZN9grpc_core13ClientChannel24ConnectivityWatcherAdderC1EPS3_23grpc_connectivity_stateNS_10unique_ptrINS2_38AsyncConnectivityStateWatcherInterfaceENS2_16OrphanableDeleteEEEEUlvE_NS_9allocatorISB_EEFvvEE6targetERKSt9type_info (Address: 0x6b643f5858)
    - function: _ZNK9grpc_core17XdsHttpFilterImpl12FilterConfig8ToStringEv (Address: 0x6b644e4414)
    - function: _ZN9grpc_core13ClientChannel21ResolverResultHandler12ReturnResultENS_8Resolver6ResultE (Address: 0x6b643f91fc)
    - function: _ZN9grpc_core28ServerAddressWeightAttributeD0Ev (Address: 0x6b644a30b8)
    - variable: envoy_extensions_transport_sockets_tls_v3_CommonTlsContext_CombinedCertificateValidationContext_msginit (Address: 0x6b648fd188)
    - function: _ZNSt6__ndk113basic_istreamIwNS_11char_traitsIwEEErsEPFRS3_S4_E (Address: 0x6b646f62f4)
    - function: _Z52grpc_stats_inc_http2_send_initial_metadata_per_writei (Address: 0x6b64527ca8)
    - function: _ZN9grpc_core13RefCountedPtrI29grpc_tls_certificate_providerED2Ev (Address: 0x6b64489574)
    - function: _ZNSt6__ndk112__do_nothingEPv (Address: 0x6b64713894)
    - function: _ZN9grpc_core8channelz11ChannelNodeD0Ev (Address: 0x6b6442482c)
    - variable: envoy_config_route_v3_RetryPolicy_msginit (Address: 0x6b648fc900)
    - function: _ZN3re28Compiler10CompileSetEPNS_6RegexpENS_3RE26AnchorEl (Address: 0x6b645986cc)
    - function: _ZN4absl12lts_2021032413cord_internal11CordRepRing7DestroyEPS2_ (Address: 0x6b645cc4cc)
    - function: grpcsharp_channel_create_call (Address: 0x6b643e73b0)
    - function: _ZNK9grpc_core12GrpcLbServereqERKS0_ (Address: 0x6b64474070)
    - function: _ZN4absl12lts_2021032419bad_optional_accessD2Ev (Address: 0x6b64600c68)
    - function: _ZN9grpc_core16ResolverRegistry19GetDefaultAuthorityEN4absl12lts_2021032411string_viewE (Address: 0x6b643ff6d4)
    - function: _ZNK9grpc_core6Server28AllocatingRequestMatcherBase19request_queue_countEv (Address: 0x6b64454e4c)
    - function: _Z33grpc_validate_header_key_is_legalRK10grpc_slice (Address: 0x6b64455e40)
    - variable: _ZN9grpc_core23MessageDecompressFilterE (Address: 0x6b648f8318)
    - function: _Z18grpc_base64_decodePKci (Address: 0x6b645501cc)
    - function: _ZNSt6__ndk16__treeINS_12__value_typeINS_4pairINS_12basic_stringIcNS_11char_traitsIcEENS_9allocatorIcEEEES8_EEN9grpc_core14RegisteredCallEEENS_19__map_value_compareIS9_SC_NS_4lessIS9_EELb1EEENS6_ISC_EEE12__find_equalIS9_EERPNS_16__tree_node_baseIPvEERPNS_15__tree_end_nodeISN_EERKT_ (Address: 0x6b64448880)
    - function: _ZN9grpc_core6chttp217StreamFlowControlD0Ev (Address: 0x6b644d2054)
    - variable: _ZTIN9grpc_core33ConnectivityStateWatcherInterfaceE (Address: 0x6b648f2200)
    - function: _ZN9grpc_core14MakeRefCountedINS_30FileWatcherCertificateProviderEJRKNSt6__ndk112basic_stringIcNS2_11char_traitsIcEENS2_9allocatorIcEEEESA_SA_lEEENS_13RefCountedPtrIT_EEDpOT0_ (Address: 0x6b644e2958)
    - function: _ZN9grpc_core24Chttp2IncomingByteStreamC1EP21grpc_chttp2_transportP18grpc_chttp2_streamjj (Address: 0x6b644cc9a8)
    - function: _Z25tsi_ssl_session_cache_refP21tsi_ssl_session_cache (Address: 0x6b644623a0)
    - function: _Z20grpc_http_parser_eofP16grpc_http_parser (Address: 0x6b6452a3e8)
    - function: grpc_tls_credentials_options_set_cert_request_type (Address: 0x6b64562398)
    - function: _ZN4absl12lts_202103247uint128C2Ed (Address: 0x6b645f1d70)
    - function: _ZdlPvSt11align_val_tRKSt9nothrow_t (Address: 0x6b64744764)
    - variable: envoy_admin_v3_SecretsConfigDump_StaticSecret_msginit (Address: 0x6b648face0)
    - function: upb_inttable_init2 (Address: 0x6b645bd87c)
    - variable: _ZNSt6__ndk18ios_base3appE (Address: 0x6b64803b58)
    - variable: grpc_http_server_filter (Address: 0x6b648f8370)
    - function: _ZNK9grpc_core37FileWatcherCertificateProviderFactory6Config8ToStringEv (Address: 0x6b644e1ec4)
    - function: _ZNSt6__ndk120__codecvt_utf8_utf16IDiED0Ev (Address: 0x6b6472f7b8)
    - function: _ZNSt6__ndk16__clocEv (Address: 0x6b64700f70)
    - function: _ZNKSt6__ndk115__codecvt_utf16IDsLb1EE6do_outER9mbstate_tPKDsS5_RS5_PcS7_RS7_ (Address: 0x6b64729800)
    - function: _Z26alts_has_read_frame_lengthP17alts_frame_reader (Address: 0x6b64578190)
    - function: _ZNK4absl12lts_2021032411string_view12find_last_ofES1_m (Address: 0x6b645ec1ec)
    - variable: _ZTSPDi (Address: 0x6b6480722c)
    - variable: _ZTSN9grpc_core37FileWatcherCertificateProviderFactoryE (Address: 0x6b64792a50)
    - variable: _ZTSN9grpc_core8internal31ClientChannelGlobalParsedConfigE (Address: 0x6b64775470)
    - function: _Z18grpc_error_get_intP10grpc_error15grpc_error_intsPl (Address: 0x6b6442a8b0)
    - function: _ZN9grpc_core12XdsBootstrap4NodeD2Ev (Address: 0x6b64504e40)
    - variable: _ZTVNSt6__ndk115__codecvt_utf16IDiLb1EEE (Address: 0x6b649146c8)
    - variable: _ZTIN9grpc_core10RefCountedI42grpc_tls_server_authorization_check_configNS_19PolymorphicRefCountELNS_13UnrefBehaviorE0EEE (Address: 0x6b648fdbb0)
    - function: grpc_tls_credentials_options_set_identity_cert_name (Address: 0x6b6456279c)
    - function: _ZN9grpc_core30FileWatcherCertificateProviderC2ENSt6__ndk112basic_stringIcNS1_11char_traitsIcEENS1_9allocatorIcEEEES7_S7_j (Address: 0x6b6454647c)
    - function: _ZNSt6__ndk113basic_ostreamIwNS_11char_traitsIwEEE6sentryD1Ev (Address: 0x6b646fa718)
    - function: _ZNSt6__ndk16vectorIN9grpc_core4JsonENS_9allocatorIS2_EEE24__emplace_back_slow_pathIJNS_3mapINS_12basic_stringIcNS_11char_traitsIcEENS3_IcEEEES2_NS_4lessISC_EENS3_INS_4pairIKSC_S2_EEEEEEEEEvDpOT_ (Address: 0x6b64424c7c)
    - function: _ZNSt6__ndk16__treeINS_12__value_typeINS_12basic_stringIcNS_11char_traitsIcEENS_9allocatorIcEEEENS_10unique_ptrIN9grpc_core22XdsCertificateProvider23ClusterCertificateStateENS_14default_deleteISB_EEEEEENS_19__map_value_compareIS7_SF_NS_4lessIS7_EELb1EEENS5_ISF_EEE4findIS7_EENS_15__tree_iteratorISF_PNS_11__tree_nodeISF_PvEElEERKT_ (Address: 0x6b645085b8)
    - variable: _ZTSPx (Address: 0x6b648071ac)
    - function: _ZN9grpc_core13ClientChannel27ExternalConnectivityWatcherD2Ev (Address: 0x6b643ea16c)
    - function: _ZN9grpc_core9XdsClient12ChannelState13RetryableCallINS1_12AdsCallStateEED0Ev (Address: 0x6b6451dc28)
    - function: _ZNKSt6__ndk17collateIwE7do_hashEPKwS3_ (Address: 0x6b646fd4cc)
    - function: _Z31grpc_chttp2_hpack_varint_lengthj (Address: 0x6b644dbeb0)
    - function: _Z22grpc_set_resolver_implP28grpc_address_resolver_vtable (Address: 0x6b6452ce00)
    - function: _ZNSt6__ndk16vectorIN9grpc_core13StringMatcherENS_9allocatorIS2_EEE6assignIPS2_EENS_9enable_ifIXaasr21__is_forward_iteratorIT_EE5valuesr16is_constructibleIS2_NS_15iterator_traitsIS9_E9referenceEEE5valueEvE4typeES9_S9_ (Address: 0x6b6448f224)
    - function: _Z24alts_create_frame_writerv (Address: 0x6b64577f78)
    - variable: xds_core_v3_ResourceLocator_msginit (Address: 0x6b648fd738)
    - function: _ZNKSt6__ndk15ctypeIwE5do_isEPKwS3_Pm (Address: 0x6b64725414)
    - function: _Z31grpc_tcp_destroy_and_release_fdP13grpc_endpointPiP12grpc_closure (Address: 0x6b64531a9c)
    - variable: _ZTSNSt6__ndk16locale5facetE (Address: 0x6b64804d50)
    - function: _Z33grpc_resolver_dns_native_shutdownv (Address: 0x6b644a882c)
    - function: _Z26grpc_channel_init_finalizev (Address: 0x6b64448d58)
    - function: _ZN9grpc_core9XdsClient12ChannelState12AdsCallState21AcceptEdsUpdateLockedENSt6__ndk112basic_stringIcNS3_11char_traitsIcEENS3_9allocatorIcEEEElNS3_3mapIS9_NS_6XdsApi15EdsResourceDataENS3_4lessIS9_EENS7_INS3_4pairIKS9_SC_EEEEEE (Address: 0x6b6450e764)
    - variable: _ZTIN9grpc_core37FileWatcherCertificateProviderFactoryE (Address: 0x6b648f91f0)
    - variable: _ZN4absl12lts_2021032413base_internal8SpinLock13kSpinLockHeldE (Address: 0x6b647e0564)
    - variable: envoy_config_core_v3_ExtensionConfigSource_msginit (Address: 0x6b648fb918)
    - function: _ZN9grpc_core10Subchannel22PublishTransportLockedEv (Address: 0x6b644103c4)
    - function: _ZN9grpc_core8channelz11ChannelNodeC1ENSt6__ndk112basic_stringIcNS2_11char_traitsIcEENS2_9allocatorIcEEEEmb (Address: 0x6b6441ceb0)
    - variable: envoy_type_metadata_v3_MetadataKind_Request_msginit (Address: 0x6b647a3740)
    - function: _ZNSt6__ndk16vectorIN9grpc_core4JsonENS_9allocatorIS2_EEEC2ERKS5_ (Address: 0x6b645728b8)
    - function: _Z41grpc_alts_shared_resource_dedicated_startPKc (Address: 0x6b6457a29c)
    - variable: _ZTINSt6__ndk115time_get_bynameIwNS_19istreambuf_iteratorIwNS_11char_traitsIwEEEEEE (Address: 0x6b64914dd0)
    - function: _ZN9grpc_core13ServiceConfig20ParsePerMethodParamsEPK17grpc_channel_args (Address: 0x6b6440a0b4)
    - function: _ZNK3re23RE211ProgramSizeEv (Address: 0x6b645885a0)
    - function: _ZNKSt6__ndk120__codecvt_utf8_utf16IwE6do_outER9mbstate_tPKwS5_RS5_PcS7_RS7_ (Address: 0x6b64729ffc)
    - function: _ZNSt6__ndk16__treeINS_12__value_typeINS_12basic_stringIcNS_11char_traitsIcEENS_9allocatorIcEEEEN9grpc_core29StaticDataCertificateProvider11WatcherInfoEEENS_19__map_value_compareIS7_SB_NS_4lessIS7_EELb1EEENS5_ISB_EEE4findIS7_EENS_15__tree_iteratorISB_PNS_11__tree_nodeISB_PvEElEERKT_ (Address: 0x6b645495ec)
    - function: grpc_server_set_config_fetcher (Address: 0x6b64452fc8)
    - variable: _ZTSNSt6__ndk115__codecvt_utf16IDiLb1EEE (Address: 0x6b64805060)
    - function: _ZNSt6__ndk116__check_groupingERKNS_12basic_stringIcNS_11char_traitsIcEENS_9allocatorIcEEEEPjS8_Rj (Address: 0x6b64715288)
    - variable: google_protobuf_FloatValue_msginit (Address: 0x6b649021a0)
    - function: _ZN4absl12lts_2021032416strings_internal11BigUnsignedILi4EE12AddWithCarryEim (Address: 0x6b645ee5f4)
    - variable: _ZTINSt6__ndk114codecvt_bynameIDsc9mbstate_tEE (Address: 0x6b649152c0)
    - function: _ZNSt6__ndk113basic_ostreamIcNS_11char_traitsIcEEElsEf (Address: 0x6b646f9750)
    - function: gpr_stats_inc (Address: 0x6b645b3788)
    - function: gpr_time_init (Address: 0x6b645b4388)
    - function: _ZNSt6__ndk114__split_bufferIPN3re29WalkStateIiEENS_9allocatorIS4_EEE10push_frontEOS4_ (Address: 0x6b645936ac)
    - function: __cxa_throw (Address: 0x6b647412ac)
    - variable: envoy_config_endpoint_v3_ClusterLoadAssignment_Policy_DropOverload_msginit (Address: 0x6b648fbe18)
    - function: _ZN9grpc_core29StaticDataCertificateProviderC1ENSt6__ndk112basic_stringIcNS1_11char_traitsIcEENS1_9allocatorIcEEEEN4absl12lts_2021032413InlinedVectorINS_14PemKeyCertPairELm1ENS5_ISB_EEEE (Address: 0x6b645460a4)
    - function: _ZNK9grpc_core13ServerAddress8ToStringEv (Address: 0x6b64408cd8)
    - function: _ZSt17current_exceptionv (Address: 0x6b646f03f0)
    - function: upb_msg_discardunknown (Address: 0x6b645c156c)
    - function: _Z38grpc_chttp2_list_pop_stalled_by_streamP21grpc_chttp2_transportPP18grpc_chttp2_stream (Address: 0x6b644dba34)
    - function: _ZNKSt6__ndk115__codecvt_utf16IDiLb1EE6do_outER9mbstate_tPKDiS5_RS5_PcS7_RS7_ (Address: 0x6b64729d04)
    - function: _Z19grpc_timer_heap_popP15grpc_timer_heap (Address: 0x6b64537188)
    - function: _Z26grpc_slice_from_cpp_stringNSt6__ndk112basic_stringIcNS_11char_traitsIcEENS_9allocatorIcEEEE (Address: 0x6b6443c13c)
    - variable: envoy_config_route_v3_RateLimit_Action_msginit (Address: 0x6b648fcb00)
    - variable: envoy_config_core_v3_GrpcService_GoogleGrpc_CallCredentials_MetadataCredentialsFromPlugin_msginit (Address: 0x6b648fba88)
    - function: _Z11gpr_memrchrPKvim (Address: 0x6b645b3148)
    - function: _ZN4absl12lts_2021032423inlined_vector_internal7StorageIN9grpc_core14PemKeyCertPairELm1ENSt6__ndk19allocatorIS4_EEE8InitFromERKS8_ (Address: 0x6b64507de8)
    - variable: grpc_stream_compression_identity_vtable (Address: 0x6b648f9b08)
    - variable: _ZTVNSt6__ndk115__codecvt_utf16IwLb0EEE (Address: 0x6b64914448)
    - variable: envoy_config_core_v3_SocketAddress_msginit (Address: 0x6b648fb4b0)
    - function: grpc_slice_buffer_pop (Address: 0x6b6443d7a4)
    - function: _ZNSt6__ndk17codecvtIDic9mbstate_tED2Ev (Address: 0x6b646fd24c)
    - function: _ZN31grpc_composite_call_credentials20get_request_metadataEP19grpc_polling_entity26grpc_auth_metadata_contextP29grpc_credentials_mdelem_arrayP12grpc_closurePP10grpc_error (Address: 0x6b6443297c)
    - variable: envoy_type_matcher_v3_StringMatcher_msginit (Address: 0x6b648fd430)
    - function: _ZNSt6__ndk115basic_stringbufIcNS_11char_traitsIcEENS_9allocatorIcEEED2Ev (Address: 0x6b6458bf94)
    - variable: grpc_cq_pluck_trace (Address: 0x6b64923d90)
    - function: _ZNSt6__ndk16__treeINS_12__value_typeItN9grpc_core6XdsApi9LdsUpdate14FilterChainMap24FilterChainDataSharedPtrEEENS_19__map_value_compareItS7_NS_4lessItEELb1EEENS_9allocatorIS7_EEE7destroyEPNS_11__tree_nodeIS7_PvEE (Address: 0x6b644b237c)
    - variable: envoy_config_core_v3_TcpKeepalive_msginit (Address: 0x6b648fb4d0)
    - function: _ZN9grpc_core9XdsClient12ChannelState12LrsCallState16OnStatusReceivedEPvP10grpc_error (Address: 0x6b64512320)
    - function: _Z27grpc_polling_entity_pollsetP19grpc_polling_entity (Address: 0x6b6442c13c)
    - variable: grpc_tcp_server_impl (Address: 0x6b64924d30)
    - variable: _ZTSN3re214SimplifyWalkerE (Address: 0x6b647cd8b0)
    - variable: _ZTIPg (Address: 0x6b64915fc0)
    - function: _ZN3re28Compiler20CachedRuneByteSuffixEhhbi (Address: 0x6b645962a4)
    - function: _ZN4absl12lts_202103249IsUnknownERKNS0_6StatusE (Address: 0x6b645c3570)
    - function: _upb_map_new (Address: 0x6b645bc780)
    - function: _Z50grpc_channel_stack_builder_create_iterator_at_lastP26grpc_channel_stack_builder (Address: 0x6b6441999c)
    - variable: _ZNSt6__ndk114numeric_limitsIN4absl12lts_202103247uint128EE14is_specializedE (Address: 0x6b647e0680)
    - function: _ZN4absl12lts_202103249ConditionC2EPFbPvES2_ (Address: 0x6b645df8f4)
    - function: _ZNKSt6__ndk17num_putIcNS_19ostreambuf_iteratorIcNS_11char_traitsIcEEEEE6do_putES4_RNS_8ios_baseEcPKv (Address: 0x6b64707a4c)
    - function: _ZN3re24Prog10CompileSetEPNS_6RegexpENS_3RE26AnchorEl (Address: 0x6b645988a8)
    - function: _Z29grpc_determine_iomgr_platformv (Address: 0x6b6452c9d8)
    - function: _ZN9grpc_core14WorkSerializerC1Ev (Address: 0x6b6442db8c)
    - function: _ZN3re26Regexp10ParseState20DoLeftParenNoCaptureEv (Address: 0x6b645a4d7c)
    - variable: _ZTVNSt6__ndk16locale5facetE (Address: 0x6b64913da0)
    - function: _ZN3re23DFA11CachedStateEPiij (Address: 0x6b6459af3c)
    - function: _ZN9grpc_core9XdsClient12ChannelState12AdsCallState21AcceptRdsUpdateLockedENSt6__ndk112basic_stringIcNS3_11char_traitsIcEENS3_9allocatorIcEEEElNS3_3mapIS9_NS_6XdsApi15RdsResourceDataENS3_4lessIS9_EENS7_INS3_4pairIKS9_SC_EEEEEE (Address: 0x6b6450ca74)
    - function: _ZNSt6__ndk110__time_putD1Ev (Address: 0x6b6470fc80)
    - variable: _ZTIN9grpc_core23MessageSizeParsedConfigE (Address: 0x6b648f8550)
    - function: _ZN3re23RE27ExtractERKNS_11StringPieceERKS0_S3_PNSt6__ndk112basic_stringIcNS6_11char_traitsIcEENS6_9allocatorIcEEEE (Address: 0x6b6458a040)
    - function: _Z25grpc_http2_encode_timeoutlPc (Address: 0x6b64551254)
    - function: __cxa_guard_abort (Address: 0x6b64741b98)
    - function: _ZN3tsi18SslSessionLRUCache6RemoveEPNS0_4NodeE (Address: 0x6b64553000)
    - function: _ZN9grpc_core9XdsClient12ChannelStateD0Ev (Address: 0x6b645092b0)
    - function: _ZN9grpc_core10Subchannel6CreateENSt6__ndk110unique_ptrINS_19SubchannelConnectorENS_16OrphanableDeleteEEEPK17grpc_channel_args (Address: 0x6b6440f098)
    - function: _ZN9grpc_core6chttp224TransportFlowControlBase23TestOnlyForceHugeWindowEv (Address: 0x6b644d2304)
    - function: _ZN9grpc_core37FileWatcherCertificateProviderFactory6ConfigD2Ev (Address: 0x6b644e2d0c)
    - function: _ZN9grpc_core9XdsClient12ChannelState13RetryableCallINS1_12AdsCallStateEE12OnRetryTimerEPvP10grpc_error (Address: 0x6b6451d84c)
    - function: _ZNSt8bad_castD1Ev (Address: 0x6b64744b90)
    - variable: grpc_trace_chttp2_hpack_parser (Address: 0x6b6491f5d0)
    - function: _ZNK4absl12lts_2021032416strings_internal11BigUnsignedILi84EE4sizeEv (Address: 0x6b645ef75c)
    - function: _ZNKSt6__ndk120__time_get_c_storageIcE7__weeksEv (Address: 0x6b6472b540)
    - function: _ZN9grpc_core29FakeResolverResponseGenerator23SetReresolutionResponseENS_8Resolver6ResultE (Address: 0x6b644aa9a8)
    - function: _ZNSt6__ndk16__treeINS_12__value_typeIPN9grpc_core15XdsLocalityNameEmEENS_19__map_value_compareIS4_S5_NS3_4LessELb1EEENS_9allocatorIS5_EEE14__erase_uniqueIS4_EEmRKT_ (Address: 0x6b644a6a10)
    - variable: envoy_type_matcher_v3_number_proto_upbdefinit (Address: 0x6b649221f0)
    - variable: _ZTIN9grpc_core6chttp220TransportFlowControlE (Address: 0x6b648f8c20)
    - function: _ZN9grpc_core13ClientChannel17SubchannelWrapper12channel_argsEv (Address: 0x6b643f8b28)
    - function: upb_msgdef_oneofcount (Address: 0x6b645b7b08)
    - variable: _ZTSa (Address: 0x6b64807154)
    - function: _ZN3re26Regexp5QuestEPS0_NS0_10ParseFlagsE (Address: 0x6b6458f358)
    - function: _Z36grpc_chttp2_hpack_compressor_destroyP28grpc_chttp2_hpack_compressor (Address: 0x6b644d3914)
    - function: _ZN3tsi18SslSessionLRUCache10FindLockedERK10grpc_slice (Address: 0x6b64552f30)
    - variable: _ZTIN9grpc_core19LoadBalancingPolicy17MetadataInterfaceE (Address: 0x6b648f2568)
    - function: _ZNSt6__ndk16localeC2EPKc (Address: 0x6b64723bbc)
    - function: _Z19grpc_tcp_server_refP15grpc_tcp_server (Address: 0x6b64533b80)
    - function: _ZN9grpc_core14SubchannelCall17IncrementRefCountEv (Address: 0x6b6440cf68)
    - variable: _ZTIN9grpc_core19XdsClusterDropStatsE (Address: 0x6b648f98f0)
    - function: _ZNSt10bad_typeidC1Ev (Address: 0x6b64744bc4)
    - function: _Z17gpr_reverse_bytesPci (Address: 0x6b645b2b64)
    - function: _ZN9grpc_core8channelz11ChannelNode21RemoveChildSubchannelEl (Address: 0x6b6441e99c)
    - variable: udpa_annotations_versioning_proto_upbdefinit (Address: 0x6b649215f8)
    - function: _ZN4absl12lts_2021032417optional_internal23optional_data_dtor_baseINS0_13InlinedVectorIN9grpc_core14PemKeyCertPairELm1ENSt6__ndk19allocatorIS5_EEEELb0EED2Ev (Address: 0x6b6456567c)
    - function: _ZNSt6__ndk113basic_ostreamIcNS_11char_traitsIcEEElsEj (Address: 0x6b645cbd00)
    - function: _ZNSt6__ndk115basic_streambufIwNS_11char_traitsIwEEE4syncEv (Address: 0x6b646f2bc4)
    - variable: _ZTIZN9grpc_core13ClientChannel17SubchannelWrapper14WatcherWrapper25OnConnectivityStateChangeEvEUlvE_ (Address: 0x6b648f2408)
    - function: _ZNSt6__ndk112__hash_tableINS_17__hash_value_typeINS_12basic_stringIcNS_11char_traitsIcEENS_9allocatorIcEEEEPKN4absl12lts_2021032413time_internal4cctz9time_zone4ImplEEENS_22__unordered_map_hasherIS7_SG_NS_4hashIS7_EELb1EEENS_21__unordered_map_equalIS7_SG_NS_8equal_toIS7_EELb1EEENS5_ISG_EEE6rehashEm (Address: 0x6b645f8c70)
    - function: grpc_slice_sub (Address: 0x6b6443c4a8)
    - function: _ZNK9grpc_core8Executor10IsThreadedEv (Address: 0x6b6452b5b0)
    - function: _ZNKSt6__ndk110__function6__funcIPFP17grpc_channel_argsS3_PP10grpc_errorENS_9allocatorIS8_EES7_E7__cloneEv (Address: 0x6b64414814)
    - function: _ZN4absl12lts_2021032417internal_statusor6Helper5CrashERKNS0_6StatusE (Address: 0x6b645b1c14)
    - function: upb_enumdef_numvals (Address: 0x6b645b7424)
    - function: _ZNKSt6__ndk112ctype_bynameIwE10do_toupperEw (Address: 0x6b64726994)
    - function: _ZN9grpc_core14WorkSerializerD2Ev (Address: 0x6b6442dbe8)
    - function: _ZNKSt6__ndk117moneypunct_bynameIcLb0EE13do_pos_formatEv (Address: 0x6b64711810)
    - variable: google_protobuf_OneofOptions_msginit (Address: 0x6b649025e8)
    - variable: envoy_config_metrics_v3_StatsSink_msginit (Address: 0x6b648fc1f8)
    - variable: _ZTSN9grpc_core9XdsClient27RouteConfigWatcherInterfaceE (Address: 0x6b6478a340)
    - variable: _ZNSt6__ndk114numeric_limitsIN4absl12lts_202103247uint128EE11round_styleE (Address: 0x6b647e0690)
    - function: _ZNKSt6__ndk114__codecvt_utf8IDiE5do_inER9mbstate_tPKcS5_RS5_PDiS7_RS7_ (Address: 0x6b64728f34)
    - function: _ZNSt6__ndk112basic_stringIwNS_11char_traitsIwEENS_9allocatorIwEEE6insertIPKwEENS_9enable_ifIXaasr21__is_forward_iteratorIT_EE5valuesr38__libcpp_string_gets_noexcept_iteratorISA_EE5valueENS_11__wrap_iterIPwEEE4typeENSB_IS8_EESA_SA_ (Address: 0x6b64737b58)
    - function: _ZN4absl12lts_2021032414GenericCompareIiNS0_4CordEEET_RKS2_RKT0_m (Address: 0x6b645cb494)
    - function: _ZN9grpc_core37FileWatcherCertificateProviderFactory6Config5ParseERKNS_4JsonEPP10grpc_error (Address: 0x6b644e22b0)
    - variable: _ZTV12ExecCtxPluck (Address: 0x6b648f4308)
    - variable: _ZTSN9grpc_core20InternallyRefCountedINS_9XdsClient12ChannelState12AdsCallStateEEE (Address: 0x6b64796270)
    - function: _ZNK9grpc_core18XdsHttpFaultFilter20IsSupportedOnServersEv (Address: 0x6b64558e70)
    - function: _Z32grpc_security_connector_from_argPK8grpc_arg (Address: 0x6b64436908)
    - variable: _ZN4absl12lts_2021032419str_format_internal31FormatConversionCharSetInternal9kIntegralE (Address: 0x6b647daea8)
    - function: _ZNSt6__ndk117__assoc_sub_state28set_exception_at_thread_exitESt13exception_ptr (Address: 0x6b64740330)
    - function: _ZNSt6__ndk113random_deviceD2Ev (Address: 0x6b64731a14)
    - function: _ZN9grpc_core13ClientChannel26ClientChannelControlHelper16CreateSubchannelENS_13ServerAddressERK17grpc_channel_args (Address: 0x6b643f73bc)
    - variable: _ZTSN9grpc_core10RefCountedI23grpc_security_connectorNS_19PolymorphicRefCountELNS_13UnrefBehaviorE0EEE (Address: 0x6b6477b020)
    - function: _ZNK4absl12lts_202103244Cord15CompareSlowPathERKS1_mm (Address: 0x6b645caf18)
    - variable: google_protobuf_StringValue_msginit (Address: 0x6b64902230)
    - function: upb_msgdef_ntof (Address: 0x6b645b7900)
    - function: _ZNSt6__ndk112system_errorC2EiRKNS_14error_categoryEPKc (Address: 0x6b6473eec4)
    - function: _ZNSt6__ndk13mapIPKcNS_10unique_ptrIN9grpc_core13ServerAddress18AttributeInterfaceENS_14default_deleteIS6_EEEENS_4lessIS2_EENS_9allocatorINS_4pairIKS2_S9_EEEEED2Ev (Address: 0x6b643f43a0)
    - variable: _ZTSN9grpc_core10RefCountedINS_13ClientChannel16LoadBalancedCallENS_19PolymorphicRefCountELNS_13UnrefBehaviorE2EEE (Address: 0x6b64773b20)
    - variable: _ZTSNSt6__ndk110__function6__baseIFNS_10unique_ptrIN4absl12lts_2021032413time_internal4cctz14ZoneInfoSourceENS_14default_deleteIS7_EEEERKNS_12basic_stringIcNS_11char_traitsIcEENS_9allocatorIcEEEEEEE (Address: 0x6b647e10c0)
    - variable: _ZTSN9grpc_core20InternallyRefCountedINS_24CertificateProviderStoreEEE (Address: 0x6b647965e0)
    - function: _ZNKSt6__ndk115__codecvt_utf16IwLb0EE16do_always_noconvEv (Address: 0x6b64729208)
    - function: _ZN9grpc_core6chttp217StreamFlowControl10RecvUpdateEj (Address: 0x6b644d21d8)
    - function: _ZN9grpc_core8Executor4InitEv (Address: 0x6b6452af0c)
    - function: _Z18grpc_error_get_strP10grpc_error15grpc_error_strsP10grpc_slice (Address: 0x6b6442a97c)
    - variable: _ZTI23grpc_plugin_credentials (Address: 0x6b648f3b70)
    - function: _ZN3re23DFA8RWLockerC1EPNS_5MutexE (Address: 0x6b6459be00)
    - function: _ZNSt6__ndk119__shared_weak_countD0Ev (Address: 0x6b64730f10)
    - function: _Z31grpc_chttp2_header_parser_parsePvP21grpc_chttp2_transportP18grpc_chttp2_streamRK10grpc_slicei (Address: 0x6b644d5634)
    - variable: validate_DoubleRules_msginit (Address: 0x6b648fe6e0)
    - function: grpc_header_key_is_legal (Address: 0x6b64456048)
    - function: _ZN4absl12lts_2021032419ToInt64MicrosecondsENS0_8DurationE (Address: 0x6b645e2ca4)
    - function: _ZN4absl12lts_2021032423inlined_vector_internal17ConstructElementsINSt6__ndk19allocatorIN9grpc_core6XdsApi9EdsUpdate8PriorityEEEPS8_NS1_20IteratorValueAdapterIS9_PKS8_EEmEEvPT_T0_PT1_T2_ (Address: 0x6b6451b998)
    - variable: _ZNSt6__ndk114__num_get_base5__srcE (Address: 0x6b64804390)
    - variable: google_protobuf_GeneratedCodeInfo_Annotation_msginit (Address: 0x6b64902710)
    - function: _ZNSt6__ndk16vectorIN9grpc_core6XdsApi9RdsUpdate11VirtualHostENS_9allocatorIS4_EEE10deallocateEv (Address: 0x6b644b4d94)
    - function: _ZN3re214CoalesceWalker11CanCoalesceEPNS_6RegexpES2_ (Address: 0x6b645ae8cc)
    - variable: _ZTSNSt6__ndk115time_get_bynameIcNS_19istreambuf_iteratorIcNS_11char_traitsIcEEEEEE (Address: 0x6b64805e00)
    - function: _ZNSt6__ndk119__libcpp_snprintf_lEPcmP10__locale_tPKcz (Address: 0x6b64705df0)
    - function: _ZNSt6__ndk112basic_stringIwNS_11char_traitsIwEENS_9allocatorIwEEE23__append_forward_unsafeIPwEERS5_T_S9_ (Address: 0x6b64730b14)
    - function: upb_inttable_lookup (Address: 0x6b645bdd7c)
    - function: _Z44grpc_set_socket_ipv6_recvpktinfo_if_possiblei (Address: 0x6b6442c518)
    - function: _ZNSt6__ndk113basic_ostreamIwNS_11char_traitsIwEEElsEPFRS3_S4_E (Address: 0x6b646fa7c0)
    - function: _ZN3re23RE23Arg11parse_ucharEPKcmPv (Address: 0x6b6458aa1c)
    - function: _ZN9grpc_core6chttp220TransportFlowControlC1EPK21grpc_chttp2_transportb (Address: 0x6b644d108c)
    - function: _ZN9grpc_core17HealthCheckClientD1Ev (Address: 0x6b64468658)
    - function: _ZN4absl12lts_2021032423inlined_vector_internal7StorageIN9grpc_core6XdsApi9EdsUpdate8PriorityELm2ENSt6__ndk19allocatorIS6_EEE15EmplaceBackSlowIJEEERS6_DpOT_ (Address: 0x6b644a54b8)
    - function: _ZN4absl12lts_2021032416HexStringToBytesENS0_11string_viewE (Address: 0x6b645e7f94)
    - function: _ZN4absl12lts_2021032419str_format_internal29FormatConversionCharToConvIntEc (Address: 0x6b645db394)
    - function: _ZN9grpc_core32InsecureChannelSecurityConnector15add_handshakersEPK17grpc_channel_argsP16grpc_pollset_setPNS_16HandshakeManagerE (Address: 0x6b6454c564)
    - function: _ZNSt14overflow_errorD0Ev (Address: 0x6b64744abc)
    - variable: _ZTVNSt6__ndk120__codecvt_utf8_utf16IDiEE (Address: 0x6b649147c8)
    - variable: _ZTVN9grpc_core33FaultInjectionServiceConfigParserE (Address: 0x6b648f81e0)
    - function: _Z29grpc_tcp_server_port_fd_countP15grpc_tcp_serverj (Address: 0x6b64533b58)
    - function: _ZN9grpc_core6Server18HasOpenConnectionsEv (Address: 0x6b6444efd4)
    - variable: grpc_trace_stream_refcount (Address: 0x6b6491f4a0)
    - function: _ZN3re23RE23Arg19parse_ulonglong_hexEPKcmPv (Address: 0x6b6458bba4)
    - function: _ZNK9grpc_core20XdsLocalityAttribute4CopyEv (Address: 0x6b644a2e2c)
    - function: _ZN9grpc_core29FakeResolverResponseGenerator15SetFakeResolverENS_13RefCountedPtrINS_12FakeResolverEEE (Address: 0x6b644a9e54)
    - variable: _ZTSNSt6__ndk115time_get_bynameIwNS_19istreambuf_iteratorIwNS_11char_traitsIwEEEEEE (Address: 0x6b64805ea0)
    - function: _ZNSt6__ndk16vectorINS_10unique_ptrIN9grpc_core20ProxyMapperInterfaceENS_14default_deleteIS3_EEEENS_9allocatorIS6_EEE24__emplace_back_slow_pathIJS6_EEEvDpOT_ (Address: 0x6b643fe060)
    - function: _ZN43grpc_service_account_jwt_access_credentials12debug_stringEv (Address: 0x6b6453e9a8)
    - function: _ZNSt6__ndk112basic_stringIcNS_11char_traitsIcEENS_9allocatorIcEEEC1ERKS5_mmRKS4_ (Address: 0x6b64732480)
    - function: _ZN4absl12lts_2021032413time_internal4cctz19FixedOffsetFromNameERKNSt6__ndk112basic_stringIcNS3_11char_traitsIcEENS3_9allocatorIcEEEEPNS3_6chrono8durationIlNS3_5ratioILl1ELl1EEEEE (Address: 0x6b645f7354)
    - variable: _ZTSNSt6__ndk115messages_bynameIcEE (Address: 0x6b64806400)
    - function: _ZN3re214LookupCaseFoldEPKNS_8CaseFoldEii (Address: 0x6b645a4140)
    - function: _ZN3re26Regexp6WalkerINS_4FragEE12WalkInternalEPS0_S2_b (Address: 0x6b64598fe0)
    - function: _ZNK3re211StringPiece4findEcm (Address: 0x6b64593f50)
    - function: _ZN9grpc_core28FaultInjectionFilterShutdownEv (Address: 0x6b644bc6b0)
    - function: _ZNK4absl12lts_202103244Cord7SubcordEmm (Address: 0x6b645c6dac)
    - function: _ZNSt6__ndk113basic_istreamIcNS_11char_traitsIcEEErsERf (Address: 0x6b646f422c)
    - function: _ZNK3re23RE220ReverseProgramFanoutEPNSt6__ndk16vectorIiNS1_9allocatorIiEEEE (Address: 0x6b64588838)
    - function: grpc_slice_from_static_buffer (Address: 0x6b6443bae4)
    - function: _ZN4absl12lts_2021032413InternalErrorENS0_11string_viewE (Address: 0x6b645c3278)
    - function: _ZNSt6__ndk17codecvtIwc9mbstate_tEC2EPKcm (Address: 0x6b647198c4)
    - variable: _ZTIN9grpc_core9XdsClient24EndpointWatcherInterfaceE (Address: 0x6b648f71d8)
    - variable: _ZNSt6__ndk18ios_base10scientificE (Address: 0x6b64803b20)
    - function: _Z24grpc_pollset_set_destroyP16grpc_pollset_set (Address: 0x6b6442c2f8)
    - function: _ZNKSt6__ndk18time_getIwNS_19istreambuf_iteratorIwNS_11char_traitsIwEEEEE11__get_year4ERiRS4_S4_RjRKNS_5ctypeIwEE (Address: 0x6b6470d324)
    - function: _Z28grpc_metadata_batch_add_headP19grpc_metadata_batchP18grpc_linked_mdelem11grpc_mdelem (Address: 0x6b644595e0)
    - variable: _ZN4absl12lts_2021032419str_format_internal31FormatConversionCharSetInternal1dE (Address: 0x6b647dae20)
    - function: upb_status_seterrmsg (Address: 0x6b645bfeac)
    - function: _Z45grpc_message_compression_algorithm_from_sliceRK10grpc_slice (Address: 0x6b645258a8)
    - function: _ZN4absl12lts_2021032419str_format_internal13FormatArgImpl8DispatchIeEEbNS2_4DataENS1_24FormatConversionSpecImplEPv (Address: 0x6b645d2030)
    - function: _ZN4absl12lts_2021032413time_internal4cctz6detail4impl5n_secEllllll (Address: 0x6b645e5b30)
    - variable: _ZTIN3re214CoalesceWalkerE (Address: 0x6b648ffb40)
    - variable: _ZTS14TlsCredentials (Address: 0x6b647becc0)
    - variable: _ZTSNSt6__ndk115__codecvt_utf16IwLb0EEE (Address: 0x6b64804f70)
    - function: _ZN9grpc_core6Server11AddListenerENSt6__ndk110unique_ptrINS0_17ListenerInterfaceENS_16OrphanableDeleteEEE (Address: 0x6b6444e3bc)
    - function: upb_mapiter_next (Address: 0x6b645c13e8)
    - variable: _ZTSN9grpc_core9XdsClient12ChannelStateE (Address: 0x6b647960f0)
    - function: _ZN3re26RegexpC2ENS_8RegexpOpENS0_10ParseFlagsE (Address: 0x6b6458e4f4)
    - variable: _ZTSPt (Address: 0x6b64807170)
    - function: _ZNSt6__ndk16__treeINS_12__value_typeINS_12basic_stringIcNS_11char_traitsIcEENS_9allocatorIcEEEENS_10unique_ptrIN9grpc_core9XdsClient12ChannelState12AdsCallState13ResourceStateENS9_16OrphanableDeleteEEEEENS_19__map_value_compareIS7_SG_NS_4lessIS7_EELb1EEENS5_ISG_EEE7destroyEPNS_11__tree_nodeISG_PvEE (Address: 0x6b645197f8)
    - function: _ZN9grpc_core26FakeResolverResponseSetter29SetReresolutionResponseLockedEv (Address: 0x6b644aa560)
    - function: _ZN3re26Regexp14SimplifyRegexpERKNS_11StringPieceENS0_10ParseFlagsEPNSt6__ndk112basic_stringIcNS5_11char_traitsIcEENS5_9allocatorIcEEEEPNS_12RegexpStatusE (Address: 0x6b645addd8)
    - function: _ZN9grpc_core13RefCountedPtrINS_23SubchannelPoolInterfaceEED2Ev (Address: 0x6b6440ed88)
    - function: _ZN9grpc_core14DynamicFilters4CallC1ENS1_4ArgsEPP10grpc_error (Address: 0x6b643f9730)
    - function: _ZN3re23RE23Arg20parse_longlong_octalEPKcmPv (Address: 0x6b6458bb8c)
    - function: _ZNSt6__ndk16vectorIN9grpc_core6XdsApi9LdsUpdate21HttpConnectionManager10HttpFilterENS_9allocatorIS5_EEE24__emplace_back_slow_pathIJS5_EEEvDpOT_ (Address: 0x6b644fa870)
    - function: _ZN4absl12lts_202103245Mutex17IncrementSynchSemEPS1_PNS0_13base_internal14PerThreadSynchE (Address: 0x6b645db9b0)
    - function: _Z31grpc_resource_user_free_threadsP18grpc_resource_useri (Address: 0x6b6452ec9c)
    - function: _ZNKSt6__ndk115__codecvt_utf16IDiLb0EE5do_inER9mbstate_tPKcS5_RS5_PDiS7_RS7_ (Address: 0x6b64729ad8)
    - variable: _ZTIN9grpc_core10RefCountedINS_8internal23ServerRetryThrottleDataENS_19PolymorphicRefCountELNS_13UnrefBehaviorE0EEE (Address: 0x6b648f3100)
    - function: gpr_time_0 (Address: 0x6b645b3b40)
    - function: _ZN4absl12lts_2021032423inlined_vector_internal7StorageINSt6__ndk110unique_ptrIN9grpc_core19ServiceConfigParser12ParsedConfigENS3_14default_deleteIS7_EEEELm4ENS3_9allocatorISA_EEE6AssignINS1_20IteratorValueAdapterISC_NS3_13move_iteratorIPSA_EEEEEEvT_m (Address: 0x6b6440b5c0)
    - function: _ZN3re26Regexp10ParseState8DoFinishEv (Address: 0x6b645a50f8)
    - variable: envoy_config_route_v3_RetryPolicy_RetryHostPredicate_msginit (Address: 0x6b648fc940)
    - function: grpc_channelz_get_subchannel (Address: 0x6b64427f14)
    - variable: _ZTSNSt6__ndk118__time_get_storageIwEE (Address: 0x6b64805ef0)
    - function: _ZNKSt6__ndk110__function6__funcIN4absl12lts_2021032419functional_internal11FrontBinderIMN9grpc_core22XdsCertificateProviderEFvNS_12basic_stringIcNS_11char_traitsIcEENS_9allocatorIcEEEEbbEJPS7_EEENSB_ISH_EEFvSD_bbEE7__cloneEv (Address: 0x6b64508474)
    - function: _Z28grpc_max_age_filter_shutdownv (Address: 0x6b644c1f1c)
    - function: _ZN4absl12lts_2021032419str_format_internal17FormatConvertImplEaNS1_24FormatConversionSpecImplEPNS1_14FormatSinkImplE (Address: 0x6b645cffac)
    - variable: _ZTSN3tsi18SslSessionLRUCacheE (Address: 0x6b6479f1d0)
    - function: _ZNKSt6__ndk18messagesIcE7do_openERKNS_12basic_stringIcNS_11char_traitsIcEENS_9allocatorIcEEEERKNS_6localeE (Address: 0x6b647196f8)
    - function: _ZNK9grpc_core9XdsClient12ChannelState12LrsCallState22IsCurrentCallOnChannelEv (Address: 0x6b64512bd8)
    - variable: _ZTIN26grpc_server_config_fetcher16WatcherInterfaceE (Address: 0x6b648f87f8)
    - function: _Z21grpc_error_get_statusP10grpc_errorlP16grpc_status_codeP10grpc_sliceP21grpc_http2_error_codePPKc (Address: 0x6b644575e4)
    - function: _ZNSt6__ndk114__split_bufferIN9grpc_core6XdsApi9LdsUpdate21HttpConnectionManager10HttpFilterERNS_9allocatorIS5_EEED2Ev (Address: 0x6b644faa70)
    - function: _ZNSt6__ndk115basic_streambufIwNS_11char_traitsIwEEE7pubsyncEv (Address: 0x6b646f27dc)
    - function: _ZNSt6__ndk113basic_ostreamIwNS_11char_traitsIwEEE6sentryC2ERS3_ (Address: 0x6b646fa6cc)
    - function: _ZN4absl12lts_2021032419str_format_internal17FormatRawSinkImpl5FlushINS1_13BufferRawSinkEEEvPvNS0_11string_viewE (Address: 0x6b645d43f8)
    - function: _ZN4absl12lts_2021032417optional_internal18optional_data_baseINS0_13InlinedVectorIN9grpc_core14PemKeyCertPairELm1ENSt6__ndk19allocatorIS5_EEEEE6assignIRKS9_EEvOT_ (Address: 0x6b64544fac)
    - function: _ZNSt6__ndk14stoiERKNS_12basic_stringIcNS_11char_traitsIcEENS_9allocatorIcEEEEPmi (Address: 0x6b6473a284)
    - function: _Z31gsec_aead_crypter_encrypt_iovecP17gsec_aead_crypterPKhmPK5iovecmS5_mS3_PmPPc (Address: 0x6b64576f68)
    - function: _ZN9grpc_core6chttp228TransportFlowControlDisabled14StreamSentDataEl (Address: 0x6b644d22e4)
    - function: _Z41grpc_chttp2_rst_stream_parser_begin_frameP29grpc_chttp2_rst_stream_parserjh (Address: 0x6b644d35bc)
    - function: _ZN9grpc_core13ClientChannel17SubchannelWrapper14WatcherWrapper25OnConnectivityStateChangeEv (Address: 0x6b643f4720)
    - function: _ZN9grpc_core8channelz10ServerNodeD0Ev (Address: 0x6b6441ec64)
    - function: _ZNSt6__ndk113basic_istreamIcNS_11char_traitsIcEEErsERj (Address: 0x6b646f3bd8)
    - variable: envoy_service_discovery_v3_discovery_proto_upbdefinit (Address: 0x6b64920fb8)
    - function: _ZN9grpc_core4Json8MoveFromEOS0_ (Address: 0x6b6440b368)
    - function: _ZN4absl12lts_2021032423inlined_vector_internal7StorageINSt6__ndk112basic_stringIcNS3_11char_traitsIcEENS3_9allocatorIcEEEELm8ENS7_IS9_EEE15DestroyContentsEv (Address: 0x6b645007b8)
    - variable: _ZTI31grpc_composite_call_credentials (Address: 0x6b648f3a60)
    - variable: _ZNSt6__ndk17codecvtIwc9mbstate_tE2idE (Address: 0x6b64928d98)
    - function: _ZN9grpc_core13ClientChannel16LoadBalancedCall8Metadata5eraseENS_19LoadBalancingPolicy17MetadataInterface8iteratorE (Address: 0x6b643f61b0)
    - function: _Z29grpc_stats_inc_tcp_read_offeri (Address: 0x6b64527c9c)
    - function: _Z22grpc_endpoint_get_peerP13grpc_endpoint (Address: 0x6b6452ae84)
    - function: _ZN9grpc_callD2Ev (Address: 0x6b64442f44)
    - function: _ZN9grpc_core32MultiProducerSingleConsumerQueue14PopAndCheckEndEPb (Address: 0x6b645b5900)
    - variable: _ZNSt6__ndk18ios_base9showpointE (Address: 0x6b64803b28)
    - function: _ZN4absl12lts_2021032416numbers_internal17safe_strto32_baseENS0_11string_viewEPii (Address: 0x6b645e92ac)
    - function: _ZNSt6__ndk16vectorIN4absl12lts_2021032411string_viewENS_9allocatorIS3_EEE24__emplace_back_slow_pathIJRA17_KcEEEvDpOT_ (Address: 0x6b64575ecc)
    - function: _ZN4absl12lts_2021032417internal_statusor12StatusOrDataIN9grpc_core3URIEE6AssignIS4_EEvOT_ (Address: 0x6b6446be78)
    - function: _Z15grpc_dump_sliceRK10grpc_slicej (Address: 0x6b6443f97c)
    - function: _ZSt17__throw_bad_allocv (Address: 0x6b64731918)
    - function: _ZN19grpc_deadline_stateD1Ev (Address: 0x6b64412ba0)
    - function: _ZN9grpc_core24Chttp2IncomingByteStreamD0Ev (Address: 0x6b644cd88c)
    - function: _ZNK4absl12lts_2021032416strings_internal8SplitterINS1_13MaxSplitsImplINS0_6ByCharEEENS0_10AllowEmptyENS0_11string_viewEEcvNSt6__ndk14pairIT_T0_EEIS7_S7_EEv (Address: 0x6b6446024c)
    - function: _ZN9grpc_core26ExternalAccountCredentialsD2Ev (Address: 0x6b6455c75c)
    - function: _ZNKSt6__ndk114__codecvt_utf8IDsE10do_unshiftER9mbstate_tPcS4_RS4_ (Address: 0x6b64728cfc)
    - function: AbslInternalPerThreadSemPost_lts_20210324 (Address: 0x6b645dfcc8)
    - function: _Z35alts_handshaker_client_start_clientP22alts_handshaker_client (Address: 0x6b645790b4)
    - function: _ZNSt6__ndk110to_wstringEd (Address: 0x6b6473dec4)
    - function: _ZN9grpc_core31InsecureServerSecurityConnector10check_peerE8tsi_peerP13grpc_endpointPNS_13RefCountedPtrI17grpc_auth_contextEEP12grpc_closure (Address: 0x6b6454c854)
    - function: _Z23grpc_inproc_plugin_initv (Address: 0x6b644dd1ec)
    - function: _ZN9grpc_core16InternedMetadata18RefWithShardLockedEP11mdtab_shard (Address: 0x6b64458230)
    - variable: _ZTVN9grpc_core13ClientChannel26ClientChannelControlHelperE (Address: 0x6b648f2648)
    - function: _ZN9grpc_core8channelz12ChannelTrace10TraceEventC2ENS1_8SeverityERK10grpc_slice (Address: 0x6b6441a1cc)
    - function: _Z12grpc_accept4iP21grpc_resolved_addressii (Address: 0x6b6455a150)
    - function: _ZN9grpc_core6Server34AllocatingRequestMatcherRegisteredD2Ev (Address: 0x6b64454d94)
    - function: _ZN9grpc_core8internal42alts_tsi_handshaker_get_client_for_testingEP19alts_tsi_handshaker (Address: 0x6b645686fc)
    - function: _ZNSt6__ndk15stoldERKNS_12basic_stringIwNS_11char_traitsIwEENS_9allocatorIwEEEEPm (Address: 0x6b6473c040)
    - function: _ZN9grpc_core13ClientChannel17SubchannelWrapper28UpdateHealthCheckServiceNameEN4absl12lts_202103248optionalINSt6__ndk112basic_stringIcNS5_11char_traitsIcEENS5_9allocatorIcEEEEEE (Address: 0x6b643ee624)
    - function: _ZNSt6__ndk115basic_streambufIwNS_11char_traitsIwEEE9pubsetbufEPwl (Address: 0x6b646f27b8)
    - function: _ZNSt6__ndk16__treeINS_12__value_typeINS_12basic_stringIcNS_11char_traitsIcEENS_9allocatorIcEEEEN9grpc_core4JsonEEENS_19__map_value_compareIS7_SA_NS_4lessIS7_EELb1EEENS5_ISA_EEE7destroyEPNS_11__tree_nodeISA_PvEE (Address: 0x6b643f39e8)
    - function: _ZN9grpc_core13ClientChannel17SubchannelWrapper14WatcherWrapperD0Ev (Address: 0x6b643f46fc)
    - variable: _ZTIN9grpc_core20XdsLocalityAttributeE (Address: 0x6b648f7170)
    - variable: _ZTINSt6__ndk117__widen_from_utf8ILm32EEE (Address: 0x6b64914270)
    - variable: envoy_config_core_v3_CidrRange_msginit (Address: 0x6b648fb550)
    - variable: _ZTVN9grpc_core6chttp217StreamFlowControlE (Address: 0x6b648f8bc0)
    - function: _ZNSt6__ndk16vectorINS_12basic_stringIcNS_11char_traitsIcEENS_9allocatorIcEEEENS4_IS6_EEEC2INS_11__wrap_iterIPKS6_EEEET_NS_9enable_ifIXaasr21__is_forward_iteratorISE_EE5valuesr16is_constructibleIS6_NS_15iterator_traitsISE_E9referenceEEE5valueESE_E4typeE (Address: 0x6b6455390c)
    - function: _Z24grpc_auth_context_to_argP17grpc_auth_context (Address: 0x6b64432688)
    - function: _ZN4absl12lts_2021032419str_format_internal10AppendPackEPNSt6__ndk112basic_stringIcNS2_11char_traitsIcEENS2_9allocatorIcEEEENS1_21UntypedFormatSpecImplENS0_4SpanIKNS1_13FormatArgImplEEE (Address: 0x6b645d3b14)
    - function: _ZNKSt6__ndk18time_getIwNS_19istreambuf_iteratorIwNS_11char_traitsIwEEEEE15__get_monthnameERiRS4_S4_RjRKNS_5ctypeIwEE (Address: 0x6b6470c574)
    - function: _ZN3re28Compiler7CaptureENS_4FragEi (Address: 0x6b64595ff0)
    - function: _ZN3re26Regexp20CompileToReverseProgEl (Address: 0x6b645986bc)
    - function: _Z26grpc_mdctx_global_shutdownv (Address: 0x6b64457fd0)
    - variable: _ZTINSt6__ndk115messages_bynameIcEE (Address: 0x6b64915240)
    - variable: _ZTSN9grpc_core14WorkSerializer18WorkSerializerImplE (Address: 0x6b64779a30)
    - variable: envoy_config_bootstrap_v3_ClusterManager_OutlierDetection_msginit (Address: 0x6b648faf00)
    - function: _ZNSt6__ndk17collateIcED1Ev (Address: 0x6b646fd248)
    - function: _Z20grpc_init_poll_posixb (Address: 0x6b6456a488)
    - function: _ZNSt6__ndk16vectorIN9grpc_core6XdsApi5Route10HashPolicyENS_9allocatorIS4_EEE6assignIPS4_EENS_9enable_ifIXaasr21__is_forward_iteratorIT_EE5valuesr16is_constructibleIS4_NS_15iterator_traitsISB_E9referenceEEE5valueEvE4typeESB_SB_ (Address: 0x6b644b867c)
    - function: gpr_ref (Address: 0x6b645b36d4)
    - variable: envoy_config_listener_v3_FilterChain_msginit (Address: 0x6b648fc120)
    - function: _ZN9grpc_core13StringMatcherC2EOS0_ (Address: 0x6b6453861c)
    - function: upb_strtable_iter_isequal (Address: 0x6b645bd698)
    - function: _ZNSt6__ndk114basic_iostreamIcNS_11char_traitsIcEEEC1EPNS_15basic_streambufIcS2_EE (Address: 0x6b646fc908)
    - function: _ZNKSt6__ndk115__codecvt_utf16IwLb1EE9do_lengthER9mbstate_tPKcS5_m (Address: 0x6b64729508)
    - function: _ZNSt6__ndk16__treeINS_12__value_typeIN4absl12lts_2021032411string_viewES4_EENS_19__map_value_compareIS4_S5_NS_4lessIS4_EELb1EEENS_9allocatorIS5_EEE7destroyEPNS_11__tree_nodeIS5_PvEE (Address: 0x6b643f2b34)
    - function: _ZNSt12domain_errorC2ERKS_ (Address: 0x6b645f0df4)
    - function: upb_map_new (Address: 0x6b645c0d4c)
    - function: _ZN4absl12lts_2021032423inlined_vector_internal7StorageIP10grpc_errorLm3ENSt6__ndk19allocatorIS4_EEE15EmplaceBackSlowIJS4_EEERS4_DpOT_ (Address: 0x6b645415f0)
    - function: _Z41gpr_global_config_set_grpc_abort_on_leaksb (Address: 0x6b6452c29c)
    - function: _ZN4absl12lts_2021032416strings_internal11BigUnsignedILi4EE22MultiplyByFiveToTheNthEi (Address: 0x6b645ee0f8)
    - function: _ZNKSt6__ndk17num_getIwNS_19istreambuf_iteratorIwNS_11char_traitsIwEEEEE6do_getES4_S4_RNS_8ios_baseERjRx (Address: 0x6b64701ce8)
    - function: _ZNSt9bad_allocD0Ev (Address: 0x6b64744518)
    - function: _ZNSt6__ndk112basic_stringIwNS_11char_traitsIwEENS_9allocatorIwEEE6insertEmPKwm (Address: 0x6b64737724)
    - function: _Z26grpc_event_engine_shutdownv (Address: 0x6b64559de8)
    - function: _ZN9grpc_core18ChildPolicyHandlerD2Ev (Address: 0x6b643fbd2c)
    - function: _ZNSt6__ndk113basic_istreamIwNS_11char_traitsIwEEE6sentryC1ERS3_b (Address: 0x6b646f5fa8)
    - function: _ZN4absl12lts_2021032413base_internal12SpinLockWaitEPNSt6__ndk16atomicIjEEiPKNS1_22SpinLockWaitTransitionENS1_14SchedulingModeE (Address: 0x6b645f1c1c)
    - function: _ZN9grpc_core19LoadBalancingPolicyC2ENS0_4ArgsEl (Address: 0x6b643fa744)
    - function: _ZN9grpc_core17HealthCheckClient9CallStateD2Ev (Address: 0x6b644694b8)
    - function: _ZN9grpc_core19LoadBalancingPolicyD1Ev (Address: 0x6b643fa830)
    - function: _ZN9grpc_core9XdsClient12ChannelState12AdsCallState17SendMessageLockedERKNSt6__ndk112basic_stringIcNS3_11char_traitsIcEENS3_9allocatorIcEEEE (Address: 0x6b6450ac48)
    - function: _ZNKSt6__ndk120__codecvt_utf8_utf16IwE11do_encodingEv (Address: 0x6b6472a6b4)
    - function: _Z34grpc_event_engine_can_track_errorsv (Address: 0x6b64559e14)
    - variable: _ZTIN9grpc_core13ServiceConfigE (Address: 0x6b648f3140)
    - function: _ZNKSt6__ndk114__codecvt_utf8IDsE9do_lengthER9mbstate_tPKcS5_m (Address: 0x6b64728d18)
    - variable: _ZTSN9grpc_core13ServiceConfigE (Address: 0x6b64777360)
    - function: _ZNSt6__ndk113unordered_mapINS_12basic_stringIcNS_11char_traitsIcEENS_9allocatorIcEEEEPKN4absl12lts_2021032413time_internal4cctz9time_zone4ImplENS_4hashIS6_EENS_8equal_toIS6_EENS4_INS_4pairIKS6_SE_EEEEEixERSK_ (Address: 0x6b645f7f28)
    - function: _ZN9grpc_core24CertificateProviderStore31CreateCertificateProviderLockedEN4absl12lts_2021032411string_viewE (Address: 0x6b644e1774)
    - function: _Z22grpc_set_socket_rcvbufii (Address: 0x6b6442c674)
    - function: _ZN9grpc_core26ExternalAccountCredentials15OnExchangeTokenEPvP10grpc_error (Address: 0x6b6455d8bc)
    - function: _ZN9grpc_core6chttp224TransportFlowControlBase13bdp_estimatorEv (Address: 0x6b644d22f4)
    - function: _ZNSt6__ndk110__time_getC2ERKNS_12basic_stringIcNS_11char_traitsIcEENS_9allocatorIcEEEE (Address: 0x6b6472c560)
    - variable: _ZTVN9grpc_core29FakeResolverResponseGeneratorE (Address: 0x6b648f7468)
    - function: _ZN9grpc_core20ClientChannelFactory16CreateChannelArgEPS0_ (Address: 0x6b643f95ec)
    - variable: _ZTINSt6__ndk19__num_getIwEE (Address: 0x6b64914b10)
    - function: _ZNSt6__ndk110__function6__funcIN4absl12lts_2021032419functional_internal11FrontBinderIMN9grpc_core22XdsCertificateProviderEFvNS_12basic_stringIcNS_11char_traitsIcEENS_9allocatorIcEEEEbbEJPS7_EEENSB_ISH_EEFvSD_bbEED0Ev (Address: 0x6b64508470)
    - variable: _ZTSN3re218CaptureNamesWalkerE (Address: 0x6b647cc9b0)
    - function: grpcsharp_server_register_completion_queue (Address: 0x6b643e824c)
    - variable: _ZTSNSt6__ndk117moneypunct_bynameIwLb1EEE (Address: 0x6b648061b0)
    - function: _ZN4absl12lts_2021032413time_internal4cctz12TimeZoneLibCC1ERKNSt6__ndk112basic_stringIcNS4_11char_traitsIcEENS4_9allocatorIcEEEE (Address: 0x6b645ffa18)
    - function: grpcsharp_metadata_array_get_value (Address: 0x6b643e6d48)
    - function: _Z39grpc_alts_get_shared_resource_dedicatedv (Address: 0x6b6457a27c)
    - function: _ZN9grpc_core29AwsExternalAccountCredentials19RetrieveSigningKeysEv (Address: 0x6b64570d3c)
    - function: _ZNSt6__ndk115basic_streambufIcNS_11char_traitsIcEEE7seekoffExNS_8ios_base7seekdirEj (Address: 0x6b6458c670)
    - function: upb_fielddef_fullname (Address: 0x6b645b7530)
    - function: _ZN4absl12lts_2021032424synchronization_internal12PerThreadSem23SetThreadBlockedCounterEPNSt6__ndk16atomicIiEE (Address: 0x6b645dfbfc)
    - variable: _ZNSt6__ndk18ios_base10floatfieldE (Address: 0x6b64803b44)
    - variable: envoy_type_v3_semantic_version_proto_upbdefinit (Address: 0x6b64921310)
    - function: _ZN9grpc_core19LoadBalancingPolicy6OrphanEv (Address: 0x6b643fa8ec)
    - function: _ZN9grpc_core13SplitHostPortEN4absl12lts_2021032411string_viewEPNSt6__ndk112basic_stringIcNS3_11char_traitsIcEENS3_9allocatorIcEEEESA_ (Address: 0x6b645b564c)
    - function: _ZNSt6__ndk19__num_getIwE17__stage2_int_loopEwiPcRS2_RjwRKNS_12basic_stringIcNS_11char_traitsIcEENS_9allocatorIcEEEEPjRSD_Pw (Address: 0x6b647047f4)
    - function: _ZNKSt6__ndk117moneypunct_bynameIwLb1EE14do_frac_digitsEv (Address: 0x6b64713440)
    - function: _ZNSt6__ndk112system_errorC2EiRKNS_14error_categoryE (Address: 0x6b6473f04c)
    - variable: udpa_annotations_FieldMigrateAnnotation_msginit (Address: 0x6b648fe588)
    - function: _ZNSt16bad_array_lengthD1Ev (Address: 0x6b647444e0)
    - function: _Z20grpc_tracer_shutdownv (Address: 0x6b64429740)
    - function: _ZN9grpc_core13ClientChannel27ExternalConnectivityWatcherD0Ev (Address: 0x6b643ea1d0)
    - variable: _dist_code (Address: 0x6b647c96b0)
    - function: grpcsharp_request_call_context_method (Address: 0x6b643e729c)
    - function: _ZNSt6__ndk112basic_stringIcNS_11char_traitsIcEENS_9allocatorIcEEEC2ERKS5_RKS4_ (Address: 0x6b64731f98)
    - function: _ZN30grpc_server_security_connectorC2EPKcN9grpc_core13RefCountedPtrI23grpc_server_credentialsEE (Address: 0x6b64436650)
    - variable: _ZTSNSt6__ndk110moneypunctIwLb0EEE (Address: 0x6b648060e0)
    - function: _ZNSt6__ndk16chrono12system_clock9to_time_tERKNS0_10time_pointIS1_NS0_8durationIxNS_5ratioILl1ELl1000000EEEEEEE (Address: 0x6b646f0294)
    - variable: _ZTSi (Address: 0x6b64807178)
    - function: _ZN9grpc_core12XdsBootstrapC2ENS_4JsonEPP10grpc_error (Address: 0x6b645010c4)
    - function: _ZN9grpc_core21GlobalConfigEnvString3SetEPKc (Address: 0x6b645b52d8)
    - function: _ZNSt6__ndk114basic_iostreamIcNS_11char_traitsIcEEED0Ev (Address: 0x6b646fc9dc)
    - function: _ZN9grpc_core20XdsServerCredentialsD2Ev (Address: 0x6b6454b440)
    - variable: envoy_config_overload_v3_ThresholdTrigger_msginit (Address: 0x6b648fc320)
    - function: grpcsharp_request_call_context_destroy (Address: 0x6b643e7074)
    - function: gpr_log_severity_string (Address: 0x6b645b20d8)
    - variable: envoy_type_v3_FractionalPercent_msginit (Address: 0x6b648fd630)
    - function: _ZN3re26Regexp10ParseState14ParseCharClassEPNS_11StringPieceEPPS0_PNS_12RegexpStatusE (Address: 0x6b645a7524)
    - variable: _ZTIPDs (Address: 0x6b64916010)
    - function: _Z29grpc_metadata_batch_link_headP19grpc_metadata_batchP18grpc_linked_mdelem34grpc_metadata_batch_callouts_index (Address: 0x6b64459748)
    - function: _ZNKSt6__ndk112basic_stringIcNS_11char_traitsIcEENS_9allocatorIcEEE7compareEmmRKS5_mm (Address: 0x6b64735b70)
    - function: upb_inttable_iter_key (Address: 0x6b645be83c)
    - function: _ZN4absl12lts_202103244Cord10AppendImplIS1_EEvOT_ (Address: 0x6b645c60dc)
    - function: _ZN9grpc_core14SubchannelCall34MaybeInterceptRecvTrailingMetadataEP30grpc_transport_stream_op_batch (Address: 0x6b6440ce60)
    - function: _ZN4absl12lts_2021032419str_format_internal16ParsedFormatBaseC2ENS0_11string_viewEbSt16initializer_listINS0_23FormatConversionCharSetEE (Address: 0x6b645daac4)
    - function: _ZNSt6__ndk18ios_baseD0Ev (Address: 0x6b646fd1ac)
    - function: _ZNSt6__ndk16__treeINS_12__value_typeINS_12basic_stringIcNS_11char_traitsIcEENS_9allocatorIcEEEEN9grpc_core9XdsClient13EndpointStateEEENS_19__map_value_compareIS7_SB_NS_4lessIS7_EELb1EEENS5_ISB_EEE7destroyEPNS_11__tree_nodeISB_PvEE (Address: 0x6b6451bc88)
    - function: _ZN9grpc_core3URIC1ENSt6__ndk112basic_stringIcNS1_11char_traitsIcEENS1_9allocatorIcEEEES7_S7_NS1_6vectorINS0_10QueryParamENS5_IS9_EEEES7_ (Address: 0x6b6446047c)
    - function: _Z24grpc_dump_slice_to_sliceRK10grpc_slicej (Address: 0x6b6443f9a8)
    - function: _ZNKSt6__ndk15ctypeIcE8do_widenEPKcS3_Pc (Address: 0x6b64725c6c)
    - variable: _ZTSN3re217NumCapturesWalkerE (Address: 0x6b647cc950)
    - variable: _ZTI34grpc_composite_channel_credentials (Address: 0x6b648f3a40)
    - function: _ZNKSt6__ndk17codecvtIwc9mbstate_tE16do_always_noconvEv (Address: 0x6b64727650)
    - function: _ZN9grpc_core19GlobalConfigEnvBool3SetEb (Address: 0x6b645b4ff4)
    - variable: _ZTVNSt6__ndk115time_put_bynameIwNS_19ostreambuf_iteratorIwNS_11char_traitsIwEEEEEE (Address: 0x6b649132e8)
    - function: _Z24grpc_http_parser_destroyP16grpc_http_parser (Address: 0x6b64529834)
    - function: grpcsharp_completion_queue_create_sync (Address: 0x6b643e731c)
    - function: _ZN9grpc_core9XdsClient12ChannelState12AdsCallState13ResourceState7OnTimerEPvP10grpc_error (Address: 0x6b6451e5e4)
    - variable: grpc_trace_channel (Address: 0x6b64922c50)
    - variable: _ZTVN9grpc_core10SubchannelE (Address: 0x6b648f31a0)
    - function: _ZN9grpc_core8internal45alts_tsi_handshaker_get_is_client_for_testingEP19alts_tsi_handshaker (Address: 0x6b645686c0)
    - function: _ZN28grpc_alts_server_credentialsD2Ev (Address: 0x6b6455ab68)
    - variable: _ZTIN9grpc_core14ConfigSelectorE (Address: 0x6b648f27d0)
    - function: _ZN3re26Regexp12CaptureNamesEv (Address: 0x6b64590640)
    - function: _ZNSt9bad_allocC1Ev (Address: 0x6b64744504)
    - function: _ZN4absl12lts_2021032415ToDoubleMinutesENS0_8DurationE (Address: 0x6b645e2f74)
    - variable: _ZN4absl12lts_2021032419str_format_internal31FormatConversionCharSetInternal1EE (Address: 0x6b647dae68)
    - function: _ZN9grpc_core14MakeRefCountedINS_19XdsClusterDropStatsEJNS_13RefCountedPtrINS_9XdsClientEEERN4absl12lts_2021032411string_viewERKNSt6__ndk112basic_stringIcNS9_11char_traitsIcEENS9_9allocatorIcEEEESH_EEENS2_IT_EEDpOT0_ (Address: 0x6b645160d8)
    - function: _upb_symtab_loaddefinit (Address: 0x6b645b9108)
    - variable: _ZTSN9grpc_core26CertificateProviderFactoryE (Address: 0x6b64792b40)
    - variable: envoy_config_core_v3_config_source_proto_upbdefinit (Address: 0x6b64920338)
    - function: _ZNKSt6__ndk110moneypunctIwLb0EE13do_neg_formatEv (Address: 0x6b647110a0)
    - variable: _ZTSe (Address: 0x6b64807200)
    - function: _ZN9grpc_core4Fork12AwaitThreadsEv (Address: 0x6b645b4c8c)
    - function: upb_oneofdef_issynthetic (Address: 0x6b645b7604)
    - function: grpcsharp_channel_credentials_release (Address: 0x6b643e8418)
    - function: _ZN9grpc_core14DynamicFilters4Call3RefERKNS_13DebugLocationEPKc (Address: 0x6b643f9a50)
    - function: __cxa_demangle (Address: 0x6b64744e9c)
    - function: grpc_ssl_credentials_create (Address: 0x6b64435b84)
    - function: upb_filedef_symtab (Address: 0x6b645b7e8c)
    - function: _ZN9grpc_core26TlsServerSecurityConnector27TlsServerCertificateWatcher21OnCertificatesChangedEN4absl12lts_202103248optionalINS3_11string_viewEEENS4_INS3_13InlinedVectorINS_14PemKeyCertPairELm1ENSt6__ndk19allocatorIS8_EEEEEE (Address: 0x6b6456779c)
    - variable: validate_SFixed32Rules_msginit (Address: 0x6b648fe7b8)
    - function: _ZN4absl12lts_2021032423inlined_vector_internal7StorageINSt6__ndk112basic_stringIcNS3_11char_traitsIcEENS3_9allocatorIcEEEELm8ENS7_IS9_EEE15EmplaceBackSlowIJS9_EEERS9_DpOT_ (Address: 0x6b64500854)
    - function: _Z22grpc_endpoint_shutdownP13grpc_endpointP10grpc_error (Address: 0x6b6452ae6c)
    - variable: _ZTIN10__cxxabiv116__shim_type_infoE (Address: 0x6b649157d0)
    - function: _Z19alts_counter_createbmmPP12alts_counterPPc (Address: 0x6b6457c7f8)
    - function: _ZN4absl12lts_2021032423inlined_vector_internal7StorageIN9grpc_core13ServerAddressELm1ENSt6__ndk19allocatorIS4_EEE8InitFromERKS8_ (Address: 0x6b64472f30)
    - function: _ZNK21grpc_call_credentials18min_security_levelEv (Address: 0x6b64435610)
    - function: upb_fielddef_checktype (Address: 0x6b645b77f8)
    - variable: _ZTIN9grpc_core10RefCountedINS_19LoadBalancingPolicy6ConfigENS_19PolymorphicRefCountELNS_13UnrefBehaviorE0EEE (Address: 0x6b648f53f0)
    - variable: envoy_config_core_v3_GrpcService_GoogleGrpc_SslCredentials_msginit (Address: 0x6b648fb9c8)
    - variable: grpc_pipe_wakeup_fd_vtable (Address: 0x6b648fd890)
    - function: _ZN9grpc_core13RefCountedPtrINS_17GrpcLbClientStatsEED2Ev (Address: 0x6b6446ee6c)
    - function: _ZN9grpc_core29UrlExternalAccountCredentials20RetrieveSubjectTokenEPNS_26ExternalAccountCredentials18HTTPRequestContextERKNS1_7OptionsENSt6__ndk18functionIFvNS7_12basic_stringIcNS7_11char_traitsIcEENS7_9allocatorIcEEEEP10grpc_errorEEE (Address: 0x6b64561260)
    - function: _ZNSt6__ndk113basic_istreamIcNS_11char_traitsIcEEE6sentryC1ERS3_b (Address: 0x6b646f3194)
    - function: _ZNSt6__ndk118__time_get_storageIwEC1ERKNS_12basic_stringIcNS_11char_traitsIcEENS_9allocatorIcEEEE (Address: 0x6b6470ecdc)
    - function: _Z22grpc_stats_histo_countPK15grpc_stats_data21grpc_stats_histograms (Address: 0x6b64527458)
    - function: _Z32grpc_client_idle_filter_shutdownv (Address: 0x6b644bb310)
    - variable: _ZTIN9grpc_core10RefCountedINS_8channelz8BaseNodeENS_19PolymorphicRefCountELNS_13UnrefBehaviorE0EEE (Address: 0x6b648f3700)
    - function: _ZN43grpc_httpcli_ssl_channel_security_connector10check_peerE8tsi_peerP13grpc_endpointPN9grpc_core13RefCountedPtrI17grpc_auth_contextEEP12grpc_closure (Address: 0x6b645594c0)
    - function: _ZN9grpc_core6XdsApi16ParseLrsResponseERK10grpc_slicePbPNSt6__ndk13setINS5_12basic_stringIcNS5_11char_traitsIcEENS5_9allocatorIcEEEENS5_4lessISC_EENSA_ISC_EEEEPl (Address: 0x6b644f3eb4)
    - function: upb_map_delete (Address: 0x6b645c1894)
    - variable: _ZTI24grpc_channel_credentials (Address: 0x6b648f3aa0)
    - function: _Z39grpc_tcp_client_create_from_prepared_fdP16grpc_pollset_setP12grpc_closureiPK17grpc_channel_argsPK21grpc_resolved_addresslPP13grpc_endpoint (Address: 0x6b6452fd40)
